ARM GAS  C:\Users\yaman\AppData\Local\Temp\ccCu6FW5.s 			page 1


   1              		.cpu cortex-m7
   2              		.eabi_attribute 28, 1
   3              		.eabi_attribute 20, 1
   4              		.eabi_attribute 21, 1
   5              		.eabi_attribute 23, 3
   6              		.eabi_attribute 24, 1
   7              		.eabi_attribute 25, 1
   8              		.eabi_attribute 26, 1
   9              		.eabi_attribute 30, 2
  10              		.eabi_attribute 34, 1
  11              		.eabi_attribute 18, 4
  12              		.file	"looper.cpp"
  13              		.text
  14              	.Ltext0:
  15              		.cfi_sections	.debug_frame
  16              		.section	.text._ZN4kxmx9BluemchenD2Ev,"axG",%progbits,_ZN4kxmx9BluemchenD5Ev,comdat
  17              		.align	1
  18              		.p2align 2,,3
  19              		.weak	_ZN4kxmx9BluemchenD2Ev
  20              		.arch armv7e-m
  21              		.syntax unified
  22              		.thumb
  23              		.thumb_func
  24              		.fpu fpv5-d16
  26              	_ZN4kxmx9BluemchenD2Ev:
  27              	.LVL0:
  28              	.LFB4745:
  29              		.file 1 "examples/../src/kxmx_bluemchen.h"
   1:examples/../src/kxmx_bluemchen.h **** #pragma once
   2:examples/../src/kxmx_bluemchen.h **** 
   3:examples/../src/kxmx_bluemchen.h **** #include "daisy_seed.h"
   4:examples/../src/kxmx_bluemchen.h **** #include "dev/oled_ssd130x.h"
   5:examples/../src/kxmx_bluemchen.h **** 
   6:examples/../src/kxmx_bluemchen.h **** namespace kxmx
   7:examples/../src/kxmx_bluemchen.h **** {
   8:examples/../src/kxmx_bluemchen.h **** class Bluemchen
   9:examples/../src/kxmx_bluemchen.h **** {
  10:examples/../src/kxmx_bluemchen.h ****   public:
  11:examples/../src/kxmx_bluemchen.h ****     /** Enum of Ctrls to represent the two knobs and two CV inputs of the kxmx_*
  12:examples/../src/kxmx_bluemchen.h ****      */
  13:examples/../src/kxmx_bluemchen.h ****     enum Ctrl
  14:examples/../src/kxmx_bluemchen.h ****     {
  15:examples/../src/kxmx_bluemchen.h ****         CTRL_1,   /**< */
  16:examples/../src/kxmx_bluemchen.h ****         CTRL_2,   /**< */
  17:examples/../src/kxmx_bluemchen.h ****         CTRL_3,   /**< */
  18:examples/../src/kxmx_bluemchen.h ****         CTRL_4,   /**< */
  19:examples/../src/kxmx_bluemchen.h ****         CTRL_LAST /**< */
  20:examples/../src/kxmx_bluemchen.h ****     };
  21:examples/../src/kxmx_bluemchen.h **** 
  22:examples/../src/kxmx_bluemchen.h ****     /** Constructor */
  23:examples/../src/kxmx_bluemchen.h ****     Bluemchen() {}
  24:examples/../src/kxmx_bluemchen.h ****     /** Destructor */
  25:examples/../src/kxmx_bluemchen.h ****     ~Bluemchen() {}
  30              		.loc 1 25 5 view -0
  31              		.cfi_startproc
  32              		@ args = 0, pretend = 0, frame = 0
  33              		@ frame_needed = 0, uses_anonymous_args = 0
ARM GAS  C:\Users\yaman\AppData\Local\Temp\ccCu6FW5.s 			page 2


  34              		@ link register save eliminated.
  35              	.LBB582:
  36              	.LBI582:
  37              		.file 2 "libDaisy/src/hid/disp/oled_display.h"
   1:libDaisy/src/hid/disp/oled_display.h **** #pragma once
   2:libDaisy/src/hid/disp/oled_display.h **** #ifndef DSY_OLED_DISPLAY_H
   3:libDaisy/src/hid/disp/oled_display.h **** #define DSY_OLED_DISPLAY_H /**< Macro */
   4:libDaisy/src/hid/disp/oled_display.h **** 
   5:libDaisy/src/hid/disp/oled_display.h **** #include "display.h"
   6:libDaisy/src/hid/disp/oled_display.h **** 
   7:libDaisy/src/hid/disp/oled_display.h **** namespace daisy
   8:libDaisy/src/hid/disp/oled_display.h **** {
   9:libDaisy/src/hid/disp/oled_display.h **** /** 
  10:libDaisy/src/hid/disp/oled_display.h ****  * This class is for drawing to a monochrome OLED display. 
  11:libDaisy/src/hid/disp/oled_display.h ****  * @ingroup device
  12:libDaisy/src/hid/disp/oled_display.h **** */
  13:libDaisy/src/hid/disp/oled_display.h **** template <typename DisplayDriver>
  14:libDaisy/src/hid/disp/oled_display.h **** class OledDisplay : public OneBitGraphicsDisplayImpl<OledDisplay<DisplayDriver>>
  15:libDaisy/src/hid/disp/oled_display.h **** {
  16:libDaisy/src/hid/disp/oled_display.h ****   public:
  17:libDaisy/src/hid/disp/oled_display.h ****     OledDisplay() {}
  18:libDaisy/src/hid/disp/oled_display.h ****     virtual ~OledDisplay() {}
  38              		.loc 2 18 13 view .LVU1
  39              	.LBB583:
  40              	.LBI583:
  41              		.file 3 "libDaisy/src/hid/disp/display.h"
   1:libDaisy/src/hid/disp/display.h **** #pragma once
   2:libDaisy/src/hid/disp/display.h **** #ifndef DSY_DISPLAY_H
   3:libDaisy/src/hid/disp/display.h **** #define DSY_DISPLAY_H /**< Macro */
   4:libDaisy/src/hid/disp/display.h **** #include <cmath>
   5:libDaisy/src/hid/disp/display.h **** #include "util/oled_fonts.h"
   6:libDaisy/src/hid/disp/display.h **** #include "daisy_core.h"
   7:libDaisy/src/hid/disp/display.h **** #include "graphics_common.h"
   8:libDaisy/src/hid/disp/display.h **** 
   9:libDaisy/src/hid/disp/display.h **** #ifndef deg2rad
  10:libDaisy/src/hid/disp/display.h **** #define deg2rad(deg) ((deg)*3.141592 / 180.0)
  11:libDaisy/src/hid/disp/display.h **** #endif
  12:libDaisy/src/hid/disp/display.h **** 
  13:libDaisy/src/hid/disp/display.h **** namespace daisy
  14:libDaisy/src/hid/disp/display.h **** {
  15:libDaisy/src/hid/disp/display.h **** /** 
  16:libDaisy/src/hid/disp/display.h ****  * This interface is used as a base class for all types of 1bit-per-pixel
  17:libDaisy/src/hid/disp/display.h ****  * graphics displays.
  18:libDaisy/src/hid/disp/display.h **** */
  19:libDaisy/src/hid/disp/display.h **** class OneBitGraphicsDisplay
  20:libDaisy/src/hid/disp/display.h **** {
  21:libDaisy/src/hid/disp/display.h ****   public:
  22:libDaisy/src/hid/disp/display.h ****     OneBitGraphicsDisplay() {}
  23:libDaisy/src/hid/disp/display.h ****     virtual ~OneBitGraphicsDisplay() {}
  24:libDaisy/src/hid/disp/display.h **** 
  25:libDaisy/src/hid/disp/display.h ****     virtual uint16_t Height() const = 0;
  26:libDaisy/src/hid/disp/display.h ****     virtual uint16_t Width() const  = 0;
  27:libDaisy/src/hid/disp/display.h **** 
  28:libDaisy/src/hid/disp/display.h ****     Rectangle GetBounds() const
  29:libDaisy/src/hid/disp/display.h ****     {
  30:libDaisy/src/hid/disp/display.h ****         return Rectangle(int16_t(Width()), int16_t(Height()));
  31:libDaisy/src/hid/disp/display.h ****     }
ARM GAS  C:\Users\yaman\AppData\Local\Temp\ccCu6FW5.s 			page 3


  32:libDaisy/src/hid/disp/display.h **** 
  33:libDaisy/src/hid/disp/display.h **** 
  34:libDaisy/src/hid/disp/display.h ****     size_t CurrentX() { return currentX_; };
  35:libDaisy/src/hid/disp/display.h ****     size_t CurrentY() { return currentY_; };
  36:libDaisy/src/hid/disp/display.h **** 
  37:libDaisy/src/hid/disp/display.h ****     /** 
  38:libDaisy/src/hid/disp/display.h ****     Fills the entire display with either on/off.
  39:libDaisy/src/hid/disp/display.h ****     \param on Sets on or off.
  40:libDaisy/src/hid/disp/display.h ****     */
  41:libDaisy/src/hid/disp/display.h ****     virtual void Fill(bool on) = 0;
  42:libDaisy/src/hid/disp/display.h **** 
  43:libDaisy/src/hid/disp/display.h ****     /**
  44:libDaisy/src/hid/disp/display.h ****     Sets the pixel at the specified coordinate to be on/off.
  45:libDaisy/src/hid/disp/display.h ****     \param x   x Coordinate
  46:libDaisy/src/hid/disp/display.h ****     \param y   y coordinate
  47:libDaisy/src/hid/disp/display.h ****     \param on  on or off
  48:libDaisy/src/hid/disp/display.h ****     */
  49:libDaisy/src/hid/disp/display.h ****     virtual void DrawPixel(uint_fast8_t x, uint_fast8_t y, bool on) = 0;
  50:libDaisy/src/hid/disp/display.h **** 
  51:libDaisy/src/hid/disp/display.h ****     /**
  52:libDaisy/src/hid/disp/display.h ****     Draws a line from (x1, y1) to (y1, y2)
  53:libDaisy/src/hid/disp/display.h ****     \param x1  x Coordinate of the starting point
  54:libDaisy/src/hid/disp/display.h ****     \param y1  y Coordinate of the starting point
  55:libDaisy/src/hid/disp/display.h ****     \param x2  x Coordinate of the ending point
  56:libDaisy/src/hid/disp/display.h ****     \param y2  y Coordinate of the ending point
  57:libDaisy/src/hid/disp/display.h ****     \param on  on or off
  58:libDaisy/src/hid/disp/display.h ****     */
  59:libDaisy/src/hid/disp/display.h ****     virtual void DrawLine(uint_fast8_t x1,
  60:libDaisy/src/hid/disp/display.h ****                           uint_fast8_t y1,
  61:libDaisy/src/hid/disp/display.h ****                           uint_fast8_t x2,
  62:libDaisy/src/hid/disp/display.h ****                           uint_fast8_t y2,
  63:libDaisy/src/hid/disp/display.h ****                           bool         on)
  64:libDaisy/src/hid/disp/display.h ****         = 0;
  65:libDaisy/src/hid/disp/display.h **** 
  66:libDaisy/src/hid/disp/display.h ****     /**
  67:libDaisy/src/hid/disp/display.h ****     Draws a rectangle based on two coordinates.
  68:libDaisy/src/hid/disp/display.h ****     \param x1 x Coordinate of the first point
  69:libDaisy/src/hid/disp/display.h ****     \param y1 y Coordinate of the first point
  70:libDaisy/src/hid/disp/display.h ****     \param x2 x Coordinate of the second point
  71:libDaisy/src/hid/disp/display.h ****     \param y2 y Coordinate of the second point
  72:libDaisy/src/hid/disp/display.h ****     \param on on or off
  73:libDaisy/src/hid/disp/display.h ****     \param fill fill the rectangle or draw only the outline
  74:libDaisy/src/hid/disp/display.h ****     */
  75:libDaisy/src/hid/disp/display.h ****     virtual void DrawRect(uint_fast8_t x1,
  76:libDaisy/src/hid/disp/display.h ****                           uint_fast8_t y1,
  77:libDaisy/src/hid/disp/display.h ****                           uint_fast8_t x2,
  78:libDaisy/src/hid/disp/display.h ****                           uint_fast8_t y2,
  79:libDaisy/src/hid/disp/display.h ****                           bool         on,
  80:libDaisy/src/hid/disp/display.h ****                           bool         fill = false)
  81:libDaisy/src/hid/disp/display.h ****         = 0;
  82:libDaisy/src/hid/disp/display.h **** 
  83:libDaisy/src/hid/disp/display.h ****     /**
  84:libDaisy/src/hid/disp/display.h ****     Draws a rectangle.
  85:libDaisy/src/hid/disp/display.h ****     \param rect the rectangle
  86:libDaisy/src/hid/disp/display.h ****     \param on   on or off
  87:libDaisy/src/hid/disp/display.h ****     \param fill fill the rectangle or draw only the outline
  88:libDaisy/src/hid/disp/display.h ****     */
ARM GAS  C:\Users\yaman\AppData\Local\Temp\ccCu6FW5.s 			page 4


  89:libDaisy/src/hid/disp/display.h ****     void DrawRect(const Rectangle& rect, bool on, bool fill = false)
  90:libDaisy/src/hid/disp/display.h ****     {
  91:libDaisy/src/hid/disp/display.h ****         DrawRect(rect.GetX(),
  92:libDaisy/src/hid/disp/display.h ****                  rect.GetY(),
  93:libDaisy/src/hid/disp/display.h ****                  rect.GetRight(),
  94:libDaisy/src/hid/disp/display.h ****                  rect.GetBottom(),
  95:libDaisy/src/hid/disp/display.h ****                  on,
  96:libDaisy/src/hid/disp/display.h ****                  fill);
  97:libDaisy/src/hid/disp/display.h ****     }
  98:libDaisy/src/hid/disp/display.h **** 
  99:libDaisy/src/hid/disp/display.h ****     /**
 100:libDaisy/src/hid/disp/display.h ****     Draws an arc around the specified coordinate
 101:libDaisy/src/hid/disp/display.h ****     \param x           x Coordinate of the center of the arc
 102:libDaisy/src/hid/disp/display.h ****     \param y           y Coordinate of the center of the arc
 103:libDaisy/src/hid/disp/display.h ****     \param radius      radius of the arc
 104:libDaisy/src/hid/disp/display.h ****     \param start_angle angle where to start the arc
 105:libDaisy/src/hid/disp/display.h ****     \param sweep       total angle of the arc
 106:libDaisy/src/hid/disp/display.h ****     \param on  on or off
 107:libDaisy/src/hid/disp/display.h ****     */
 108:libDaisy/src/hid/disp/display.h ****     virtual void DrawArc(uint_fast8_t x,
 109:libDaisy/src/hid/disp/display.h ****                          uint_fast8_t y,
 110:libDaisy/src/hid/disp/display.h ****                          uint_fast8_t radius,
 111:libDaisy/src/hid/disp/display.h ****                          int_fast16_t start_angle,
 112:libDaisy/src/hid/disp/display.h ****                          int_fast16_t sweep,
 113:libDaisy/src/hid/disp/display.h ****                          bool         on)
 114:libDaisy/src/hid/disp/display.h ****         = 0;
 115:libDaisy/src/hid/disp/display.h **** 
 116:libDaisy/src/hid/disp/display.h ****     /**
 117:libDaisy/src/hid/disp/display.h ****     Draws a circle around the specified coordinate
 118:libDaisy/src/hid/disp/display.h ****     \param x           x Coordinate of the center of the circle
 119:libDaisy/src/hid/disp/display.h ****     \param y           y Coordinate of the center of the circle
 120:libDaisy/src/hid/disp/display.h ****     \param radius      radius of the circle
 121:libDaisy/src/hid/disp/display.h ****     \param on  on or off
 122:libDaisy/src/hid/disp/display.h ****     */
 123:libDaisy/src/hid/disp/display.h ****     void
 124:libDaisy/src/hid/disp/display.h ****     DrawCircle(uint_fast8_t x, uint_fast8_t y, uint_fast8_t radius, bool on)
 125:libDaisy/src/hid/disp/display.h ****     {
 126:libDaisy/src/hid/disp/display.h ****         DrawArc(x, y, radius, 0, 360, on);
 127:libDaisy/src/hid/disp/display.h ****     };
 128:libDaisy/src/hid/disp/display.h **** 
 129:libDaisy/src/hid/disp/display.h ****     /** 
 130:libDaisy/src/hid/disp/display.h ****     Writes the character with the specific FontDef
 131:libDaisy/src/hid/disp/display.h ****     to the display buffer at the current Cursor position.
 132:libDaisy/src/hid/disp/display.h ****     \param ch character to be written
 133:libDaisy/src/hid/disp/display.h ****     \param font font to be written in
 134:libDaisy/src/hid/disp/display.h ****     \param on    on or off
 135:libDaisy/src/hid/disp/display.h ****     \return &
 136:libDaisy/src/hid/disp/display.h ****     */
 137:libDaisy/src/hid/disp/display.h ****     virtual char WriteChar(char ch, FontDef font, bool on) = 0;
 138:libDaisy/src/hid/disp/display.h **** 
 139:libDaisy/src/hid/disp/display.h ****     /** 
 140:libDaisy/src/hid/disp/display.h ****     Similar to WriteChar, except it will handle an entire String.
 141:libDaisy/src/hid/disp/display.h ****     Wrapping does not happen automatically, so the width
 142:libDaisy/src/hid/disp/display.h ****     of the string must be kept within the dimensions of the screen.
 143:libDaisy/src/hid/disp/display.h ****     \param str string to be written
 144:libDaisy/src/hid/disp/display.h ****     \param font font to use
 145:libDaisy/src/hid/disp/display.h ****     \param on  on or off
ARM GAS  C:\Users\yaman\AppData\Local\Temp\ccCu6FW5.s 			page 5


 146:libDaisy/src/hid/disp/display.h ****     \return &
 147:libDaisy/src/hid/disp/display.h ****     */
 148:libDaisy/src/hid/disp/display.h ****     virtual char WriteString(const char* str, FontDef font, bool on) = 0;
 149:libDaisy/src/hid/disp/display.h **** 
 150:libDaisy/src/hid/disp/display.h ****     /** 
 151:libDaisy/src/hid/disp/display.h ****     Similar to WriteString but justified within a bounding box.
 152:libDaisy/src/hid/disp/display.h ****     \param str          string to be written
 153:libDaisy/src/hid/disp/display.h ****     \param font         font to use
 154:libDaisy/src/hid/disp/display.h ****     \param boundingBox  the bounding box to draw the text in
 155:libDaisy/src/hid/disp/display.h ****     \param alignment    the alignment to use
 156:libDaisy/src/hid/disp/display.h ****     \param on           on or off
 157:libDaisy/src/hid/disp/display.h ****     \return The rectangle that was drawn to
 158:libDaisy/src/hid/disp/display.h ****     */
 159:libDaisy/src/hid/disp/display.h ****     virtual Rectangle WriteStringAligned(const char*    str,
 160:libDaisy/src/hid/disp/display.h ****                                          const FontDef& font,
 161:libDaisy/src/hid/disp/display.h ****                                          Rectangle      boundingBox,
 162:libDaisy/src/hid/disp/display.h ****                                          Alignment      alignment,
 163:libDaisy/src/hid/disp/display.h ****                                          bool           on)
 164:libDaisy/src/hid/disp/display.h ****         = 0;
 165:libDaisy/src/hid/disp/display.h **** 
 166:libDaisy/src/hid/disp/display.h ****     /** 
 167:libDaisy/src/hid/disp/display.h ****     Moves the 'Cursor' position used for WriteChar, and WriteStr to the specified coordinate.
 168:libDaisy/src/hid/disp/display.h ****     \param x x pos
 169:libDaisy/src/hid/disp/display.h ****     \param y y pos
 170:libDaisy/src/hid/disp/display.h ****     */
 171:libDaisy/src/hid/disp/display.h ****     void SetCursor(uint16_t x, uint16_t y)
 172:libDaisy/src/hid/disp/display.h ****     {
 173:libDaisy/src/hid/disp/display.h ****         currentX_ = (x >= Width()) ? Width() - 1 : x;
 174:libDaisy/src/hid/disp/display.h ****         currentY_ = (y >= Height()) ? Height() - 1 : y;
 175:libDaisy/src/hid/disp/display.h ****     }
 176:libDaisy/src/hid/disp/display.h **** 
 177:libDaisy/src/hid/disp/display.h ****     /** 
 178:libDaisy/src/hid/disp/display.h ****     Writes the current display buffer to the OLED device using SPI or I2C depending on 
 179:libDaisy/src/hid/disp/display.h ****     how the object was initialized.
 180:libDaisy/src/hid/disp/display.h ****     */
 181:libDaisy/src/hid/disp/display.h ****     virtual void Update() = 0;
 182:libDaisy/src/hid/disp/display.h **** 
 183:libDaisy/src/hid/disp/display.h ****   protected:
 184:libDaisy/src/hid/disp/display.h ****     uint16_t currentX_;
 185:libDaisy/src/hid/disp/display.h ****     uint16_t currentY_;
 186:libDaisy/src/hid/disp/display.h **** };
 187:libDaisy/src/hid/disp/display.h **** 
 188:libDaisy/src/hid/disp/display.h **** /** This class is intended as a intermediary class for your actual implementation of the OneBitGrap
 189:libDaisy/src/hid/disp/display.h ****  *  interface. It uses the CRTP design pattern where the template argument is the child class. It p
 190:libDaisy/src/hid/disp/display.h ****  *  implementations for most of the functions, except DrawPixel(), Update() and Fill(), which you'l
 191:libDaisy/src/hid/disp/display.h ****  *  to provide in your child class.
 192:libDaisy/src/hid/disp/display.h ****  *  The main goal of this class is to provide common drawing functions without relying on massive a
 193:libDaisy/src/hid/disp/display.h ****  *  virtual function calls that would result in a performance loss. To achieve this, any drawing fu
 194:libDaisy/src/hid/disp/display.h ****  *  is implemented here and internally calls other drawing functions (e.g. DrawRect() which interna
 195:libDaisy/src/hid/disp/display.h ****  *  DrawPixel() and DrawLine()) makes these calls via the qualified name of these functions to expl
 196:libDaisy/src/hid/disp/display.h ****  *  suppress the virtual dispatch mechanism like this:
 197:libDaisy/src/hid/disp/display.h ****  * 
 198:libDaisy/src/hid/disp/display.h ****  *      ChildType::DrawPixel(...); // no virtual function call; direct call into the child class fu
 199:libDaisy/src/hid/disp/display.h ****  *  
 200:libDaisy/src/hid/disp/display.h ****  *  To create a custom OneBitGraphicsDisplay implementation, you can 
 201:libDaisy/src/hid/disp/display.h ****  *  A) inherit from OneBitGraphicsDisplay directly and provide all the drawing functions yourself
 202:libDaisy/src/hid/disp/display.h ****  *  B) Inherit from OneBitGraphicsDisplayImpl and only provide DrawPixel(), Fill() and Update()
ARM GAS  C:\Users\yaman\AppData\Local\Temp\ccCu6FW5.s 			page 6


 203:libDaisy/src/hid/disp/display.h ****  *     like this:
 204:libDaisy/src/hid/disp/display.h ****  *  
 205:libDaisy/src/hid/disp/display.h ****  *      class MyDisplayClass : public OneBitGraphicsDisplayImpl<MyDisplayClass> 
 206:libDaisy/src/hid/disp/display.h ****  *      {
 207:libDaisy/src/hid/disp/display.h ****  *      public:
 208:libDaisy/src/hid/disp/display.h ****  *          void Fill() override { ... };
 209:libDaisy/src/hid/disp/display.h ****  *          void DrawPixel(uint_fast8_t x, uint_fast8_t y, bool on) override { ... };
 210:libDaisy/src/hid/disp/display.h ****  *          void Update() override { ... }
 211:libDaisy/src/hid/disp/display.h ****  *      };
 212:libDaisy/src/hid/disp/display.h ****  *  
 213:libDaisy/src/hid/disp/display.h ****  */
 214:libDaisy/src/hid/disp/display.h **** template <class ChildType>
 215:libDaisy/src/hid/disp/display.h **** class OneBitGraphicsDisplayImpl : public OneBitGraphicsDisplay
 216:libDaisy/src/hid/disp/display.h **** {
 217:libDaisy/src/hid/disp/display.h ****   public:
 218:libDaisy/src/hid/disp/display.h ****     OneBitGraphicsDisplayImpl() {}
 219:libDaisy/src/hid/disp/display.h ****     virtual ~OneBitGraphicsDisplayImpl() {}
  42              		.loc 3 219 13 view .LVU2
  43              	.LBB584:
  44              	.LBI584:
  23:libDaisy/src/hid/disp/display.h **** 
  45              		.loc 3 23 13 view .LVU3
  23:libDaisy/src/hid/disp/display.h **** 
  46              		.loc 3 23 13 is_stmt 0 view .LVU4
  47              	.LBE584:
  48              	.LBE583:
  49              	.LBE582:
  50              	.LBB585:
  51              	.LBI585:
  52              		.file 4 "libDaisy/src/per/sdmmc.h"
   1:libDaisy/src/per/sdmmc.h **** /*
   2:libDaisy/src/per/sdmmc.h **** TODO: 
   3:libDaisy/src/per/sdmmc.h **** - Implement configuration (currently all settings are fixed).
   4:libDaisy/src/per/sdmmc.h **** */
   5:libDaisy/src/per/sdmmc.h **** #pragma once
   6:libDaisy/src/per/sdmmc.h **** #ifndef DSY_SDMMC_H
   7:libDaisy/src/per/sdmmc.h **** #define DSY_SDMMC_H /**< macro */
   8:libDaisy/src/per/sdmmc.h **** 
   9:libDaisy/src/per/sdmmc.h **** #include <stdint.h>
  10:libDaisy/src/per/sdmmc.h **** 
  11:libDaisy/src/per/sdmmc.h **** 
  12:libDaisy/src/per/sdmmc.h **** namespace daisy
  13:libDaisy/src/per/sdmmc.h **** {
  14:libDaisy/src/per/sdmmc.h **** /** @ingroup peripheral
  15:libDaisy/src/per/sdmmc.h ****     @{
  16:libDaisy/src/per/sdmmc.h ****     */
  17:libDaisy/src/per/sdmmc.h **** 
  18:libDaisy/src/per/sdmmc.h **** /** Configuration for interfacing with SD cards.
  19:libDaisy/src/per/sdmmc.h ****  *  Currently only supports operation using FatFS filesystem
  20:libDaisy/src/per/sdmmc.h ****  * 
  21:libDaisy/src/per/sdmmc.h ****  *  Only SDMMC1 is supported at this time.
  22:libDaisy/src/per/sdmmc.h ****  *
  23:libDaisy/src/per/sdmmc.h ****  *  Pins are fixed to the following:
  24:libDaisy/src/per/sdmmc.h ****  *  PC12 - SDMMC1 CK
  25:libDaisy/src/per/sdmmc.h ****  *  PD2  - SDMMC1 CMD
  26:libDaisy/src/per/sdmmc.h ****  *  PC8  - SDMMC1 D0
  27:libDaisy/src/per/sdmmc.h ****  *  PC9  - SDMMC1 D1 (optional)
ARM GAS  C:\Users\yaman\AppData\Local\Temp\ccCu6FW5.s 			page 7


  28:libDaisy/src/per/sdmmc.h ****  *  PC10 - SDMMC1 D2 (optional)
  29:libDaisy/src/per/sdmmc.h ****  *  PC11 - SDMMC1 D3 (optional)
  30:libDaisy/src/per/sdmmc.h **** */
  31:libDaisy/src/per/sdmmc.h **** class SdmmcHandler
  32:libDaisy/src/per/sdmmc.h **** {
  33:libDaisy/src/per/sdmmc.h ****   public:
  34:libDaisy/src/per/sdmmc.h ****     /** Return values for the SdmmcHandler class */
  35:libDaisy/src/per/sdmmc.h ****     enum class Result
  36:libDaisy/src/per/sdmmc.h ****     {
  37:libDaisy/src/per/sdmmc.h ****         OK,
  38:libDaisy/src/per/sdmmc.h ****         ERROR,
  39:libDaisy/src/per/sdmmc.h ****     };
  40:libDaisy/src/per/sdmmc.h **** 
  41:libDaisy/src/per/sdmmc.h ****     /** Sets whether 4-bit mode or 1-bit mode is used for the SDMMC */
  42:libDaisy/src/per/sdmmc.h ****     enum class BusWidth
  43:libDaisy/src/per/sdmmc.h ****     {
  44:libDaisy/src/per/sdmmc.h ****         BITS_1, /**< Only 1 bit of data per clock is transferred */
  45:libDaisy/src/per/sdmmc.h ****         BITS_4, /**< 4-bits of parallel data for each clock pulse */
  46:libDaisy/src/per/sdmmc.h ****     };
  47:libDaisy/src/per/sdmmc.h **** 
  48:libDaisy/src/per/sdmmc.h ****     /** 
  49:libDaisy/src/per/sdmmc.h ****     Sets the desired clock speed of the SD card bus. \n 
  50:libDaisy/src/per/sdmmc.h ****     Initialization is always done at or below 400kHz, and then the user speed is set.
  51:libDaisy/src/per/sdmmc.h ****     */
  52:libDaisy/src/per/sdmmc.h ****     enum class Speed
  53:libDaisy/src/per/sdmmc.h ****     {
  54:libDaisy/src/per/sdmmc.h ****         SLOW, /**< 400kHz, initialization  performed at this rate, before moving to user value */
  55:libDaisy/src/per/sdmmc.h ****         MEDIUM_SLOW, /**< 12.5MHz - half of standard rate */
  56:libDaisy/src/per/sdmmc.h ****         STANDARD,    /**< 25MHz - DS (Default Speed for SDMMC) */
  57:libDaisy/src/per/sdmmc.h ****         FAST,        /**< 50MHz - HS (High Speed signaling) */
  58:libDaisy/src/per/sdmmc.h ****         VERY_FAST, /**< 100MHz - SDR50 Overclocked rate for maximum transfer rates */
  59:libDaisy/src/per/sdmmc.h ****     };
  60:libDaisy/src/per/sdmmc.h **** 
  61:libDaisy/src/per/sdmmc.h ****     struct Config
  62:libDaisy/src/per/sdmmc.h ****     {
  63:libDaisy/src/per/sdmmc.h ****         Speed    speed;
  64:libDaisy/src/per/sdmmc.h ****         BusWidth width;
  65:libDaisy/src/per/sdmmc.h ****         bool
  66:libDaisy/src/per/sdmmc.h ****             clock_powersave; /**< When true, the clock will stop between transfers to save power. *
  67:libDaisy/src/per/sdmmc.h **** 
  68:libDaisy/src/per/sdmmc.h ****         /** Configures settings to their default settings */
  69:libDaisy/src/per/sdmmc.h ****         void Defaults()
  70:libDaisy/src/per/sdmmc.h ****         {
  71:libDaisy/src/per/sdmmc.h ****             speed           = Speed::FAST;
  72:libDaisy/src/per/sdmmc.h ****             width           = BusWidth::BITS_4;
  73:libDaisy/src/per/sdmmc.h ****             clock_powersave = false;
  74:libDaisy/src/per/sdmmc.h ****         }
  75:libDaisy/src/per/sdmmc.h ****     };
  76:libDaisy/src/per/sdmmc.h **** 
  77:libDaisy/src/per/sdmmc.h ****     SdmmcHandler() {}
  78:libDaisy/src/per/sdmmc.h ****     ~SdmmcHandler() {}
  53              		.loc 4 78 5 is_stmt 1 view .LVU5
  54              		.loc 4 78 5 is_stmt 0 view .LVU6
  55              	.LBE585:
  56              	.LBB586:
  57              	.LBI586:
  58              		.file 5 "libDaisy/src/hid/midi.h"
ARM GAS  C:\Users\yaman\AppData\Local\Temp\ccCu6FW5.s 			page 8


   1:libDaisy/src/hid/midi.h **** #pragma once
   2:libDaisy/src/hid/midi.h **** #ifndef DSY_MIDI_H
   3:libDaisy/src/hid/midi.h **** #define DSY_MIDI_H
   4:libDaisy/src/hid/midi.h **** 
   5:libDaisy/src/hid/midi.h **** // TODO: make this adjustable
   6:libDaisy/src/hid/midi.h **** #define SYSEX_BUFFER_LEN 128
   7:libDaisy/src/hid/midi.h **** 
   8:libDaisy/src/hid/midi.h **** #include <stdint.h>
   9:libDaisy/src/hid/midi.h **** #include <stdlib.h>
  10:libDaisy/src/hid/midi.h **** #include "per/uart.h"
  11:libDaisy/src/hid/midi.h **** #include "util/ringbuffer.h"
  12:libDaisy/src/hid/midi.h **** #include "hid/MidiEvent.h"
  13:libDaisy/src/hid/midi.h **** #include "hid/usb_midi.h"
  14:libDaisy/src/hid/midi.h **** #include "sys/system.h"
  15:libDaisy/src/hid/midi.h **** 
  16:libDaisy/src/hid/midi.h **** namespace daisy
  17:libDaisy/src/hid/midi.h **** {
  18:libDaisy/src/hid/midi.h **** /** @brief   Transport layer for sending and receiving MIDI data over UART 
  19:libDaisy/src/hid/midi.h ****  *  @details This is the mode of communication used for TRS and DIN MIDI
  20:libDaisy/src/hid/midi.h ****  *  @ingroup midi
  21:libDaisy/src/hid/midi.h **** */
  22:libDaisy/src/hid/midi.h **** class MidiUartTransport
  23:libDaisy/src/hid/midi.h **** {
  24:libDaisy/src/hid/midi.h ****   public:
  25:libDaisy/src/hid/midi.h ****     MidiUartTransport() {}
  26:libDaisy/src/hid/midi.h ****     ~MidiUartTransport() {}
  27:libDaisy/src/hid/midi.h **** 
  28:libDaisy/src/hid/midi.h ****     struct Config
  29:libDaisy/src/hid/midi.h ****     {
  30:libDaisy/src/hid/midi.h ****         UartHandler::Config::Peripheral periph;
  31:libDaisy/src/hid/midi.h ****         dsy_gpio_pin                    rx;
  32:libDaisy/src/hid/midi.h ****         dsy_gpio_pin                    tx;
  33:libDaisy/src/hid/midi.h **** 
  34:libDaisy/src/hid/midi.h ****         Config()
  35:libDaisy/src/hid/midi.h ****         {
  36:libDaisy/src/hid/midi.h ****             periph = UartHandler::Config::Peripheral::USART_1;
  37:libDaisy/src/hid/midi.h ****             rx     = {DSY_GPIOB, 7};
  38:libDaisy/src/hid/midi.h ****             tx     = {DSY_GPIOB, 6};
  39:libDaisy/src/hid/midi.h ****         }
  40:libDaisy/src/hid/midi.h ****     };
  41:libDaisy/src/hid/midi.h **** 
  42:libDaisy/src/hid/midi.h ****     inline void Init(Config config)
  43:libDaisy/src/hid/midi.h ****     {
  44:libDaisy/src/hid/midi.h ****         UartHandler::Config uart_config;
  45:libDaisy/src/hid/midi.h **** 
  46:libDaisy/src/hid/midi.h ****         //defaults
  47:libDaisy/src/hid/midi.h ****         uart_config.baudrate   = 31250;
  48:libDaisy/src/hid/midi.h ****         uart_config.stopbits   = UartHandler::Config::StopBits::BITS_1;
  49:libDaisy/src/hid/midi.h ****         uart_config.parity     = UartHandler::Config::Parity::NONE;
  50:libDaisy/src/hid/midi.h ****         uart_config.mode       = UartHandler::Config::Mode::TX_RX;
  51:libDaisy/src/hid/midi.h ****         uart_config.wordlength = UartHandler::Config::WordLength::BITS_8;
  52:libDaisy/src/hid/midi.h **** 
  53:libDaisy/src/hid/midi.h ****         //user settings
  54:libDaisy/src/hid/midi.h ****         uart_config.periph        = config.periph;
  55:libDaisy/src/hid/midi.h ****         uart_config.pin_config.rx = config.rx;
  56:libDaisy/src/hid/midi.h ****         uart_config.pin_config.tx = config.tx;
  57:libDaisy/src/hid/midi.h **** 
ARM GAS  C:\Users\yaman\AppData\Local\Temp\ccCu6FW5.s 			page 9


  58:libDaisy/src/hid/midi.h ****         uart_.Init(uart_config);
  59:libDaisy/src/hid/midi.h ****     }
  60:libDaisy/src/hid/midi.h **** 
  61:libDaisy/src/hid/midi.h ****     inline void    StartRx() { uart_.StartRx(); }
  62:libDaisy/src/hid/midi.h ****     inline size_t  Readable() { return uart_.Readable(); }
  63:libDaisy/src/hid/midi.h ****     inline uint8_t Rx() { return uart_.PopRx(); }
  64:libDaisy/src/hid/midi.h ****     inline bool    RxActive() { return uart_.RxActive(); }
  65:libDaisy/src/hid/midi.h ****     inline void    FlushRx() { uart_.FlushRx(); }
  66:libDaisy/src/hid/midi.h ****     inline void    Tx(uint8_t* buff, size_t size) { uart_.PollTx(buff, size); }
  67:libDaisy/src/hid/midi.h **** 
  68:libDaisy/src/hid/midi.h ****   private:
  69:libDaisy/src/hid/midi.h ****     UartHandler uart_;
  70:libDaisy/src/hid/midi.h **** };
  71:libDaisy/src/hid/midi.h **** 
  72:libDaisy/src/hid/midi.h **** /** 
  73:libDaisy/src/hid/midi.h ****     @brief Simple MIDI Handler \n 
  74:libDaisy/src/hid/midi.h ****     Parses bytes from an input into valid MidiEvents. \n 
  75:libDaisy/src/hid/midi.h ****     The MidiEvents fill a FIFO queue that the user can pop messages from.
  76:libDaisy/src/hid/midi.h ****     @author shensley
  77:libDaisy/src/hid/midi.h ****     @date March 2020
  78:libDaisy/src/hid/midi.h ****     @ingroup midi
  79:libDaisy/src/hid/midi.h **** */
  80:libDaisy/src/hid/midi.h **** template <typename Transport>
  81:libDaisy/src/hid/midi.h **** class MidiHandler
  82:libDaisy/src/hid/midi.h **** {
  83:libDaisy/src/hid/midi.h ****   public:
  84:libDaisy/src/hid/midi.h ****     MidiHandler() {}
  85:libDaisy/src/hid/midi.h ****     ~MidiHandler() {}
  59              		.loc 5 85 5 is_stmt 1 view .LVU7
  60              	.LBB587:
  61              	.LBI587:
  26:libDaisy/src/hid/midi.h **** 
  62              		.loc 5 26 5 view .LVU8
  26:libDaisy/src/hid/midi.h **** 
  63              		.loc 5 26 5 is_stmt 0 view .LVU9
  64              	.LBE587:
  65              	.LBE586:
  66              	.LBB588:
  67              	.LBI588:
  68              		.file 6 "libDaisy/src/hid/encoder.h"
   1:libDaisy/src/hid/encoder.h **** #pragma once
   2:libDaisy/src/hid/encoder.h **** #ifndef DSY_ENCODER_H
   3:libDaisy/src/hid/encoder.h **** #define DSY_ENCODER_H
   4:libDaisy/src/hid/encoder.h **** #include "daisy_core.h"
   5:libDaisy/src/hid/encoder.h **** #include "per/gpio.h"
   6:libDaisy/src/hid/encoder.h **** #include "hid/switch.h"
   7:libDaisy/src/hid/encoder.h **** 
   8:libDaisy/src/hid/encoder.h **** namespace daisy
   9:libDaisy/src/hid/encoder.h **** {
  10:libDaisy/src/hid/encoder.h **** /** 
  11:libDaisy/src/hid/encoder.h ****     @brief Generic Class for handling Quadrature Encoders \n 
  12:libDaisy/src/hid/encoder.h ****     Inspired/influenced by Mutable Instruments (pichenettes) Encoder classes
  13:libDaisy/src/hid/encoder.h ****     @author Stephen Hensley
  14:libDaisy/src/hid/encoder.h ****     @date December 2019
  15:libDaisy/src/hid/encoder.h ****     @ingroup controls
  16:libDaisy/src/hid/encoder.h **** */
  17:libDaisy/src/hid/encoder.h **** class Encoder
ARM GAS  C:\Users\yaman\AppData\Local\Temp\ccCu6FW5.s 			page 10


  18:libDaisy/src/hid/encoder.h **** {
  19:libDaisy/src/hid/encoder.h ****   public:
  20:libDaisy/src/hid/encoder.h ****     Encoder() {}
  21:libDaisy/src/hid/encoder.h ****     ~Encoder() {}
  69              		.loc 6 21 5 is_stmt 1 view .LVU10
  70              	.LBB589:
  71              	.LBI589:
  72              		.file 7 "libDaisy/src/hid/switch.h"
   1:libDaisy/src/hid/switch.h **** #pragma once
   2:libDaisy/src/hid/switch.h **** #ifndef DSY_SWITCH_H
   3:libDaisy/src/hid/switch.h **** #define DSY_SWITCH_H
   4:libDaisy/src/hid/switch.h **** #include "daisy_core.h"
   5:libDaisy/src/hid/switch.h **** #include "per/gpio.h"
   6:libDaisy/src/hid/switch.h **** #include "sys/system.h"
   7:libDaisy/src/hid/switch.h **** 
   8:libDaisy/src/hid/switch.h **** namespace daisy
   9:libDaisy/src/hid/switch.h **** {
  10:libDaisy/src/hid/switch.h **** /** 
  11:libDaisy/src/hid/switch.h ****     Generic Class for handling momentary/latching switches \n 
  12:libDaisy/src/hid/switch.h ****     Inspired/influenced by Mutable Instruments (pichenettes) Switch classes
  13:libDaisy/src/hid/switch.h ****     @author Stephen Hensley
  14:libDaisy/src/hid/switch.h ****     @date December 2019
  15:libDaisy/src/hid/switch.h ****     @ingroup controls
  16:libDaisy/src/hid/switch.h **** */
  17:libDaisy/src/hid/switch.h **** class Switch
  18:libDaisy/src/hid/switch.h **** {
  19:libDaisy/src/hid/switch.h ****   public:
  20:libDaisy/src/hid/switch.h ****     /** Specifies the expected behavior of the switch */
  21:libDaisy/src/hid/switch.h ****     enum Type
  22:libDaisy/src/hid/switch.h ****     {
  23:libDaisy/src/hid/switch.h ****         TYPE_TOGGLE,    /**< & */
  24:libDaisy/src/hid/switch.h ****         TYPE_MOMENTARY, /**< & */
  25:libDaisy/src/hid/switch.h ****     };
  26:libDaisy/src/hid/switch.h ****     /** Specifies whether the pressed is HIGH or LOW. */
  27:libDaisy/src/hid/switch.h ****     enum Polarity
  28:libDaisy/src/hid/switch.h ****     {
  29:libDaisy/src/hid/switch.h ****         POLARITY_NORMAL,   /**< & */
  30:libDaisy/src/hid/switch.h ****         POLARITY_INVERTED, /**< & */
  31:libDaisy/src/hid/switch.h ****     };
  32:libDaisy/src/hid/switch.h **** 
  33:libDaisy/src/hid/switch.h ****     /** Specifies whether to use built-in Pull Up/Down resistors to hold button at a given state wh
  34:libDaisy/src/hid/switch.h ****     enum Pull
  35:libDaisy/src/hid/switch.h ****     {
  36:libDaisy/src/hid/switch.h ****         PULL_UP,   /**< & */
  37:libDaisy/src/hid/switch.h ****         PULL_DOWN, /**< & */
  38:libDaisy/src/hid/switch.h ****         PULL_NONE, /**< & */
  39:libDaisy/src/hid/switch.h ****     };
  40:libDaisy/src/hid/switch.h **** 
  41:libDaisy/src/hid/switch.h ****     Switch() {}
  42:libDaisy/src/hid/switch.h ****     ~Switch() {}
  73              		.loc 7 42 5 view .LVU11
  74              		.loc 7 42 5 is_stmt 0 view .LVU12
  75              	.LBE589:
  76              	.LBE588:
  77              	.LBB590:
  78              	.LBI590:
  79              		.file 8 "libDaisy/src/daisy_seed.h"
ARM GAS  C:\Users\yaman\AppData\Local\Temp\ccCu6FW5.s 			page 11


   1:libDaisy/src/daisy_seed.h **** #pragma once
   2:libDaisy/src/daisy_seed.h **** #ifndef DSY_SEED_H
   3:libDaisy/src/daisy_seed.h **** #define DSY_SEED_H
   4:libDaisy/src/daisy_seed.h **** 
   5:libDaisy/src/daisy_seed.h **** #include "daisy.h"
   6:libDaisy/src/daisy_seed.h **** 
   7:libDaisy/src/daisy_seed.h **** //Uncomment this out if you're still using the rev2 hardware
   8:libDaisy/src/daisy_seed.h **** //#define SEED_REV2
   9:libDaisy/src/daisy_seed.h **** 
  10:libDaisy/src/daisy_seed.h **** namespace daisy
  11:libDaisy/src/daisy_seed.h **** {
  12:libDaisy/src/daisy_seed.h **** /**
  13:libDaisy/src/daisy_seed.h ****    @brief This is the higher-level interface for the Daisy board. \n 
  14:libDaisy/src/daisy_seed.h ****     All basic peripheral configuration/initialization is setup here. \n
  15:libDaisy/src/daisy_seed.h **** 
  16:libDaisy/src/daisy_seed.h ****    @ingroup boards
  17:libDaisy/src/daisy_seed.h **** */
  18:libDaisy/src/daisy_seed.h **** class DaisySeed
  19:libDaisy/src/daisy_seed.h **** {
  20:libDaisy/src/daisy_seed.h ****   public:
  21:libDaisy/src/daisy_seed.h ****     DaisySeed() {}
  22:libDaisy/src/daisy_seed.h ****     ~DaisySeed() {}
  80              		.loc 8 22 5 is_stmt 1 view .LVU13
  81              	.LBB591:
  82              	.LBI591:
  83              		.file 9 "libDaisy/src/sys/system.h"
   1:libDaisy/src/sys/system.h **** #ifndef DSY_SYSTEM_H
   2:libDaisy/src/sys/system.h **** #define DSY_SYSTEM_H
   3:libDaisy/src/sys/system.h **** 
   4:libDaisy/src/sys/system.h **** #ifndef UNIT_TEST // for unit tests, a dummy implementation is provided below
   5:libDaisy/src/sys/system.h **** 
   6:libDaisy/src/sys/system.h **** #include <cstdint>
   7:libDaisy/src/sys/system.h **** #include "per/tim.h"
   8:libDaisy/src/sys/system.h **** 
   9:libDaisy/src/sys/system.h **** namespace daisy
  10:libDaisy/src/sys/system.h **** {
  11:libDaisy/src/sys/system.h **** /** A handle for interacting with the Core System. 
  12:libDaisy/src/sys/system.h ****  ** This includes the Clock tree, MPU, global DMA initialization,
  13:libDaisy/src/sys/system.h ****  ** cache handling, and any other necessary global initiailzation
  14:libDaisy/src/sys/system.h ****  **
  15:libDaisy/src/sys/system.h ****  ** @author shensley
  16:libDaisy/src/sys/system.h ****  ** @ingroup system
  17:libDaisy/src/sys/system.h ****  */
  18:libDaisy/src/sys/system.h **** class System
  19:libDaisy/src/sys/system.h **** {
  20:libDaisy/src/sys/system.h ****   public:
  21:libDaisy/src/sys/system.h ****     /** Contains settings for initializing the System */
  22:libDaisy/src/sys/system.h ****     struct Config
  23:libDaisy/src/sys/system.h ****     {
  24:libDaisy/src/sys/system.h ****         /** Specifies the system clock frequency that feeds APB/AHB clocks, etc. */
  25:libDaisy/src/sys/system.h ****         enum class SysClkFreq
  26:libDaisy/src/sys/system.h ****         {
  27:libDaisy/src/sys/system.h ****             FREQ_400MHZ,
  28:libDaisy/src/sys/system.h ****             FREQ_480MHZ,
  29:libDaisy/src/sys/system.h ****         };
  30:libDaisy/src/sys/system.h **** 
  31:libDaisy/src/sys/system.h ****         /** Method to call on the struct to set to defaults
ARM GAS  C:\Users\yaman\AppData\Local\Temp\ccCu6FW5.s 			page 12


  32:libDaisy/src/sys/system.h ****          ** CPU Freq set to 400MHz
  33:libDaisy/src/sys/system.h ****          ** Cache Enabled 
  34:libDaisy/src/sys/system.h ****          ** */
  35:libDaisy/src/sys/system.h ****         void Defaults()
  36:libDaisy/src/sys/system.h ****         {
  37:libDaisy/src/sys/system.h ****             cpu_freq    = SysClkFreq::FREQ_400MHZ;
  38:libDaisy/src/sys/system.h ****             use_dcache  = true;
  39:libDaisy/src/sys/system.h ****             use_icache  = true;
  40:libDaisy/src/sys/system.h ****             skip_clocks = false;
  41:libDaisy/src/sys/system.h ****         }
  42:libDaisy/src/sys/system.h **** 
  43:libDaisy/src/sys/system.h ****         /** Method to call on the struct to set to boost mode:
  44:libDaisy/src/sys/system.h ****          ** CPU Freq set to 480MHz
  45:libDaisy/src/sys/system.h ****          ** Cache Enabled 
  46:libDaisy/src/sys/system.h ****          ** */
  47:libDaisy/src/sys/system.h ****         void Boost()
  48:libDaisy/src/sys/system.h ****         {
  49:libDaisy/src/sys/system.h ****             cpu_freq    = SysClkFreq::FREQ_480MHZ;
  50:libDaisy/src/sys/system.h ****             use_dcache  = true;
  51:libDaisy/src/sys/system.h ****             use_icache  = true;
  52:libDaisy/src/sys/system.h ****             skip_clocks = false;
  53:libDaisy/src/sys/system.h ****         }
  54:libDaisy/src/sys/system.h **** 
  55:libDaisy/src/sys/system.h ****         SysClkFreq cpu_freq;
  56:libDaisy/src/sys/system.h ****         bool       use_dcache;
  57:libDaisy/src/sys/system.h ****         bool       use_icache;
  58:libDaisy/src/sys/system.h ****         bool       skip_clocks;
  59:libDaisy/src/sys/system.h ****     };
  60:libDaisy/src/sys/system.h **** 
  61:libDaisy/src/sys/system.h ****     /** Describes the different regions of memory available to the Daisy
  62:libDaisy/src/sys/system.h ****      * 
  63:libDaisy/src/sys/system.h ****      */
  64:libDaisy/src/sys/system.h ****     enum MemoryRegion
  65:libDaisy/src/sys/system.h ****     {
  66:libDaisy/src/sys/system.h ****         INTERNAL_FLASH = 0,
  67:libDaisy/src/sys/system.h ****         ITCMRAM,
  68:libDaisy/src/sys/system.h ****         DTCMRAM,
  69:libDaisy/src/sys/system.h ****         SRAM_D1,
  70:libDaisy/src/sys/system.h ****         SRAM_D2,
  71:libDaisy/src/sys/system.h ****         SRAM_D3,
  72:libDaisy/src/sys/system.h ****         SDRAM,
  73:libDaisy/src/sys/system.h ****         QSPI,
  74:libDaisy/src/sys/system.h ****         INVALID_ADDRESS,
  75:libDaisy/src/sys/system.h ****     };
  76:libDaisy/src/sys/system.h **** 
  77:libDaisy/src/sys/system.h ****     System() {}
  78:libDaisy/src/sys/system.h ****     ~System() {}
  84              		.loc 9 78 5 view .LVU14
  85              		.loc 9 78 5 is_stmt 0 view .LVU15
  86              	.LBE591:
  87              	.LBB592:
  88              	.LBI592:
  89              		.file 10 "libDaisy/src/hid/usb.h"
   1:libDaisy/src/hid/usb.h **** #pragma once
   2:libDaisy/src/hid/usb.h **** #ifndef DSY_HID_USB_H
   3:libDaisy/src/hid/usb.h **** #define DSY_HID_USB_H
   4:libDaisy/src/hid/usb.h **** #include <stdint.h>
ARM GAS  C:\Users\yaman\AppData\Local\Temp\ccCu6FW5.s 			page 13


   5:libDaisy/src/hid/usb.h **** #include <stdlib.h>
   6:libDaisy/src/hid/usb.h **** 
   7:libDaisy/src/hid/usb.h **** namespace daisy
   8:libDaisy/src/hid/usb.h **** /** @addtogroup human_interface
   9:libDaisy/src/hid/usb.h ****     @{
  10:libDaisy/src/hid/usb.h **** */
  11:libDaisy/src/hid/usb.h **** 
  12:libDaisy/src/hid/usb.h **** {
  13:libDaisy/src/hid/usb.h **** /** 
  14:libDaisy/src/hid/usb.h ****     @brief Interface for initializing and using the USB Peripherals on the daisy
  15:libDaisy/src/hid/usb.h ****     @author Stephen Hensley
  16:libDaisy/src/hid/usb.h ****     @date December 2019
  17:libDaisy/src/hid/usb.h **** */
  18:libDaisy/src/hid/usb.h **** class UsbHandle
  19:libDaisy/src/hid/usb.h **** {
  20:libDaisy/src/hid/usb.h ****   public:
  21:libDaisy/src/hid/usb.h ****     /** Return values for USBHandle Functions */
  22:libDaisy/src/hid/usb.h ****     enum class Result
  23:libDaisy/src/hid/usb.h ****     {
  24:libDaisy/src/hid/usb.h ****         OK,
  25:libDaisy/src/hid/usb.h ****         ERR,
  26:libDaisy/src/hid/usb.h ****     };
  27:libDaisy/src/hid/usb.h **** 
  28:libDaisy/src/hid/usb.h ****     /** Specified which of the two USB Peripherals to initialize. */
  29:libDaisy/src/hid/usb.h ****     enum UsbPeriph
  30:libDaisy/src/hid/usb.h ****     {
  31:libDaisy/src/hid/usb.h ****         FS_INTERNAL, /**< Internal pin */
  32:libDaisy/src/hid/usb.h ****         FS_EXTERNAL, /**< FS External D+ pin is Pin 38 (GPIO32). FS External D- pin is Pin 37 (GPIO
  33:libDaisy/src/hid/usb.h ****         FS_BOTH,     /**< Both */
  34:libDaisy/src/hid/usb.h ****     };
  35:libDaisy/src/hid/usb.h **** 
  36:libDaisy/src/hid/usb.h **** 
  37:libDaisy/src/hid/usb.h ****     /** Function called upon reception of a buffer */
  38:libDaisy/src/hid/usb.h ****     typedef void (*ReceiveCallback)(uint8_t* buff, uint32_t* len);
  39:libDaisy/src/hid/usb.h **** 
  40:libDaisy/src/hid/usb.h ****     UsbHandle() {}
  41:libDaisy/src/hid/usb.h **** 
  42:libDaisy/src/hid/usb.h ****     ~UsbHandle() {}
  90              		.loc 10 42 5 is_stmt 1 view .LVU16
  91              		.loc 10 42 5 is_stmt 0 view .LVU17
  92              	.LBE592:
  93              	.LBB593:
  94              	.LBI593:
  95              		.file 11 "libDaisy/src/per/adc.h"
   1:libDaisy/src/per/adc.h **** #pragma once
   2:libDaisy/src/per/adc.h **** #ifndef DSY_ADC_H
   3:libDaisy/src/per/adc.h **** #define DSY_ADC_H /**< Macro */
   4:libDaisy/src/per/adc.h **** #include <stdint.h>
   5:libDaisy/src/per/adc.h **** #include <stdlib.h>
   6:libDaisy/src/per/adc.h **** #include "daisy_core.h"
   7:libDaisy/src/per/adc.h **** #include "per/gpio.h"
   8:libDaisy/src/per/adc.h **** 
   9:libDaisy/src/per/adc.h **** #define DSY_ADC_MAX_CHANNELS 16 /**< Maximum number of ADC channels */
  10:libDaisy/src/per/adc.h **** 
  11:libDaisy/src/per/adc.h **** namespace daisy
  12:libDaisy/src/per/adc.h **** {
  13:libDaisy/src/per/adc.h **** /** @addtogroup per_analog
ARM GAS  C:\Users\yaman\AppData\Local\Temp\ccCu6FW5.s 			page 14


  14:libDaisy/src/per/adc.h ****     @{
  15:libDaisy/src/per/adc.h **** */
  16:libDaisy/src/per/adc.h **** 
  17:libDaisy/src/per/adc.h **** /* While there may not be many configuration options here,
  18:libDaisy/src/per/adc.h **** using a struct like this allows us to add more configuration
  19:libDaisy/src/per/adc.h **** later without breaking existing functionality.
  20:libDaisy/src/per/adc.h **** */
  21:libDaisy/src/per/adc.h **** 
  22:libDaisy/src/per/adc.h **** /** @brief   Configuration Structure for an ADC Channel 
  23:libDaisy/src/per/adc.h ****  *  @details This can be used to configure a a single input, 
  24:libDaisy/src/per/adc.h ****  *           or a multiplexed input, allowing up to 8 inputs on 
  25:libDaisy/src/per/adc.h ****  *           one channel.
  26:libDaisy/src/per/adc.h ****  *  @note    Sharing data lines to multiple muxes _is_ possible, but
  27:libDaisy/src/per/adc.h ****  *           each channel sharing data lines must be set to the maximum
  28:libDaisy/src/per/adc.h ****  *           number of channels, even if some multiplexers have fewer
  29:libDaisy/src/per/adc.h ****  *           inputs connected.
  30:libDaisy/src/per/adc.h **** */
  31:libDaisy/src/per/adc.h **** struct AdcChannelConfig
  32:libDaisy/src/per/adc.h **** {
  33:libDaisy/src/per/adc.h ****     /** Which pin to use for multiplexing */
  34:libDaisy/src/per/adc.h ****     enum MuxPin
  35:libDaisy/src/per/adc.h ****     {
  36:libDaisy/src/per/adc.h ****         MUX_SEL_0,    /**< & */
  37:libDaisy/src/per/adc.h ****         MUX_SEL_1,    /**< & */
  38:libDaisy/src/per/adc.h ****         MUX_SEL_2,    /**< & */
  39:libDaisy/src/per/adc.h ****         MUX_SEL_LAST, /**< & */
  40:libDaisy/src/per/adc.h ****     };
  41:libDaisy/src/per/adc.h **** 
  42:libDaisy/src/per/adc.h ****     /** Initializes a single ADC pin as an ADC. 
  43:libDaisy/src/per/adc.h ****     \param pin Pin to init.
  44:libDaisy/src/per/adc.h ****      */
  45:libDaisy/src/per/adc.h ****     void InitSingle(dsy_gpio_pin pin);
  46:libDaisy/src/per/adc.h **** 
  47:libDaisy/src/per/adc.h ****     /** 
  48:libDaisy/src/per/adc.h ****     Initializes a single ADC pin as a Multiplexed ADC.
  49:libDaisy/src/per/adc.h ****     Requires a CD405X Multiplexer connected to the pin.
  50:libDaisy/src/per/adc.h ****     You only need to supply the mux pins that are required,
  51:libDaisy/src/per/adc.h ****     e.g. a 4052 mux would only require mux_0 and mux_1.
  52:libDaisy/src/per/adc.h ****     Internal Callbacks handle the pin addressing.
  53:libDaisy/src/per/adc.h ****     \param mux_channels must be 1-8
  54:libDaisy/src/per/adc.h ****     \param mux_0 First mux pin
  55:libDaisy/src/per/adc.h ****     \param mux_1 Second mux pin
  56:libDaisy/src/per/adc.h ****     \param mux_2 Third mux pin
  57:libDaisy/src/per/adc.h ****     \param adc_pin &
  58:libDaisy/src/per/adc.h ****     */
  59:libDaisy/src/per/adc.h ****     void InitMux(dsy_gpio_pin adc_pin,
  60:libDaisy/src/per/adc.h ****                  size_t       mux_channels,
  61:libDaisy/src/per/adc.h ****                  dsy_gpio_pin mux_0,
  62:libDaisy/src/per/adc.h ****                  dsy_gpio_pin mux_1 = {DSY_GPIOX, 0},
  63:libDaisy/src/per/adc.h ****                  dsy_gpio_pin mux_2 = {DSY_GPIOX, 0});
  64:libDaisy/src/per/adc.h **** 
  65:libDaisy/src/per/adc.h ****     dsy_gpio pin_;                   /**< & */
  66:libDaisy/src/per/adc.h ****     dsy_gpio mux_pin_[MUX_SEL_LAST]; /**< & */
  67:libDaisy/src/per/adc.h ****     uint8_t  mux_channels_;          /**< & */
  68:libDaisy/src/per/adc.h **** };
  69:libDaisy/src/per/adc.h **** 
  70:libDaisy/src/per/adc.h **** /**
ARM GAS  C:\Users\yaman\AppData\Local\Temp\ccCu6FW5.s 			page 15


  71:libDaisy/src/per/adc.h ****    @brief Handler for analog to digital conversion
  72:libDaisy/src/per/adc.h **** */
  73:libDaisy/src/per/adc.h **** class AdcHandle
  74:libDaisy/src/per/adc.h **** {
  75:libDaisy/src/per/adc.h ****   public:
  76:libDaisy/src/per/adc.h ****     /** Supported oversampling amounts */
  77:libDaisy/src/per/adc.h ****     enum OverSampling
  78:libDaisy/src/per/adc.h ****     {
  79:libDaisy/src/per/adc.h ****         OVS_NONE, /**< & */
  80:libDaisy/src/per/adc.h ****         OVS_4,    /**< & */
  81:libDaisy/src/per/adc.h ****         OVS_8,    /**< & */
  82:libDaisy/src/per/adc.h ****         OVS_16,   /**< & */
  83:libDaisy/src/per/adc.h ****         OVS_32,   /**< & */
  84:libDaisy/src/per/adc.h ****         OVS_64,   /**< & */
  85:libDaisy/src/per/adc.h ****         OVS_128,  /**< & */
  86:libDaisy/src/per/adc.h ****         OVS_256,  /**< & */
  87:libDaisy/src/per/adc.h ****         OVS_512,  /**< & */
  88:libDaisy/src/per/adc.h ****         OVS_1024, /**< & */
  89:libDaisy/src/per/adc.h ****         OVS_LAST, /**< & */
  90:libDaisy/src/per/adc.h ****     };
  91:libDaisy/src/per/adc.h **** 
  92:libDaisy/src/per/adc.h ****     AdcHandle() {}
  93:libDaisy/src/per/adc.h ****     ~AdcHandle() {}
  96              		.loc 11 93 5 is_stmt 1 view .LVU18
  97              		.loc 11 93 5 is_stmt 0 view .LVU19
  98              	.LBE593:
  99              	.LBB594:
 100              	.LBI594:
 101              		.file 12 "libDaisy/src/hid/audio.h"
   1:libDaisy/src/hid/audio.h **** #ifndef DSY_AUDIO_H
   2:libDaisy/src/hid/audio.h **** #define DSY_AUDIO_H /**< & */
   3:libDaisy/src/hid/audio.h **** 
   4:libDaisy/src/hid/audio.h **** #include "per/sai.h"
   5:libDaisy/src/hid/audio.h **** 
   6:libDaisy/src/hid/audio.h **** namespace daisy
   7:libDaisy/src/hid/audio.h **** {
   8:libDaisy/src/hid/audio.h **** /** @brief Audio Engine Handle
   9:libDaisy/src/hid/audio.h ****  *  @ingroup audio 
  10:libDaisy/src/hid/audio.h ****  *  @details This class allows for higher level access to an audio engine.
  11:libDaisy/src/hid/audio.h ****  *           If you're using a SOM like the DaisySeed or DaisyPatchSM (or any 
  12:libDaisy/src/hid/audio.h ****  *            board that includes one of those objects) then the intialization
  13:libDaisy/src/hid/audio.h ****  *            is already taken  care of.
  14:libDaisy/src/hid/audio.h ****  *           If you're setting up your own custom hardware, or need to make changes
  15:libDaisy/src/hid/audio.h ****  *           you will have to take the following steps:
  16:libDaisy/src/hid/audio.h ****  *             1. Create and Initialize an SaiHandle or two depending on your requirements
  17:libDaisy/src/hid/audio.h ****  *             2. Initialize the Audio Handle with the desired settings and the Initialized SaiHand
  18:libDaisy/src/hid/audio.h ****  *             3. If the connected codec requires special configuration or initialization, do so
  19:libDaisy/src/hid/audio.h ****  *             4. Write a callback method using either the AudioCallback or the InterleavingAudioCa
  20:libDaisy/src/hid/audio.h ****  *             5. Start the Audio using one of the StartAudio function
  21:libDaisy/src/hid/audio.h ****  */
  22:libDaisy/src/hid/audio.h **** class AudioHandle
  23:libDaisy/src/hid/audio.h **** {
  24:libDaisy/src/hid/audio.h ****   public:
  25:libDaisy/src/hid/audio.h ****     /** Manually configurable details about the Audio Engine */
  26:libDaisy/src/hid/audio.h ****     /** TODO: Figure out how to get samplerate in here. */
  27:libDaisy/src/hid/audio.h ****     struct Config
  28:libDaisy/src/hid/audio.h ****     {
ARM GAS  C:\Users\yaman\AppData\Local\Temp\ccCu6FW5.s 			page 16


  29:libDaisy/src/hid/audio.h ****         size_t                        blocksize;
  30:libDaisy/src/hid/audio.h ****         SaiHandle::Config::SampleRate samplerate;
  31:libDaisy/src/hid/audio.h ****         float                         postgain;
  32:libDaisy/src/hid/audio.h ****     };
  33:libDaisy/src/hid/audio.h **** 
  34:libDaisy/src/hid/audio.h ****     enum class Result
  35:libDaisy/src/hid/audio.h ****     {
  36:libDaisy/src/hid/audio.h ****         OK,
  37:libDaisy/src/hid/audio.h ****         ERR,
  38:libDaisy/src/hid/audio.h ****     };
  39:libDaisy/src/hid/audio.h **** 
  40:libDaisy/src/hid/audio.h ****     /** Non-Interleaving input buffer
  41:libDaisy/src/hid/audio.h ****      * Buffer arranged by float[chn][sample] 
  42:libDaisy/src/hid/audio.h ****      * const so that the user can't modify the input
  43:libDaisy/src/hid/audio.h ****      */
  44:libDaisy/src/hid/audio.h ****     typedef const float* const* InputBuffer;
  45:libDaisy/src/hid/audio.h **** 
  46:libDaisy/src/hid/audio.h ****     /** Non-Interleaving output buffer
  47:libDaisy/src/hid/audio.h ****      * Arranged by float[chn][sample] 
  48:libDaisy/src/hid/audio.h ****      */
  49:libDaisy/src/hid/audio.h ****     typedef float** OutputBuffer;
  50:libDaisy/src/hid/audio.h **** 
  51:libDaisy/src/hid/audio.h ****     /** Type for a Non-Interleaving audio callback 
  52:libDaisy/src/hid/audio.h ****      * Non-Interleaving audio callbacks in daisy will be of this type
  53:libDaisy/src/hid/audio.h ****      */
  54:libDaisy/src/hid/audio.h ****     typedef void (*AudioCallback)(InputBuffer  in,
  55:libDaisy/src/hid/audio.h ****                                   OutputBuffer out,
  56:libDaisy/src/hid/audio.h ****                                   size_t       size);
  57:libDaisy/src/hid/audio.h **** 
  58:libDaisy/src/hid/audio.h ****     /** Interleaving Input buffer
  59:libDaisy/src/hid/audio.h ****      ** audio is prepared as { L0, R0, L1, R1, . . . LN, RN }]
  60:libDaisy/src/hid/audio.h ****      ** this is const, as the user shouldn't modify it
  61:libDaisy/src/hid/audio.h ****     */
  62:libDaisy/src/hid/audio.h ****     typedef const float* InterleavingInputBuffer;
  63:libDaisy/src/hid/audio.h **** 
  64:libDaisy/src/hid/audio.h ****     /** Interleaving Output buffer 
  65:libDaisy/src/hid/audio.h ****      ** audio is prepared as { L0, R0, L1, R1, . . . LN, RN }
  66:libDaisy/src/hid/audio.h ****     */
  67:libDaisy/src/hid/audio.h ****     typedef float* InterleavingOutputBuffer;
  68:libDaisy/src/hid/audio.h **** 
  69:libDaisy/src/hid/audio.h ****     /** Interleaving Audio Callback 
  70:libDaisy/src/hid/audio.h ****      * Interleaving audio callbacks in daisy must be of this type
  71:libDaisy/src/hid/audio.h ****      */
  72:libDaisy/src/hid/audio.h ****     typedef void (*InterleavingAudioCallback)(InterleavingInputBuffer  in,
  73:libDaisy/src/hid/audio.h ****                                               InterleavingOutputBuffer out,
  74:libDaisy/src/hid/audio.h ****                                               size_t                   size);
  75:libDaisy/src/hid/audio.h **** 
  76:libDaisy/src/hid/audio.h ****     AudioHandle() : pimpl_(nullptr) {}
  77:libDaisy/src/hid/audio.h ****     ~AudioHandle() {}
 102              		.loc 12 77 5 is_stmt 1 view .LVU20
 103              		.loc 12 77 5 is_stmt 0 view .LVU21
 104              	.LBE594:
 105              	.LBE590:
 106              		.loc 1 25 19 view .LVU22
 107 0000 7047     		bx	lr
 108              		.cfi_endproc
 109              	.LFE4745:
ARM GAS  C:\Users\yaman\AppData\Local\Temp\ccCu6FW5.s 			page 17


 111              		.weak	_ZN4kxmx9BluemchenD1Ev
 112              		.thumb_set _ZN4kxmx9BluemchenD1Ev,_ZN4kxmx9BluemchenD2Ev
 113 0002 00BF     		.section	.text._ZN5daisy11OledDisplayINS_13SSD130xDriverILj64ELj32ENS_19SSD130xI2CTransportEEEED2E
 114              		.align	1
 115              		.p2align 2,,3
 116              		.weak	_ZN5daisy11OledDisplayINS_13SSD130xDriverILj64ELj32ENS_19SSD130xI2CTransportEEEED2Ev
 117              		.syntax unified
 118              		.thumb
 119              		.thumb_func
 120              		.fpu fpv5-d16
 122              	_ZN5daisy11OledDisplayINS_13SSD130xDriverILj64ELj32ENS_19SSD130xI2CTransportEEEED2Ev:
 123              	.LVL1:
 124              	.LFB5100:
 125              		.loc 2 18 13 is_stmt 1 view -0
 126              		.cfi_startproc
 127              		@ args = 0, pretend = 0, frame = 0
 128              		@ frame_needed = 0, uses_anonymous_args = 0
 129              		@ link register save eliminated.
 130              	.LBB595:
 131              	.LBI595:
 132              		.loc 3 219 13 view .LVU24
 133              	.LBB596:
 134              	.LBI596:
  23:libDaisy/src/hid/disp/display.h **** 
 135              		.loc 3 23 13 view .LVU25
  23:libDaisy/src/hid/disp/display.h **** 
 136              		.loc 3 23 13 is_stmt 0 view .LVU26
 137              	.LBE596:
 138              	.LBE595:
 139              		.loc 2 18 29 view .LVU27
 140 0000 7047     		bx	lr
 141              		.cfi_endproc
 142              	.LFE5100:
 144              		.weak	_ZN5daisy11OledDisplayINS_13SSD130xDriverILj64ELj32ENS_19SSD130xI2CTransportEEEED1Ev
 145              		.thumb_set _ZN5daisy11OledDisplayINS_13SSD130xDriverILj64ELj32ENS_19SSD130xI2CTransportEEEED1Ev,_Z
 146 0002 00BF     		.section	.text._ZN5daisy11OledDisplayINS_13SSD130xDriverILj64ELj32ENS_19SSD130xI2CTransportEEEE4Fi
 147              		.align	1
 148              		.p2align 2,,3
 149              		.weak	_ZN5daisy11OledDisplayINS_13SSD130xDriverILj64ELj32ENS_19SSD130xI2CTransportEEEE4FillEb
 150              		.syntax unified
 151              		.thumb
 152              		.thumb_func
 153              		.fpu fpv5-d16
 155              	_ZN5daisy11OledDisplayINS_13SSD130xDriverILj64ELj32ENS_19SSD130xI2CTransportEEEE4FillEb:
 156              	.LVL2:
 157              	.LFB5106:
  19:libDaisy/src/hid/disp/oled_display.h **** 
  20:libDaisy/src/hid/disp/oled_display.h ****     struct Config
  21:libDaisy/src/hid/disp/oled_display.h ****     {
  22:libDaisy/src/hid/disp/oled_display.h ****         typename DisplayDriver::Config driver_config;
  23:libDaisy/src/hid/disp/oled_display.h ****     };
  24:libDaisy/src/hid/disp/oled_display.h **** 
  25:libDaisy/src/hid/disp/oled_display.h ****     void Init(Config config) { driver_.Init(config.driver_config); }
  26:libDaisy/src/hid/disp/oled_display.h **** 
  27:libDaisy/src/hid/disp/oled_display.h ****     uint16_t Height() const override { return driver_.Height(); }
  28:libDaisy/src/hid/disp/oled_display.h ****     uint16_t Width() const override { return driver_.Width(); }
  29:libDaisy/src/hid/disp/oled_display.h **** 
ARM GAS  C:\Users\yaman\AppData\Local\Temp\ccCu6FW5.s 			page 18


  30:libDaisy/src/hid/disp/oled_display.h ****     /** 
  31:libDaisy/src/hid/disp/oled_display.h ****     Fills the entire display with either on/off.
  32:libDaisy/src/hid/disp/oled_display.h ****     \param on Sets on or off.
  33:libDaisy/src/hid/disp/oled_display.h ****     */
  34:libDaisy/src/hid/disp/oled_display.h ****     void Fill(bool on) override { driver_.Fill(on); }
 158              		.loc 2 34 10 is_stmt 1 view -0
 159              		.cfi_startproc
 160              		@ args = 0, pretend = 0, frame = 0
 161              		@ frame_needed = 0, uses_anonymous_args = 0
 162              		@ link register save eliminated.
 163              	.LBB597:
 164              	.LBI597:
 165              		.file 13 "libDaisy/src/dev/oled_ssd130x.h"
   1:libDaisy/src/dev/oled_ssd130x.h **** #pragma once
   2:libDaisy/src/dev/oled_ssd130x.h **** #ifndef SA_OLED_SSD130X_H
   3:libDaisy/src/dev/oled_ssd130x.h **** #define SA_OLED_SSD130X_H /**< & */
   4:libDaisy/src/dev/oled_ssd130x.h **** 
   5:libDaisy/src/dev/oled_ssd130x.h **** #include "per/i2c.h"
   6:libDaisy/src/dev/oled_ssd130x.h **** #include "per/spi.h"
   7:libDaisy/src/dev/oled_ssd130x.h **** #include "per/gpio.h"
   8:libDaisy/src/dev/oled_ssd130x.h **** #include "sys/system.h"
   9:libDaisy/src/dev/oled_ssd130x.h **** 
  10:libDaisy/src/dev/oled_ssd130x.h **** namespace daisy
  11:libDaisy/src/dev/oled_ssd130x.h **** {
  12:libDaisy/src/dev/oled_ssd130x.h **** /**
  13:libDaisy/src/dev/oled_ssd130x.h ****  * I2C Transport for SSD1306 / SSD1309 OLED display devices
  14:libDaisy/src/dev/oled_ssd130x.h ****  */
  15:libDaisy/src/dev/oled_ssd130x.h **** class SSD130xI2CTransport
  16:libDaisy/src/dev/oled_ssd130x.h **** {
  17:libDaisy/src/dev/oled_ssd130x.h ****   public:
  18:libDaisy/src/dev/oled_ssd130x.h ****     struct Config
  19:libDaisy/src/dev/oled_ssd130x.h ****     {
  20:libDaisy/src/dev/oled_ssd130x.h ****         I2CHandle::Config i2c_config;
  21:libDaisy/src/dev/oled_ssd130x.h ****         uint8_t           i2c_address;
  22:libDaisy/src/dev/oled_ssd130x.h ****         void              Defaults()
  23:libDaisy/src/dev/oled_ssd130x.h ****         {
  24:libDaisy/src/dev/oled_ssd130x.h ****             i2c_config.periph         = I2CHandle::Config::Peripheral::I2C_1;
  25:libDaisy/src/dev/oled_ssd130x.h ****             i2c_config.speed          = I2CHandle::Config::Speed::I2C_1MHZ;
  26:libDaisy/src/dev/oled_ssd130x.h ****             i2c_config.mode           = I2CHandle::Config::Mode::I2C_MASTER;
  27:libDaisy/src/dev/oled_ssd130x.h ****             i2c_config.pin_config.scl = {DSY_GPIOB, 8};
  28:libDaisy/src/dev/oled_ssd130x.h ****             i2c_config.pin_config.sda = {DSY_GPIOB, 9};
  29:libDaisy/src/dev/oled_ssd130x.h ****             i2c_address               = 0x3C;
  30:libDaisy/src/dev/oled_ssd130x.h ****         }
  31:libDaisy/src/dev/oled_ssd130x.h ****     };
  32:libDaisy/src/dev/oled_ssd130x.h ****     void Init(const Config& config)
  33:libDaisy/src/dev/oled_ssd130x.h ****     {
  34:libDaisy/src/dev/oled_ssd130x.h ****         i2c_address_ = config.i2c_address;
  35:libDaisy/src/dev/oled_ssd130x.h ****         i2c_.Init(config.i2c_config);
  36:libDaisy/src/dev/oled_ssd130x.h ****     };
  37:libDaisy/src/dev/oled_ssd130x.h ****     void SendCommand(uint8_t cmd)
  38:libDaisy/src/dev/oled_ssd130x.h ****     {
  39:libDaisy/src/dev/oled_ssd130x.h ****         uint8_t buf[2] = {0X00, cmd};
  40:libDaisy/src/dev/oled_ssd130x.h ****         i2c_.TransmitBlocking(i2c_address_, buf, 2, 1000);
  41:libDaisy/src/dev/oled_ssd130x.h ****     };
  42:libDaisy/src/dev/oled_ssd130x.h **** 
  43:libDaisy/src/dev/oled_ssd130x.h ****     void SendData(uint8_t* buff, size_t size)
  44:libDaisy/src/dev/oled_ssd130x.h ****     {
ARM GAS  C:\Users\yaman\AppData\Local\Temp\ccCu6FW5.s 			page 19


  45:libDaisy/src/dev/oled_ssd130x.h ****         for(size_t i = 0; i < size; i++)
  46:libDaisy/src/dev/oled_ssd130x.h ****         {
  47:libDaisy/src/dev/oled_ssd130x.h ****             uint8_t buf[2] = {0X40, buff[i]};
  48:libDaisy/src/dev/oled_ssd130x.h ****             i2c_.TransmitBlocking(i2c_address_, buf, 2, 1000);
  49:libDaisy/src/dev/oled_ssd130x.h ****         }
  50:libDaisy/src/dev/oled_ssd130x.h ****     };
  51:libDaisy/src/dev/oled_ssd130x.h **** 
  52:libDaisy/src/dev/oled_ssd130x.h ****   private:
  53:libDaisy/src/dev/oled_ssd130x.h ****     daisy::I2CHandle i2c_;
  54:libDaisy/src/dev/oled_ssd130x.h ****     uint8_t          i2c_address_;
  55:libDaisy/src/dev/oled_ssd130x.h **** };
  56:libDaisy/src/dev/oled_ssd130x.h **** 
  57:libDaisy/src/dev/oled_ssd130x.h **** /**
  58:libDaisy/src/dev/oled_ssd130x.h ****  * 4 Wire SPI Transport for SSD1306 / SSD1309 OLED display devices
  59:libDaisy/src/dev/oled_ssd130x.h ****  */
  60:libDaisy/src/dev/oled_ssd130x.h **** class SSD130x4WireSpiTransport
  61:libDaisy/src/dev/oled_ssd130x.h **** {
  62:libDaisy/src/dev/oled_ssd130x.h ****   public:
  63:libDaisy/src/dev/oled_ssd130x.h ****     struct Config
  64:libDaisy/src/dev/oled_ssd130x.h ****     {
  65:libDaisy/src/dev/oled_ssd130x.h ****         struct
  66:libDaisy/src/dev/oled_ssd130x.h ****         {
  67:libDaisy/src/dev/oled_ssd130x.h ****             dsy_gpio_pin dc;    /**< & */
  68:libDaisy/src/dev/oled_ssd130x.h ****             dsy_gpio_pin reset; /**< & */
  69:libDaisy/src/dev/oled_ssd130x.h ****         } pin_config;
  70:libDaisy/src/dev/oled_ssd130x.h ****         void Defaults()
  71:libDaisy/src/dev/oled_ssd130x.h ****         {
  72:libDaisy/src/dev/oled_ssd130x.h ****             pin_config.dc    = {DSY_GPIOB, 4};
  73:libDaisy/src/dev/oled_ssd130x.h ****             pin_config.reset = {DSY_GPIOB, 15};
  74:libDaisy/src/dev/oled_ssd130x.h ****         }
  75:libDaisy/src/dev/oled_ssd130x.h ****     };
  76:libDaisy/src/dev/oled_ssd130x.h ****     void Init(const Config& config)
  77:libDaisy/src/dev/oled_ssd130x.h ****     {
  78:libDaisy/src/dev/oled_ssd130x.h ****         // Initialize both GPIO
  79:libDaisy/src/dev/oled_ssd130x.h ****         pin_dc_.mode = DSY_GPIO_MODE_OUTPUT_PP;
  80:libDaisy/src/dev/oled_ssd130x.h ****         pin_dc_.pin  = config.pin_config.dc;
  81:libDaisy/src/dev/oled_ssd130x.h ****         dsy_gpio_init(&pin_dc_);
  82:libDaisy/src/dev/oled_ssd130x.h ****         pin_reset_.mode = DSY_GPIO_MODE_OUTPUT_PP;
  83:libDaisy/src/dev/oled_ssd130x.h ****         pin_reset_.pin  = config.pin_config.reset;
  84:libDaisy/src/dev/oled_ssd130x.h ****         dsy_gpio_init(&pin_reset_);
  85:libDaisy/src/dev/oled_ssd130x.h ****         // Initialize SPI
  86:libDaisy/src/dev/oled_ssd130x.h ****         SpiHandle::Config spi_config;
  87:libDaisy/src/dev/oled_ssd130x.h ****         spi_config.periph    = SpiHandle::Config::Peripheral::SPI_1;
  88:libDaisy/src/dev/oled_ssd130x.h ****         spi_config.mode      = SpiHandle::Config::Mode::MASTER;
  89:libDaisy/src/dev/oled_ssd130x.h ****         spi_config.direction = SpiHandle::Config::Direction::TWO_LINES_TX_ONLY;
  90:libDaisy/src/dev/oled_ssd130x.h ****         spi_config.datasize  = 8;
  91:libDaisy/src/dev/oled_ssd130x.h ****         spi_config.clock_polarity = SpiHandle::Config::ClockPolarity::LOW;
  92:libDaisy/src/dev/oled_ssd130x.h ****         spi_config.clock_phase    = SpiHandle::Config::ClockPhase::ONE_EDGE;
  93:libDaisy/src/dev/oled_ssd130x.h ****         spi_config.nss            = SpiHandle::Config::NSS::HARD_OUTPUT;
  94:libDaisy/src/dev/oled_ssd130x.h ****         spi_config.baud_prescaler = SpiHandle::Config::BaudPrescaler::PS_8;
  95:libDaisy/src/dev/oled_ssd130x.h **** 
  96:libDaisy/src/dev/oled_ssd130x.h ****         spi_config.pin_config.sclk = {DSY_GPIOG, 11};
  97:libDaisy/src/dev/oled_ssd130x.h ****         spi_config.pin_config.miso = {DSY_GPIOX, 0};
  98:libDaisy/src/dev/oled_ssd130x.h ****         spi_config.pin_config.mosi = {DSY_GPIOB, 5};
  99:libDaisy/src/dev/oled_ssd130x.h ****         spi_config.pin_config.nss  = {DSY_GPIOG, 10};
 100:libDaisy/src/dev/oled_ssd130x.h **** 
 101:libDaisy/src/dev/oled_ssd130x.h ****         spi_.Init(spi_config);
ARM GAS  C:\Users\yaman\AppData\Local\Temp\ccCu6FW5.s 			page 20


 102:libDaisy/src/dev/oled_ssd130x.h **** 
 103:libDaisy/src/dev/oled_ssd130x.h ****         // Reset and Configure OLED.
 104:libDaisy/src/dev/oled_ssd130x.h ****         dsy_gpio_write(&pin_reset_, 0);
 105:libDaisy/src/dev/oled_ssd130x.h ****         System::Delay(10);
 106:libDaisy/src/dev/oled_ssd130x.h ****         dsy_gpio_write(&pin_reset_, 1);
 107:libDaisy/src/dev/oled_ssd130x.h ****         System::Delay(10);
 108:libDaisy/src/dev/oled_ssd130x.h ****     };
 109:libDaisy/src/dev/oled_ssd130x.h ****     void SendCommand(uint8_t cmd)
 110:libDaisy/src/dev/oled_ssd130x.h ****     {
 111:libDaisy/src/dev/oled_ssd130x.h ****         dsy_gpio_write(&pin_dc_, 0);
 112:libDaisy/src/dev/oled_ssd130x.h ****         spi_.BlockingTransmit(&cmd, 1);
 113:libDaisy/src/dev/oled_ssd130x.h ****     };
 114:libDaisy/src/dev/oled_ssd130x.h **** 
 115:libDaisy/src/dev/oled_ssd130x.h ****     void SendData(uint8_t* buff, size_t size)
 116:libDaisy/src/dev/oled_ssd130x.h ****     {
 117:libDaisy/src/dev/oled_ssd130x.h ****         dsy_gpio_write(&pin_dc_, 1);
 118:libDaisy/src/dev/oled_ssd130x.h ****         spi_.BlockingTransmit(buff, size);
 119:libDaisy/src/dev/oled_ssd130x.h ****     };
 120:libDaisy/src/dev/oled_ssd130x.h **** 
 121:libDaisy/src/dev/oled_ssd130x.h ****   private:
 122:libDaisy/src/dev/oled_ssd130x.h ****     SpiHandle spi_;
 123:libDaisy/src/dev/oled_ssd130x.h ****     dsy_gpio  pin_reset_;
 124:libDaisy/src/dev/oled_ssd130x.h ****     dsy_gpio  pin_dc_;
 125:libDaisy/src/dev/oled_ssd130x.h **** };
 126:libDaisy/src/dev/oled_ssd130x.h **** 
 127:libDaisy/src/dev/oled_ssd130x.h **** 
 128:libDaisy/src/dev/oled_ssd130x.h **** /**
 129:libDaisy/src/dev/oled_ssd130x.h ****  * A driver implementation for the SSD1306/SSD1309
 130:libDaisy/src/dev/oled_ssd130x.h ****  */
 131:libDaisy/src/dev/oled_ssd130x.h **** template <size_t width, size_t height, typename Transport>
 132:libDaisy/src/dev/oled_ssd130x.h **** class SSD130xDriver
 133:libDaisy/src/dev/oled_ssd130x.h **** {
 134:libDaisy/src/dev/oled_ssd130x.h ****   public:
 135:libDaisy/src/dev/oled_ssd130x.h ****     struct Config
 136:libDaisy/src/dev/oled_ssd130x.h ****     {
 137:libDaisy/src/dev/oled_ssd130x.h ****         typename Transport::Config transport_config;
 138:libDaisy/src/dev/oled_ssd130x.h ****     };
 139:libDaisy/src/dev/oled_ssd130x.h **** 
 140:libDaisy/src/dev/oled_ssd130x.h ****     void Init(Config config)
 141:libDaisy/src/dev/oled_ssd130x.h ****     {
 142:libDaisy/src/dev/oled_ssd130x.h ****         transport_.Init(config.transport_config);
 143:libDaisy/src/dev/oled_ssd130x.h **** 
 144:libDaisy/src/dev/oled_ssd130x.h ****         // Init routine...
 145:libDaisy/src/dev/oled_ssd130x.h **** 
 146:libDaisy/src/dev/oled_ssd130x.h ****         // Display Off
 147:libDaisy/src/dev/oled_ssd130x.h ****         transport_.SendCommand(0xaE);
 148:libDaisy/src/dev/oled_ssd130x.h ****         // Dimension dependent commands...
 149:libDaisy/src/dev/oled_ssd130x.h ****         switch(height)
 150:libDaisy/src/dev/oled_ssd130x.h ****         {
 151:libDaisy/src/dev/oled_ssd130x.h ****             case 16:
 152:libDaisy/src/dev/oled_ssd130x.h ****                 // Display Clock Divide Ratio
 153:libDaisy/src/dev/oled_ssd130x.h ****                 transport_.SendCommand(0xD5);
 154:libDaisy/src/dev/oled_ssd130x.h ****                 transport_.SendCommand(0x60);
 155:libDaisy/src/dev/oled_ssd130x.h ****                 // Multiplex Ratio
 156:libDaisy/src/dev/oled_ssd130x.h ****                 transport_.SendCommand(0xA8);
 157:libDaisy/src/dev/oled_ssd130x.h ****                 transport_.SendCommand(0x0F);
 158:libDaisy/src/dev/oled_ssd130x.h ****                 // COM Pins
ARM GAS  C:\Users\yaman\AppData\Local\Temp\ccCu6FW5.s 			page 21


 159:libDaisy/src/dev/oled_ssd130x.h ****                 transport_.SendCommand(0xDA);
 160:libDaisy/src/dev/oled_ssd130x.h ****                 transport_.SendCommand(0x02);
 161:libDaisy/src/dev/oled_ssd130x.h ****                 break;
 162:libDaisy/src/dev/oled_ssd130x.h ****             case 32:
 163:libDaisy/src/dev/oled_ssd130x.h ****                 // Display Clock Divide Ratio
 164:libDaisy/src/dev/oled_ssd130x.h ****                 transport_.SendCommand(0xD5);
 165:libDaisy/src/dev/oled_ssd130x.h ****                 transport_.SendCommand(0x80);
 166:libDaisy/src/dev/oled_ssd130x.h ****                 // Multiplex Ratio
 167:libDaisy/src/dev/oled_ssd130x.h ****                 transport_.SendCommand(0xA8);
 168:libDaisy/src/dev/oled_ssd130x.h ****                 transport_.SendCommand(0x1F);
 169:libDaisy/src/dev/oled_ssd130x.h ****                 // COM Pins
 170:libDaisy/src/dev/oled_ssd130x.h ****                 transport_.SendCommand(0xDA);
 171:libDaisy/src/dev/oled_ssd130x.h ****                 if(width == 64)
 172:libDaisy/src/dev/oled_ssd130x.h ****                 {
 173:libDaisy/src/dev/oled_ssd130x.h ****                     transport_.SendCommand(0x12);
 174:libDaisy/src/dev/oled_ssd130x.h ****                 }
 175:libDaisy/src/dev/oled_ssd130x.h ****                 else
 176:libDaisy/src/dev/oled_ssd130x.h ****                 {
 177:libDaisy/src/dev/oled_ssd130x.h ****                     transport_.SendCommand(0x02);
 178:libDaisy/src/dev/oled_ssd130x.h ****                 }
 179:libDaisy/src/dev/oled_ssd130x.h **** 
 180:libDaisy/src/dev/oled_ssd130x.h ****                 break;
 181:libDaisy/src/dev/oled_ssd130x.h ****             case 48:
 182:libDaisy/src/dev/oled_ssd130x.h ****                 // Display Clock Divide Ratio
 183:libDaisy/src/dev/oled_ssd130x.h ****                 transport_.SendCommand(0xD5);
 184:libDaisy/src/dev/oled_ssd130x.h ****                 transport_.SendCommand(0x80);
 185:libDaisy/src/dev/oled_ssd130x.h ****                 // Multiplex Ratio
 186:libDaisy/src/dev/oled_ssd130x.h ****                 transport_.SendCommand(0xA8);
 187:libDaisy/src/dev/oled_ssd130x.h ****                 transport_.SendCommand(0x2F);
 188:libDaisy/src/dev/oled_ssd130x.h ****                 // COM Pins
 189:libDaisy/src/dev/oled_ssd130x.h ****                 transport_.SendCommand(0xDA);
 190:libDaisy/src/dev/oled_ssd130x.h ****                 transport_.SendCommand(0x12);
 191:libDaisy/src/dev/oled_ssd130x.h ****                 break;
 192:libDaisy/src/dev/oled_ssd130x.h ****             default: // 128
 193:libDaisy/src/dev/oled_ssd130x.h ****                 // Display Clock Divide Ratio
 194:libDaisy/src/dev/oled_ssd130x.h ****                 transport_.SendCommand(0xD5);
 195:libDaisy/src/dev/oled_ssd130x.h ****                 transport_.SendCommand(0x80);
 196:libDaisy/src/dev/oled_ssd130x.h ****                 // Multiplex Ratio
 197:libDaisy/src/dev/oled_ssd130x.h ****                 transport_.SendCommand(0xA8);
 198:libDaisy/src/dev/oled_ssd130x.h ****                 transport_.SendCommand(0x3F);
 199:libDaisy/src/dev/oled_ssd130x.h ****                 // COM Pins
 200:libDaisy/src/dev/oled_ssd130x.h ****                 transport_.SendCommand(0xDA);
 201:libDaisy/src/dev/oled_ssd130x.h ****                 transport_.SendCommand(0x12);
 202:libDaisy/src/dev/oled_ssd130x.h ****                 break;
 203:libDaisy/src/dev/oled_ssd130x.h ****         }
 204:libDaisy/src/dev/oled_ssd130x.h **** 
 205:libDaisy/src/dev/oled_ssd130x.h ****         // Display Offset
 206:libDaisy/src/dev/oled_ssd130x.h ****         transport_.SendCommand(0xD3);
 207:libDaisy/src/dev/oled_ssd130x.h ****         transport_.SendCommand(0x00);
 208:libDaisy/src/dev/oled_ssd130x.h ****         // Start Line Address
 209:libDaisy/src/dev/oled_ssd130x.h ****         transport_.SendCommand(0x40);
 210:libDaisy/src/dev/oled_ssd130x.h ****         // Normal Display
 211:libDaisy/src/dev/oled_ssd130x.h ****         transport_.SendCommand(0xA6);
 212:libDaisy/src/dev/oled_ssd130x.h ****         // All On Resume
 213:libDaisy/src/dev/oled_ssd130x.h ****         transport_.SendCommand(0xA4);
 214:libDaisy/src/dev/oled_ssd130x.h ****         // Charge Pump
 215:libDaisy/src/dev/oled_ssd130x.h ****         transport_.SendCommand(0x8D);
ARM GAS  C:\Users\yaman\AppData\Local\Temp\ccCu6FW5.s 			page 22


 216:libDaisy/src/dev/oled_ssd130x.h ****         transport_.SendCommand(0x14);
 217:libDaisy/src/dev/oled_ssd130x.h ****         // Set Segment Remap
 218:libDaisy/src/dev/oled_ssd130x.h ****         transport_.SendCommand(0xA1);
 219:libDaisy/src/dev/oled_ssd130x.h ****         // COM Output Scan Direction
 220:libDaisy/src/dev/oled_ssd130x.h ****         transport_.SendCommand(0xC8);
 221:libDaisy/src/dev/oled_ssd130x.h ****         // Contrast Control
 222:libDaisy/src/dev/oled_ssd130x.h ****         transport_.SendCommand(0x81);
 223:libDaisy/src/dev/oled_ssd130x.h ****         transport_.SendCommand(0x8F);
 224:libDaisy/src/dev/oled_ssd130x.h ****         // Pre Charge
 225:libDaisy/src/dev/oled_ssd130x.h ****         transport_.SendCommand(0xD9);
 226:libDaisy/src/dev/oled_ssd130x.h ****         transport_.SendCommand(0x25);
 227:libDaisy/src/dev/oled_ssd130x.h ****         // VCOM Detect
 228:libDaisy/src/dev/oled_ssd130x.h ****         transport_.SendCommand(0xDB);
 229:libDaisy/src/dev/oled_ssd130x.h ****         transport_.SendCommand(0x34);
 230:libDaisy/src/dev/oled_ssd130x.h **** 
 231:libDaisy/src/dev/oled_ssd130x.h **** 
 232:libDaisy/src/dev/oled_ssd130x.h ****         // Display On
 233:libDaisy/src/dev/oled_ssd130x.h ****         transport_.SendCommand(0xAF); //--turn on oled panel
 234:libDaisy/src/dev/oled_ssd130x.h ****     };
 235:libDaisy/src/dev/oled_ssd130x.h **** 
 236:libDaisy/src/dev/oled_ssd130x.h ****     size_t Width() const { return width; };
 237:libDaisy/src/dev/oled_ssd130x.h ****     size_t Height() const { return height; };
 238:libDaisy/src/dev/oled_ssd130x.h **** 
 239:libDaisy/src/dev/oled_ssd130x.h ****     void DrawPixel(uint_fast8_t x, uint_fast8_t y, bool on)
 240:libDaisy/src/dev/oled_ssd130x.h ****     {
 241:libDaisy/src/dev/oled_ssd130x.h ****         if(x >= width || y >= height)
 242:libDaisy/src/dev/oled_ssd130x.h ****             return;
 243:libDaisy/src/dev/oled_ssd130x.h ****         if(on)
 244:libDaisy/src/dev/oled_ssd130x.h ****             buffer_[x + (y / 8) * width] |= (1 << (y % 8));
 245:libDaisy/src/dev/oled_ssd130x.h ****         else
 246:libDaisy/src/dev/oled_ssd130x.h ****             buffer_[x + (y / 8) * width] &= ~(1 << (y % 8));
 247:libDaisy/src/dev/oled_ssd130x.h ****     }
 248:libDaisy/src/dev/oled_ssd130x.h **** 
 249:libDaisy/src/dev/oled_ssd130x.h ****     void Fill(bool on)
 166              		.loc 13 249 10 view .LVU29
 167              	.LBB598:
 250:libDaisy/src/dev/oled_ssd130x.h ****     {
 251:libDaisy/src/dev/oled_ssd130x.h ****         for(size_t i = 0; i < sizeof(buffer_); i++)
 168              		.loc 13 251 29 view .LVU30
 252:libDaisy/src/dev/oled_ssd130x.h ****         {
 253:libDaisy/src/dev/oled_ssd130x.h ****             buffer_[i] = on ? 0xff : 0x00;
 169              		.loc 13 253 24 is_stmt 0 view .LVU31
 170 0000 4942     		rsbs	r1, r1, #0
 171              	.LVL3:
 172              		.loc 13 253 24 view .LVU32
 173 0002 4FF48072 		mov	r2, #256
 174 0006 1030     		adds	r0, r0, #16
 175              	.LVL4:
 176              		.loc 13 253 24 view .LVU33
 177 0008 C9B2     		uxtb	r1, r1
 178 000a FFF7FEBF 		b	memset
 179              	.LVL5:
 180              		.loc 13 253 24 view .LVU34
 181              	.LBE598:
 182              	.LBE597:
 183              		.cfi_endproc
 184              	.LFE5106:
ARM GAS  C:\Users\yaman\AppData\Local\Temp\ccCu6FW5.s 			page 23


 186 000e 00BF     		.section	.text._ZNK5daisy11OledDisplayINS_13SSD130xDriverILj64ELj32ENS_19SSD130xI2CTransportEEEE6H
 187              		.align	1
 188              		.p2align 2,,3
 189              		.weak	_ZNK5daisy11OledDisplayINS_13SSD130xDriverILj64ELj32ENS_19SSD130xI2CTransportEEEE6HeightEv
 190              		.syntax unified
 191              		.thumb
 192              		.thumb_func
 193              		.fpu fpv5-d16
 195              	_ZNK5daisy11OledDisplayINS_13SSD130xDriverILj64ELj32ENS_19SSD130xI2CTransportEEEE6HeightEv:
 196              	.LVL6:
 197              	.LFB5382:
  27:libDaisy/src/hid/disp/oled_display.h ****     uint16_t Width() const override { return driver_.Width(); }
 198              		.loc 2 27 14 is_stmt 1 view -0
 199              		.cfi_startproc
 200              		@ args = 0, pretend = 0, frame = 0
 201              		@ frame_needed = 0, uses_anonymous_args = 0
 202              		@ link register save eliminated.
  27:libDaisy/src/hid/disp/oled_display.h ****     uint16_t Width() const override { return driver_.Width(); }
 203              		.loc 2 27 65 is_stmt 0 view .LVU36
 204 0000 2020     		movs	r0, #32
 205              	.LVL7:
  27:libDaisy/src/hid/disp/oled_display.h ****     uint16_t Width() const override { return driver_.Width(); }
 206              		.loc 2 27 65 view .LVU37
 207 0002 7047     		bx	lr
 208              		.cfi_endproc
 209              	.LFE5382:
 211              		.section	.text._ZNK5daisy11OledDisplayINS_13SSD130xDriverILj64ELj32ENS_19SSD130xI2CTransportEEEE5W
 212              		.align	1
 213              		.p2align 2,,3
 214              		.weak	_ZNK5daisy11OledDisplayINS_13SSD130xDriverILj64ELj32ENS_19SSD130xI2CTransportEEEE5WidthEv
 215              		.syntax unified
 216              		.thumb
 217              		.thumb_func
 218              		.fpu fpv5-d16
 220              	_ZNK5daisy11OledDisplayINS_13SSD130xDriverILj64ELj32ENS_19SSD130xI2CTransportEEEE5WidthEv:
 221              	.LVL8:
 222              	.LFB5383:
  28:libDaisy/src/hid/disp/oled_display.h **** 
 223              		.loc 2 28 14 is_stmt 1 view -0
 224              		.cfi_startproc
 225              		@ args = 0, pretend = 0, frame = 0
 226              		@ frame_needed = 0, uses_anonymous_args = 0
 227              		@ link register save eliminated.
  28:libDaisy/src/hid/disp/oled_display.h **** 
 228              		.loc 2 28 63 is_stmt 0 view .LVU39
 229 0000 4020     		movs	r0, #64
 230              	.LVL9:
  28:libDaisy/src/hid/disp/oled_display.h **** 
 231              		.loc 2 28 63 view .LVU40
 232 0002 7047     		bx	lr
 233              		.cfi_endproc
 234              	.LFE5383:
 236              		.section	.text._ZN5daisy11OledDisplayINS_13SSD130xDriverILj64ELj32ENS_19SSD130xI2CTransportEEEED0E
 237              		.align	1
 238              		.p2align 2,,3
 239              		.weak	_ZN5daisy11OledDisplayINS_13SSD130xDriverILj64ELj32ENS_19SSD130xI2CTransportEEEED0Ev
 240              		.syntax unified
ARM GAS  C:\Users\yaman\AppData\Local\Temp\ccCu6FW5.s 			page 24


 241              		.thumb
 242              		.thumb_func
 243              		.fpu fpv5-d16
 245              	_ZN5daisy11OledDisplayINS_13SSD130xDriverILj64ELj32ENS_19SSD130xI2CTransportEEEED0Ev:
 246              	.LVL10:
 247              	.LFB5102:
  18:libDaisy/src/hid/disp/oled_display.h **** 
 248              		.loc 2 18 13 is_stmt 1 view -0
 249              		.cfi_startproc
 250              		@ args = 0, pretend = 0, frame = 0
 251              		@ frame_needed = 0, uses_anonymous_args = 0
  18:libDaisy/src/hid/disp/oled_display.h **** 
 252              		.loc 2 18 13 is_stmt 0 view .LVU42
 253 0000 10B5     		push	{r4, lr}
 254              		.cfi_def_cfa_offset 8
 255              		.cfi_offset 4, -8
 256              		.cfi_offset 14, -4
  18:libDaisy/src/hid/disp/oled_display.h **** 
 257              		.loc 2 18 13 view .LVU43
 258 0002 0446     		mov	r4, r0
 259              	.LVL11:
 260              	.LBB599:
 261              	.LBI599:
  18:libDaisy/src/hid/disp/oled_display.h **** 
 262              		.loc 2 18 13 is_stmt 1 view .LVU44
 263              	.LBB600:
 264              	.LBI600:
 265              		.loc 3 219 13 view .LVU45
 266              	.LBB601:
 267              	.LBI601:
  23:libDaisy/src/hid/disp/display.h **** 
 268              		.loc 3 23 13 view .LVU46
  23:libDaisy/src/hid/disp/display.h **** 
 269              		.loc 3 23 13 is_stmt 0 view .LVU47
 270              	.LBE601:
 271              	.LBE600:
 272              	.LBE599:
  18:libDaisy/src/hid/disp/oled_display.h **** 
 273              		.loc 2 18 29 view .LVU48
 274 0004 4FF48871 		mov	r1, #272
 275 0008 FFF7FEFF 		bl	_ZdlPvj
 276              	.LVL12:
  18:libDaisy/src/hid/disp/oled_display.h **** 
 277              		.loc 2 18 29 view .LVU49
 278 000c 2046     		mov	r0, r4
 279 000e 10BD     		pop	{r4, pc}
  18:libDaisy/src/hid/disp/oled_display.h **** 
 280              		.loc 2 18 29 view .LVU50
 281              		.cfi_endproc
 282              	.LFE5102:
 284              		.section	.text._ZN5daisy11OledDisplayINS_13SSD130xDriverILj64ELj32ENS_19SSD130xI2CTransportEEEE6Up
 285              		.align	1
 286              		.p2align 2,,3
 287              		.weak	_ZN5daisy11OledDisplayINS_13SSD130xDriverILj64ELj32ENS_19SSD130xI2CTransportEEEE6UpdateEv
 288              		.syntax unified
 289              		.thumb
 290              		.thumb_func
ARM GAS  C:\Users\yaman\AppData\Local\Temp\ccCu6FW5.s 			page 25


 291              		.fpu fpv5-d16
 293              	_ZN5daisy11OledDisplayINS_13SSD130xDriverILj64ELj32ENS_19SSD130xI2CTransportEEEE6UpdateEv:
 294              	.LVL13:
 295              	.LFB5110:
  35:libDaisy/src/hid/disp/oled_display.h **** 
  36:libDaisy/src/hid/disp/oled_display.h ****     /**
  37:libDaisy/src/hid/disp/oled_display.h ****     Sets the pixel at the specified coordinate to be on/off.
  38:libDaisy/src/hid/disp/oled_display.h ****     \param x   x Coordinate
  39:libDaisy/src/hid/disp/oled_display.h ****     \param y   y coordinate
  40:libDaisy/src/hid/disp/oled_display.h ****     \param on  on or off
  41:libDaisy/src/hid/disp/oled_display.h ****     */
  42:libDaisy/src/hid/disp/oled_display.h ****     void DrawPixel(uint_fast8_t x, uint_fast8_t y, bool on) override
  43:libDaisy/src/hid/disp/oled_display.h ****     {
  44:libDaisy/src/hid/disp/oled_display.h ****         driver_.DrawPixel(x, y, on);
  45:libDaisy/src/hid/disp/oled_display.h ****     }
  46:libDaisy/src/hid/disp/oled_display.h **** 
  47:libDaisy/src/hid/disp/oled_display.h ****     /** 
  48:libDaisy/src/hid/disp/oled_display.h ****     Writes the current display buffer to the OLED device using SPI or I2C depending on 
  49:libDaisy/src/hid/disp/oled_display.h ****     how the object was initialized.
  50:libDaisy/src/hid/disp/oled_display.h ****     */
  51:libDaisy/src/hid/disp/oled_display.h ****     void Update() override { driver_.Update(); }
 296              		.loc 2 51 10 is_stmt 1 view -0
 297              		.cfi_startproc
 298              		@ args = 0, pretend = 0, frame = 8
 299              		@ frame_needed = 0, uses_anonymous_args = 0
 300              		.loc 2 51 10 is_stmt 0 view .LVU52
 301 0000 2DE9F04F 		push	{r4, r5, r6, r7, r8, r9, r10, fp, lr}
 302              		.cfi_def_cfa_offset 36
 303              		.cfi_offset 4, -36
 304              		.cfi_offset 5, -32
 305              		.cfi_offset 6, -28
 306              		.cfi_offset 7, -24
 307              		.cfi_offset 8, -20
 308              		.cfi_offset 9, -16
 309              		.cfi_offset 10, -12
 310              		.cfi_offset 11, -8
 311              		.cfi_offset 14, -4
 312              	.LBB614:
 313              	.LBB615:
 314              	.LBB616:
 315              	.LBB617:
  40:libDaisy/src/dev/oled_ssd130x.h ****     };
 316              		.loc 13 40 30 view .LVU53
 317 0004 4FF0B008 		mov	r8, #176
 318              	.LBE617:
 319              	.LBE616:
 320              	.LBE615:
 321              	.LBE614:
 322              		.loc 2 51 10 view .LVU54
 323 0008 85B0     		sub	sp, sp, #20
 324              		.cfi_def_cfa_offset 56
 325              		.loc 2 51 10 view .LVU55
 326 000a 0546     		mov	r5, r0
 327              	.LVL14:
 328              	.LBB629:
 329              	.LBI614:
 254:libDaisy/src/dev/oled_ssd130x.h ****         }
ARM GAS  C:\Users\yaman\AppData\Local\Temp\ccCu6FW5.s 			page 26


 255:libDaisy/src/dev/oled_ssd130x.h ****     };
 256:libDaisy/src/dev/oled_ssd130x.h **** 
 257:libDaisy/src/dev/oled_ssd130x.h ****     /**
 258:libDaisy/src/dev/oled_ssd130x.h ****      * Update the display 
 259:libDaisy/src/dev/oled_ssd130x.h ****     */
 260:libDaisy/src/dev/oled_ssd130x.h ****     void Update()
 330              		.loc 13 260 10 is_stmt 1 view .LVU56
 331              	.LBB628:
 261:libDaisy/src/dev/oled_ssd130x.h ****     {
 262:libDaisy/src/dev/oled_ssd130x.h ****         uint8_t i;
 263:libDaisy/src/dev/oled_ssd130x.h ****         uint8_t high_column_addr;
 264:libDaisy/src/dev/oled_ssd130x.h ****         switch(height)
 265:libDaisy/src/dev/oled_ssd130x.h ****         {
 266:libDaisy/src/dev/oled_ssd130x.h ****             case 32: high_column_addr = 0x12; break;
 267:libDaisy/src/dev/oled_ssd130x.h **** 
 268:libDaisy/src/dev/oled_ssd130x.h ****             default: high_column_addr = 0x10; break;
 269:libDaisy/src/dev/oled_ssd130x.h ****         }
 270:libDaisy/src/dev/oled_ssd130x.h ****         for(i = 0; i < (height / 8); i++)
 332              		.loc 13 270 22 view .LVU57
 333              	.LBB620:
 334              	.LBB618:
  40:libDaisy/src/dev/oled_ssd130x.h ****     };
 335              		.loc 13 40 30 is_stmt 0 view .LVU58
 336 000c 00F10807 		add	r7, r0, #8
 337              	.LVL15:
  40:libDaisy/src/dev/oled_ssd130x.h ****     };
 338              		.loc 13 40 30 view .LVU59
 339 0010 00F14F06 		add	r6, r0, #79
 340 0014 00F24F19 		addw	r9, r0, #335
 341              	.LVL16:
 342              	.L11:
  40:libDaisy/src/dev/oled_ssd130x.h ****     };
 343              		.loc 13 40 30 view .LVU60
 344              	.LBE618:
 345              	.LBI616:
  37:libDaisy/src/dev/oled_ssd130x.h ****     {
 346              		.loc 13 37 10 is_stmt 1 view .LVU61
 347              	.LBB619:
  39:libDaisy/src/dev/oled_ssd130x.h ****         i2c_.TransmitBlocking(i2c_address_, buf, 2, 1000);
 348              		.loc 13 39 9 view .LVU62
  40:libDaisy/src/dev/oled_ssd130x.h ****     };
 349              		.loc 13 40 30 is_stmt 0 view .LVU63
 350 0018 4FF47A7B 		mov	fp, #1000
  39:libDaisy/src/dev/oled_ssd130x.h ****         i2c_.TransmitBlocking(i2c_address_, buf, 2, 1000);
 351              		.loc 13 39 17 view .LVU64
 352 001c 4FF0000A 		mov	r10, #0
  40:libDaisy/src/dev/oled_ssd130x.h ****     };
 353              		.loc 13 40 30 view .LVU65
 354 0020 297B     		ldrb	r1, [r5, #12]	@ zero_extendqisi2
 355 0022 0223     		movs	r3, #2
 356 0024 03AA     		add	r2, sp, #12
 357 0026 3846     		mov	r0, r7
 358 0028 CDF800B0 		str	fp, [sp]
 359 002c A6F14004 		sub	r4, r6, #64
  39:libDaisy/src/dev/oled_ssd130x.h ****         i2c_.TransmitBlocking(i2c_address_, buf, 2, 1000);
 360              		.loc 13 39 17 view .LVU66
 361 0030 8DF80CA0 		strb	r10, [sp, #12]
ARM GAS  C:\Users\yaman\AppData\Local\Temp\ccCu6FW5.s 			page 27


  39:libDaisy/src/dev/oled_ssd130x.h ****         i2c_.TransmitBlocking(i2c_address_, buf, 2, 1000);
 362              		.loc 13 39 36 view .LVU67
 363 0034 8DF80D80 		strb	r8, [sp, #13]
  40:libDaisy/src/dev/oled_ssd130x.h ****     };
 364              		.loc 13 40 9 is_stmt 1 view .LVU68
  40:libDaisy/src/dev/oled_ssd130x.h ****     };
 365              		.loc 13 40 30 is_stmt 0 view .LVU69
 366 0038 FFF7FEFF 		bl	_ZN5daisy9I2CHandle16TransmitBlockingEtPhtm
 367              	.LVL17:
  40:libDaisy/src/dev/oled_ssd130x.h ****     };
 368              		.loc 13 40 30 view .LVU70
 369              	.LBE619:
 370              	.LBE620:
 371              	.LBB621:
 372              	.LBI621:
  37:libDaisy/src/dev/oled_ssd130x.h ****     {
 373              		.loc 13 37 10 is_stmt 1 view .LVU71
 374              	.LBB622:
  39:libDaisy/src/dev/oled_ssd130x.h ****         i2c_.TransmitBlocking(i2c_address_, buf, 2, 1000);
 375              		.loc 13 39 9 view .LVU72
  40:libDaisy/src/dev/oled_ssd130x.h ****     };
 376              		.loc 13 40 30 is_stmt 0 view .LVU73
 377 003c 297B     		ldrb	r1, [r5, #12]	@ zero_extendqisi2
 378 003e 0223     		movs	r3, #2
 379 0040 03AA     		add	r2, sp, #12
 380 0042 3846     		mov	r0, r7
 381 0044 CDF800B0 		str	fp, [sp]
  39:libDaisy/src/dev/oled_ssd130x.h ****         i2c_.TransmitBlocking(i2c_address_, buf, 2, 1000);
 382              		.loc 13 39 17 view .LVU74
 383 0048 8DF80CA0 		strb	r10, [sp, #12]
  39:libDaisy/src/dev/oled_ssd130x.h ****         i2c_.TransmitBlocking(i2c_address_, buf, 2, 1000);
 384              		.loc 13 39 36 view .LVU75
 385 004c 8DF80DA0 		strb	r10, [sp, #13]
  40:libDaisy/src/dev/oled_ssd130x.h ****     };
 386              		.loc 13 40 9 is_stmt 1 view .LVU76
  40:libDaisy/src/dev/oled_ssd130x.h ****     };
 387              		.loc 13 40 30 is_stmt 0 view .LVU77
 388 0050 FFF7FEFF 		bl	_ZN5daisy9I2CHandle16TransmitBlockingEtPhtm
 389              	.LVL18:
  40:libDaisy/src/dev/oled_ssd130x.h ****     };
 390              		.loc 13 40 30 view .LVU78
 391              	.LBE622:
 392              	.LBE621:
 393              	.LBB623:
 394              	.LBI623:
  37:libDaisy/src/dev/oled_ssd130x.h ****     {
 395              		.loc 13 37 10 is_stmt 1 view .LVU79
 396              	.LBB624:
  39:libDaisy/src/dev/oled_ssd130x.h ****         i2c_.TransmitBlocking(i2c_address_, buf, 2, 1000);
 397              		.loc 13 39 9 view .LVU80
  39:libDaisy/src/dev/oled_ssd130x.h ****         i2c_.TransmitBlocking(i2c_address_, buf, 2, 1000);
 398              		.loc 13 39 36 is_stmt 0 view .LVU81
 399 0054 1220     		movs	r0, #18
  40:libDaisy/src/dev/oled_ssd130x.h ****     };
 400              		.loc 13 40 30 view .LVU82
 401 0056 CDF800B0 		str	fp, [sp]
 402 005a 0223     		movs	r3, #2
ARM GAS  C:\Users\yaman\AppData\Local\Temp\ccCu6FW5.s 			page 28


 403 005c 03AA     		add	r2, sp, #12
  39:libDaisy/src/dev/oled_ssd130x.h ****         i2c_.TransmitBlocking(i2c_address_, buf, 2, 1000);
 404              		.loc 13 39 36 view .LVU83
 405 005e 8DF80D00 		strb	r0, [sp, #13]
  40:libDaisy/src/dev/oled_ssd130x.h ****     };
 406              		.loc 13 40 9 is_stmt 1 view .LVU84
  40:libDaisy/src/dev/oled_ssd130x.h ****     };
 407              		.loc 13 40 30 is_stmt 0 view .LVU85
 408 0062 3846     		mov	r0, r7
 409 0064 297B     		ldrb	r1, [r5, #12]	@ zero_extendqisi2
  39:libDaisy/src/dev/oled_ssd130x.h ****         i2c_.TransmitBlocking(i2c_address_, buf, 2, 1000);
 410              		.loc 13 39 17 view .LVU86
 411 0066 8DF80CA0 		strb	r10, [sp, #12]
  40:libDaisy/src/dev/oled_ssd130x.h ****     };
 412              		.loc 13 40 30 view .LVU87
 413 006a FFF7FEFF 		bl	_ZN5daisy9I2CHandle16TransmitBlockingEtPhtm
 414              	.LVL19:
  40:libDaisy/src/dev/oled_ssd130x.h ****     };
 415              		.loc 13 40 30 view .LVU88
 416              	.LBE624:
 417              	.LBE623:
 418              	.LBB625:
 419              	.LBI625:
  43:libDaisy/src/dev/oled_ssd130x.h ****     {
 420              		.loc 13 43 10 is_stmt 1 view .LVU89
 421              	.LBB626:
  45:libDaisy/src/dev/oled_ssd130x.h ****         {
 422              		.loc 13 45 29 view .LVU90
 423              	.L10:
 424              	.LBB627:
  47:libDaisy/src/dev/oled_ssd130x.h ****             i2c_.TransmitBlocking(i2c_address_, buf, 2, 1000);
 425              		.loc 13 47 13 view .LVU91
  48:libDaisy/src/dev/oled_ssd130x.h ****         }
 426              		.loc 13 48 34 is_stmt 0 view .LVU92
 427 006e 4FF47A70 		mov	r0, #1000
  47:libDaisy/src/dev/oled_ssd130x.h ****             i2c_.TransmitBlocking(i2c_address_, buf, 2, 1000);
 428              		.loc 13 47 44 view .LVU93
 429 0072 14F801CF 		ldrb	ip, [r4, #1]!	@ zero_extendqisi2
 430              	.LVL20:
  47:libDaisy/src/dev/oled_ssd130x.h ****             i2c_.TransmitBlocking(i2c_address_, buf, 2, 1000);
 431              		.loc 13 47 21 view .LVU94
 432 0076 4FF0400E 		mov	lr, #64
  48:libDaisy/src/dev/oled_ssd130x.h ****         }
 433              		.loc 13 48 34 view .LVU95
 434 007a 297B     		ldrb	r1, [r5, #12]	@ zero_extendqisi2
 435 007c 0223     		movs	r3, #2
 436 007e 0090     		str	r0, [sp]
 437 0080 03AA     		add	r2, sp, #12
 438 0082 3846     		mov	r0, r7
  47:libDaisy/src/dev/oled_ssd130x.h ****             i2c_.TransmitBlocking(i2c_address_, buf, 2, 1000);
 439              		.loc 13 47 21 view .LVU96
 440 0084 8DF80CE0 		strb	lr, [sp, #12]
  47:libDaisy/src/dev/oled_ssd130x.h ****             i2c_.TransmitBlocking(i2c_address_, buf, 2, 1000);
 441              		.loc 13 47 44 view .LVU97
 442 0088 8DF80DC0 		strb	ip, [sp, #13]
  48:libDaisy/src/dev/oled_ssd130x.h ****         }
 443              		.loc 13 48 13 is_stmt 1 view .LVU98
ARM GAS  C:\Users\yaman\AppData\Local\Temp\ccCu6FW5.s 			page 29


  48:libDaisy/src/dev/oled_ssd130x.h ****         }
 444              		.loc 13 48 34 is_stmt 0 view .LVU99
 445 008c FFF7FEFF 		bl	_ZN5daisy9I2CHandle16TransmitBlockingEtPhtm
 446              	.LVL21:
 447              	.LBE627:
  45:libDaisy/src/dev/oled_ssd130x.h ****         {
 448              		.loc 13 45 9 is_stmt 1 view .LVU100
  45:libDaisy/src/dev/oled_ssd130x.h ****         {
 449              		.loc 13 45 29 view .LVU101
 450 0090 B442     		cmp	r4, r6
 451 0092 ECD1     		bne	.L10
 452              	.LVL22:
  45:libDaisy/src/dev/oled_ssd130x.h ****         {
 453              		.loc 13 45 29 is_stmt 0 view .LVU102
 454              	.LBE626:
 455              	.LBE625:
 456              		.loc 13 270 9 is_stmt 1 view .LVU103
 457              		.loc 13 270 22 view .LVU104
 458 0094 04F14006 		add	r6, r4, #64
 459 0098 08F10108 		add	r8, r8, #1
 460              	.LVL23:
 461              		.loc 13 270 22 is_stmt 0 view .LVU105
 462 009c 4E45     		cmp	r6, r9
 463 009e 5FFA88F8 		uxtb	r8, r8
 464 00a2 B9D1     		bne	.L11
 465              	.LBE628:
 466              	.LBE629:
 467              		.loc 2 51 48 view .LVU106
 468 00a4 05B0     		add	sp, sp, #20
 469              		.cfi_def_cfa_offset 36
 470              		@ sp needed
 471 00a6 BDE8F08F 		pop	{r4, r5, r6, r7, r8, r9, r10, fp, pc}
 472              		.loc 2 51 48 view .LVU107
 473              		.cfi_endproc
 474              	.LFE5110:
 476 00aa 00BF     		.section	.text._Z13AudioCallbackPKPKfPPfj,"ax",%progbits
 477              		.align	1
 478              		.p2align 2,,3
 479              		.global	_Z13AudioCallbackPKPKfPPfj
 480              		.syntax unified
 481              		.thumb
 482              		.thumb_func
 483              		.fpu fpv5-d16
 485              	_Z13AudioCallbackPKPKfPPfj:
 486              	.LVL24:
 487              	.LFB4756:
 488              		.file 14 "examples/looper.cpp"
   1:examples/looper.cpp **** #include <atomic>
   2:examples/looper.cpp **** #include "daisysp.h"
   3:examples/looper.cpp **** #include "../src/kxmx_bluemchen.h"
   4:examples/looper.cpp **** #include <string>
   5:examples/looper.cpp **** #include <stdio.h>
   6:examples/looper.cpp **** 
   7:examples/looper.cpp **** #define MAX_SIZE_PER_CHANNEL 2880000 
   8:examples/looper.cpp **** 
   9:examples/looper.cpp **** using namespace daisysp;
  10:examples/looper.cpp **** using namespace daisy;
ARM GAS  C:\Users\yaman\AppData\Local\Temp\ccCu6FW5.s 			page 30


  11:examples/looper.cpp **** using namespace kxmx;
  12:examples/looper.cpp **** 
  13:examples/looper.cpp **** Bluemchen bluemchen;
  14:examples/looper.cpp **** 
  15:examples/looper.cpp **** enum LooperState { IDLE, ARM_REC, RECORDING, PLAYING };
  16:examples/looper.cpp **** 
  17:examples/looper.cpp **** class QuantizedLooper {
  18:examples/looper.cpp **** public:
  19:examples/looper.cpp ****     float* buffer;
  20:examples/looper.cpp ****     LooperState state;
  21:examples/looper.cpp ****     int pos, loop_len, mod_len;
  22:examples/looper.cpp ****     bool is_triggered_internal;
  23:examples/looper.cpp **** 
  24:examples/looper.cpp ****     // 
  25:examples/looper.cpp ****     int   slice_start;
  26:examples/looper.cpp ****     int   slice_len;
  27:examples/looper.cpp ****     int   slice_timer;
  28:examples/looper.cpp **** 
  29:examples/looper.cpp ****     void Init(float* buf_ptr) {
  30:examples/looper.cpp ****         buffer = buf_ptr;
  31:examples/looper.cpp ****         is_triggered_internal = false;
  32:examples/looper.cpp ****         slice_start = 0;
  33:examples/looper.cpp ****         slice_timer = 0;
  34:examples/looper.cpp ****         Reset();
  35:examples/looper.cpp ****     }
  36:examples/looper.cpp **** 
  37:examples/looper.cpp ****     void Reset() {
  38:examples/looper.cpp ****         state = IDLE;
  39:examples/looper.cpp ****         pos = 0; loop_len = 0;
  40:examples/looper.cpp ****         mod_len = MAX_SIZE_PER_CHANNEL;
  41:examples/looper.cpp ****         is_triggered_internal = false;
  42:examples/looper.cpp ****     }
  43:examples/looper.cpp **** 
  44:examples/looper.cpp ****     void Arm() { state = ARM_REC; }
  45:examples/looper.cpp **** 
  46:examples/looper.cpp ****     const char* GetStateStr() {
  47:examples/looper.cpp ****         switch (state) {
  48:examples/looper.cpp ****             case IDLE:      return "IDLE";
  49:examples/looper.cpp ****             case ARM_REC:   return "WAIT R";
  50:examples/looper.cpp ****             case RECORDING: return "REC...";
  51:examples/looper.cpp ****             case PLAYING:   return "LOOP";
  52:examples/looper.cpp ****             default:        return "ERR";
  53:examples/looper.cpp ****         }
  54:examples/looper.cpp ****     }
  55:examples/looper.cpp **** 
  56:examples/looper.cpp ****     float Process(float in, float cv_raw, float knob_val) {
  57:examples/looper.cpp ****         // --- 1.  ---
  58:examples/looper.cpp ****         bool edge = false;
  59:examples/looper.cpp ****         if (!is_triggered_internal && cv_raw > 0.8f) {
  60:examples/looper.cpp ****             is_triggered_internal = true;
  61:examples/looper.cpp ****             edge = true;
  62:examples/looper.cpp ****         } else if (is_triggered_internal && cv_raw < 0.6f) {
  63:examples/looper.cpp ****             is_triggered_internal = false;
  64:examples/looper.cpp ****         }
  65:examples/looper.cpp **** 
  66:examples/looper.cpp ****         // --- 2.  &  ---
  67:examples/looper.cpp ****         if (edge) {
ARM GAS  C:\Users\yaman\AppData\Local\Temp\ccCu6FW5.s 			page 31


  68:examples/looper.cpp ****             if (state == ARM_REC) {
  69:examples/looper.cpp ****                 state = RECORDING; pos = 0; loop_len = 0;
  70:examples/looper.cpp ****             } else if (state == RECORDING) {
  71:examples/looper.cpp ****                 state = PLAYING; mod_len = (pos > 0) ? pos : 1; pos = 0;
  72:examples/looper.cpp ****             } else if (state == PLAYING) {
  73:examples/looper.cpp ****                 // BPM
  74:examples/looper.cpp ****                 pos = 0;
  75:examples/looper.cpp ****                 slice_timer = 0; // 
  76:examples/looper.cpp ****             }
  77:examples/looper.cpp ****         }
  78:examples/looper.cpp **** 
  79:examples/looper.cpp ****         // --- 3.  ---
  80:examples/looper.cpp ****         if (state == IDLE || state == ARM_REC) return in;
  81:examples/looper.cpp **** 
  82:examples/looper.cpp ****         if (state == RECORDING) {
  83:examples/looper.cpp ****             if (pos < MAX_SIZE_PER_CHANNEL) {
  84:examples/looper.cpp ****                 buffer[pos] = in;
  85:examples/looper.cpp ****                 pos++;
  86:examples/looper.cpp ****             } else {
  87:examples/looper.cpp ****                 state = PLAYING; mod_len = MAX_SIZE_PER_CHANNEL; pos = 0;
  88:examples/looper.cpp ****             }
  89:examples/looper.cpp ****             return in;
  90:examples/looper.cpp ****         }
  91:examples/looper.cpp **** 
  92:examples/looper.cpp ****         if (state == PLAYING) {
  93:examples/looper.cpp ****             float out_sample = 0.0f;
  94:examples/looper.cpp **** 
  95:examples/looper.cpp ****             // --- 4.  ---
  96:examples/looper.cpp ****             if (knob_val < 0.05f) {
  97:examples/looper.cpp ****                 // 
  98:examples/looper.cpp ****                 out_sample = buffer[pos];
  99:examples/looper.cpp ****                 pos++;
 100:examples/looper.cpp ****                 if (pos >= mod_len) pos = 0;
 101:examples/looper.cpp ****             } else {
 102:examples/looper.cpp ****                 //  (232)
 103:examples/looper.cpp ****                 //  (2, 4, 8, 16, 32
 104:examples/looper.cpp ****                 int divisions = 2;
 105:examples/looper.cpp ****                 if (knob_val > 0.8f)      divisions = 32;
 106:examples/looper.cpp ****                 else if (knob_val > 0.6f) divisions = 16;
 107:examples/looper.cpp ****                 else if (knob_val > 0.4f) divisions = 8;
 108:examples/looper.cpp ****                 else if (knob_val > 0.2f) divisions = 4;
 109:examples/looper.cpp **** 
 110:examples/looper.cpp ****                 int current_slice_len = mod_len / divisions;
 111:examples/looper.cpp ****                 if (current_slice_len < 1) current_slice_len = 1;
 112:examples/looper.cpp **** 
 113:examples/looper.cpp ****                 // 
 114:examples/looper.cpp ****                 slice_timer++;
 115:examples/looper.cpp ****                 if (slice_timer >= current_slice_len) {
 116:examples/looper.cpp ****                     slice_timer = 0;
 117:examples/looper.cpp ****                     // 
 118:examples/looper.cpp ****                     int num_slices = divisions;
 119:examples/looper.cpp ****                     slice_start = (rand() % num_slices) * current_slice_len;
 120:examples/looper.cpp ****                 }
 121:examples/looper.cpp **** 
 122:examples/looper.cpp ****                 int read_pos = slice_start + slice_timer;
 123:examples/looper.cpp ****                 // 
 124:examples/looper.cpp ****                 if (read_pos >= mod_len) read_pos = 0; 
ARM GAS  C:\Users\yaman\AppData\Local\Temp\ccCu6FW5.s 			page 32


 125:examples/looper.cpp ****                 out_sample = buffer[read_pos];
 126:examples/looper.cpp **** 
 127:examples/looper.cpp ****                 // (pos)
 128:examples/looper.cpp ****                 pos++;
 129:examples/looper.cpp ****                 if (pos >= mod_len) pos = 0;
 130:examples/looper.cpp ****             }
 131:examples/looper.cpp ****             return out_sample;
 132:examples/looper.cpp ****         }
 133:examples/looper.cpp ****         return in;
 134:examples/looper.cpp ****     }
 135:examples/looper.cpp **** };
 136:examples/looper.cpp **** 
 137:examples/looper.cpp **** // ---  ---
 138:examples/looper.cpp **** float DSY_SDRAM_BSS buf_l[MAX_SIZE_PER_CHANNEL];
 139:examples/looper.cpp **** float DSY_SDRAM_BSS buf_r[MAX_SIZE_PER_CHANNEL];
 140:examples/looper.cpp **** QuantizedLooper looper_l, looper_r;
 141:examples/looper.cpp **** 
 142:examples/looper.cpp **** std::atomic<float> shared_cv_l{0.5f}, shared_cv_r{0.5f};
 143:examples/looper.cpp **** std::atomic<float> shared_knob_l{0.0f}, shared_knob_r{0.0f};
 144:examples/looper.cpp **** 
 145:examples/looper.cpp **** uint32_t last_oled_update = 0;
 146:examples/looper.cpp **** bool ignore_release = false;
 147:examples/looper.cpp **** 
 148:examples/looper.cpp **** void AudioCallback(AudioHandle::InputBuffer in, AudioHandle::OutputBuffer out, size_t size) {
 489              		.loc 14 148 93 is_stmt 1 view -0
 490              		.cfi_startproc
 491              		@ args = 0, pretend = 0, frame = 8
 492              		@ frame_needed = 0, uses_anonymous_args = 0
 149:examples/looper.cpp ****     float cl = shared_cv_l.load(std::memory_order_relaxed);
 493              		.loc 14 149 5 view .LVU109
 494              	.LBB671:
 495              	.LBI671:
 496              		.file 15 "c:\\users\\yaman\\downloads\\daisytoolchain-0.3.3\\daisytoolchain-0.3.3\\windows\\arm-no
   1:c:\users\yaman\downloads\daisytoolchain-0.3.3\daisytoolchain-0.3.3\windows\arm-none-eabi\include\c++\10.2.1\atomic **** // -*- C++ -*- header.
   2:c:\users\yaman\downloads\daisytoolchain-0.3.3\daisytoolchain-0.3.3\windows\arm-none-eabi\include\c++\10.2.1\atomic **** 
   3:c:\users\yaman\downloads\daisytoolchain-0.3.3\daisytoolchain-0.3.3\windows\arm-none-eabi\include\c++\10.2.1\atomic **** // Copyright (C) 2008-2020 Free Software Foundation, Inc.
   4:c:\users\yaman\downloads\daisytoolchain-0.3.3\daisytoolchain-0.3.3\windows\arm-none-eabi\include\c++\10.2.1\atomic **** //
   5:c:\users\yaman\downloads\daisytoolchain-0.3.3\daisytoolchain-0.3.3\windows\arm-none-eabi\include\c++\10.2.1\atomic **** // This file is part of the GNU ISO C++ Library.  This library is free
   6:c:\users\yaman\downloads\daisytoolchain-0.3.3\daisytoolchain-0.3.3\windows\arm-none-eabi\include\c++\10.2.1\atomic **** // software; you can redistribute it and/or modify it under the
   7:c:\users\yaman\downloads\daisytoolchain-0.3.3\daisytoolchain-0.3.3\windows\arm-none-eabi\include\c++\10.2.1\atomic **** // terms of the GNU General Public License as published by the
   8:c:\users\yaman\downloads\daisytoolchain-0.3.3\daisytoolchain-0.3.3\windows\arm-none-eabi\include\c++\10.2.1\atomic **** // Free Software Foundation; either version 3, or (at your option)
   9:c:\users\yaman\downloads\daisytoolchain-0.3.3\daisytoolchain-0.3.3\windows\arm-none-eabi\include\c++\10.2.1\atomic **** // any later version.
  10:c:\users\yaman\downloads\daisytoolchain-0.3.3\daisytoolchain-0.3.3\windows\arm-none-eabi\include\c++\10.2.1\atomic **** 
  11:c:\users\yaman\downloads\daisytoolchain-0.3.3\daisytoolchain-0.3.3\windows\arm-none-eabi\include\c++\10.2.1\atomic **** // This library is distributed in the hope that it will be useful,
  12:c:\users\yaman\downloads\daisytoolchain-0.3.3\daisytoolchain-0.3.3\windows\arm-none-eabi\include\c++\10.2.1\atomic **** // but WITHOUT ANY WARRANTY; without even the implied warranty of
  13:c:\users\yaman\downloads\daisytoolchain-0.3.3\daisytoolchain-0.3.3\windows\arm-none-eabi\include\c++\10.2.1\atomic **** // MERCHANTABILITY or FITNESS FOR A PARTICULAR PURPOSE.  See the
  14:c:\users\yaman\downloads\daisytoolchain-0.3.3\daisytoolchain-0.3.3\windows\arm-none-eabi\include\c++\10.2.1\atomic **** // GNU General Public License for more details.
  15:c:\users\yaman\downloads\daisytoolchain-0.3.3\daisytoolchain-0.3.3\windows\arm-none-eabi\include\c++\10.2.1\atomic **** 
  16:c:\users\yaman\downloads\daisytoolchain-0.3.3\daisytoolchain-0.3.3\windows\arm-none-eabi\include\c++\10.2.1\atomic **** // Under Section 7 of GPL version 3, you are granted additional
  17:c:\users\yaman\downloads\daisytoolchain-0.3.3\daisytoolchain-0.3.3\windows\arm-none-eabi\include\c++\10.2.1\atomic **** // permissions described in the GCC Runtime Library Exception, version
  18:c:\users\yaman\downloads\daisytoolchain-0.3.3\daisytoolchain-0.3.3\windows\arm-none-eabi\include\c++\10.2.1\atomic **** // 3.1, as published by the Free Software Foundation.
  19:c:\users\yaman\downloads\daisytoolchain-0.3.3\daisytoolchain-0.3.3\windows\arm-none-eabi\include\c++\10.2.1\atomic **** 
  20:c:\users\yaman\downloads\daisytoolchain-0.3.3\daisytoolchain-0.3.3\windows\arm-none-eabi\include\c++\10.2.1\atomic **** // You should have received a copy of the GNU General Public License and
  21:c:\users\yaman\downloads\daisytoolchain-0.3.3\daisytoolchain-0.3.3\windows\arm-none-eabi\include\c++\10.2.1\atomic **** // a copy of the GCC Runtime Library Exception along with this program;
  22:c:\users\yaman\downloads\daisytoolchain-0.3.3\daisytoolchain-0.3.3\windows\arm-none-eabi\include\c++\10.2.1\atomic **** // see the files COPYING3 and COPYING.RUNTIME respectively.  If not, see
  23:c:\users\yaman\downloads\daisytoolchain-0.3.3\daisytoolchain-0.3.3\windows\arm-none-eabi\include\c++\10.2.1\atomic **** // <http://www.gnu.org/licenses/>.
  24:c:\users\yaman\downloads\daisytoolchain-0.3.3\daisytoolchain-0.3.3\windows\arm-none-eabi\include\c++\10.2.1\atomic **** 
ARM GAS  C:\Users\yaman\AppData\Local\Temp\ccCu6FW5.s 			page 33


  25:c:\users\yaman\downloads\daisytoolchain-0.3.3\daisytoolchain-0.3.3\windows\arm-none-eabi\include\c++\10.2.1\atomic **** /** @file include/atomic
  26:c:\users\yaman\downloads\daisytoolchain-0.3.3\daisytoolchain-0.3.3\windows\arm-none-eabi\include\c++\10.2.1\atomic ****  *  This is a Standard C++ Library header.
  27:c:\users\yaman\downloads\daisytoolchain-0.3.3\daisytoolchain-0.3.3\windows\arm-none-eabi\include\c++\10.2.1\atomic ****  */
  28:c:\users\yaman\downloads\daisytoolchain-0.3.3\daisytoolchain-0.3.3\windows\arm-none-eabi\include\c++\10.2.1\atomic **** 
  29:c:\users\yaman\downloads\daisytoolchain-0.3.3\daisytoolchain-0.3.3\windows\arm-none-eabi\include\c++\10.2.1\atomic **** // Based on "C++ Atomic Types and Operations" by Hans Boehm and Lawrence Crowl.
  30:c:\users\yaman\downloads\daisytoolchain-0.3.3\daisytoolchain-0.3.3\windows\arm-none-eabi\include\c++\10.2.1\atomic **** // http://www.open-std.org/jtc1/sc22/wg21/docs/papers/2007/n2427.html
  31:c:\users\yaman\downloads\daisytoolchain-0.3.3\daisytoolchain-0.3.3\windows\arm-none-eabi\include\c++\10.2.1\atomic **** 
  32:c:\users\yaman\downloads\daisytoolchain-0.3.3\daisytoolchain-0.3.3\windows\arm-none-eabi\include\c++\10.2.1\atomic **** #ifndef _GLIBCXX_ATOMIC
  33:c:\users\yaman\downloads\daisytoolchain-0.3.3\daisytoolchain-0.3.3\windows\arm-none-eabi\include\c++\10.2.1\atomic **** #define _GLIBCXX_ATOMIC 1
  34:c:\users\yaman\downloads\daisytoolchain-0.3.3\daisytoolchain-0.3.3\windows\arm-none-eabi\include\c++\10.2.1\atomic **** 
  35:c:\users\yaman\downloads\daisytoolchain-0.3.3\daisytoolchain-0.3.3\windows\arm-none-eabi\include\c++\10.2.1\atomic **** #pragma GCC system_header
  36:c:\users\yaman\downloads\daisytoolchain-0.3.3\daisytoolchain-0.3.3\windows\arm-none-eabi\include\c++\10.2.1\atomic **** 
  37:c:\users\yaman\downloads\daisytoolchain-0.3.3\daisytoolchain-0.3.3\windows\arm-none-eabi\include\c++\10.2.1\atomic **** #if __cplusplus < 201103L
  38:c:\users\yaman\downloads\daisytoolchain-0.3.3\daisytoolchain-0.3.3\windows\arm-none-eabi\include\c++\10.2.1\atomic **** # include <bits/c++0x_warning.h>
  39:c:\users\yaman\downloads\daisytoolchain-0.3.3\daisytoolchain-0.3.3\windows\arm-none-eabi\include\c++\10.2.1\atomic **** #else
  40:c:\users\yaman\downloads\daisytoolchain-0.3.3\daisytoolchain-0.3.3\windows\arm-none-eabi\include\c++\10.2.1\atomic **** 
  41:c:\users\yaman\downloads\daisytoolchain-0.3.3\daisytoolchain-0.3.3\windows\arm-none-eabi\include\c++\10.2.1\atomic **** #include <bits/atomic_base.h>
  42:c:\users\yaman\downloads\daisytoolchain-0.3.3\daisytoolchain-0.3.3\windows\arm-none-eabi\include\c++\10.2.1\atomic **** 
  43:c:\users\yaman\downloads\daisytoolchain-0.3.3\daisytoolchain-0.3.3\windows\arm-none-eabi\include\c++\10.2.1\atomic **** namespace std _GLIBCXX_VISIBILITY(default)
  44:c:\users\yaman\downloads\daisytoolchain-0.3.3\daisytoolchain-0.3.3\windows\arm-none-eabi\include\c++\10.2.1\atomic **** {
  45:c:\users\yaman\downloads\daisytoolchain-0.3.3\daisytoolchain-0.3.3\windows\arm-none-eabi\include\c++\10.2.1\atomic **** _GLIBCXX_BEGIN_NAMESPACE_VERSION
  46:c:\users\yaman\downloads\daisytoolchain-0.3.3\daisytoolchain-0.3.3\windows\arm-none-eabi\include\c++\10.2.1\atomic **** 
  47:c:\users\yaman\downloads\daisytoolchain-0.3.3\daisytoolchain-0.3.3\windows\arm-none-eabi\include\c++\10.2.1\atomic ****   /**
  48:c:\users\yaman\downloads\daisytoolchain-0.3.3\daisytoolchain-0.3.3\windows\arm-none-eabi\include\c++\10.2.1\atomic ****    * @addtogroup atomics
  49:c:\users\yaman\downloads\daisytoolchain-0.3.3\daisytoolchain-0.3.3\windows\arm-none-eabi\include\c++\10.2.1\atomic ****    * @{
  50:c:\users\yaman\downloads\daisytoolchain-0.3.3\daisytoolchain-0.3.3\windows\arm-none-eabi\include\c++\10.2.1\atomic ****    */
  51:c:\users\yaman\downloads\daisytoolchain-0.3.3\daisytoolchain-0.3.3\windows\arm-none-eabi\include\c++\10.2.1\atomic **** 
  52:c:\users\yaman\downloads\daisytoolchain-0.3.3\daisytoolchain-0.3.3\windows\arm-none-eabi\include\c++\10.2.1\atomic **** #if __cplusplus >= 201703L
  53:c:\users\yaman\downloads\daisytoolchain-0.3.3\daisytoolchain-0.3.3\windows\arm-none-eabi\include\c++\10.2.1\atomic **** # define __cpp_lib_atomic_is_always_lock_free 201603
  54:c:\users\yaman\downloads\daisytoolchain-0.3.3\daisytoolchain-0.3.3\windows\arm-none-eabi\include\c++\10.2.1\atomic **** #endif
  55:c:\users\yaman\downloads\daisytoolchain-0.3.3\daisytoolchain-0.3.3\windows\arm-none-eabi\include\c++\10.2.1\atomic **** 
  56:c:\users\yaman\downloads\daisytoolchain-0.3.3\daisytoolchain-0.3.3\windows\arm-none-eabi\include\c++\10.2.1\atomic ****   template<typename _Tp>
  57:c:\users\yaman\downloads\daisytoolchain-0.3.3\daisytoolchain-0.3.3\windows\arm-none-eabi\include\c++\10.2.1\atomic ****     struct atomic;
  58:c:\users\yaman\downloads\daisytoolchain-0.3.3\daisytoolchain-0.3.3\windows\arm-none-eabi\include\c++\10.2.1\atomic **** 
  59:c:\users\yaman\downloads\daisytoolchain-0.3.3\daisytoolchain-0.3.3\windows\arm-none-eabi\include\c++\10.2.1\atomic ****   /// atomic<bool>
  60:c:\users\yaman\downloads\daisytoolchain-0.3.3\daisytoolchain-0.3.3\windows\arm-none-eabi\include\c++\10.2.1\atomic ****   // NB: No operators or fetch-operations for this type.
  61:c:\users\yaman\downloads\daisytoolchain-0.3.3\daisytoolchain-0.3.3\windows\arm-none-eabi\include\c++\10.2.1\atomic ****   template<>
  62:c:\users\yaman\downloads\daisytoolchain-0.3.3\daisytoolchain-0.3.3\windows\arm-none-eabi\include\c++\10.2.1\atomic ****   struct atomic<bool>
  63:c:\users\yaman\downloads\daisytoolchain-0.3.3\daisytoolchain-0.3.3\windows\arm-none-eabi\include\c++\10.2.1\atomic ****   {
  64:c:\users\yaman\downloads\daisytoolchain-0.3.3\daisytoolchain-0.3.3\windows\arm-none-eabi\include\c++\10.2.1\atomic ****     using value_type = bool;
  65:c:\users\yaman\downloads\daisytoolchain-0.3.3\daisytoolchain-0.3.3\windows\arm-none-eabi\include\c++\10.2.1\atomic **** 
  66:c:\users\yaman\downloads\daisytoolchain-0.3.3\daisytoolchain-0.3.3\windows\arm-none-eabi\include\c++\10.2.1\atomic ****   private:
  67:c:\users\yaman\downloads\daisytoolchain-0.3.3\daisytoolchain-0.3.3\windows\arm-none-eabi\include\c++\10.2.1\atomic ****     __atomic_base<bool>	_M_base;
  68:c:\users\yaman\downloads\daisytoolchain-0.3.3\daisytoolchain-0.3.3\windows\arm-none-eabi\include\c++\10.2.1\atomic **** 
  69:c:\users\yaman\downloads\daisytoolchain-0.3.3\daisytoolchain-0.3.3\windows\arm-none-eabi\include\c++\10.2.1\atomic ****   public:
  70:c:\users\yaman\downloads\daisytoolchain-0.3.3\daisytoolchain-0.3.3\windows\arm-none-eabi\include\c++\10.2.1\atomic ****     atomic() noexcept = default;
  71:c:\users\yaman\downloads\daisytoolchain-0.3.3\daisytoolchain-0.3.3\windows\arm-none-eabi\include\c++\10.2.1\atomic ****     ~atomic() noexcept = default;
  72:c:\users\yaman\downloads\daisytoolchain-0.3.3\daisytoolchain-0.3.3\windows\arm-none-eabi\include\c++\10.2.1\atomic ****     atomic(const atomic&) = delete;
  73:c:\users\yaman\downloads\daisytoolchain-0.3.3\daisytoolchain-0.3.3\windows\arm-none-eabi\include\c++\10.2.1\atomic ****     atomic& operator=(const atomic&) = delete;
  74:c:\users\yaman\downloads\daisytoolchain-0.3.3\daisytoolchain-0.3.3\windows\arm-none-eabi\include\c++\10.2.1\atomic ****     atomic& operator=(const atomic&) volatile = delete;
  75:c:\users\yaman\downloads\daisytoolchain-0.3.3\daisytoolchain-0.3.3\windows\arm-none-eabi\include\c++\10.2.1\atomic **** 
  76:c:\users\yaman\downloads\daisytoolchain-0.3.3\daisytoolchain-0.3.3\windows\arm-none-eabi\include\c++\10.2.1\atomic ****     constexpr atomic(bool __i) noexcept : _M_base(__i) { }
  77:c:\users\yaman\downloads\daisytoolchain-0.3.3\daisytoolchain-0.3.3\windows\arm-none-eabi\include\c++\10.2.1\atomic **** 
  78:c:\users\yaman\downloads\daisytoolchain-0.3.3\daisytoolchain-0.3.3\windows\arm-none-eabi\include\c++\10.2.1\atomic ****     bool
  79:c:\users\yaman\downloads\daisytoolchain-0.3.3\daisytoolchain-0.3.3\windows\arm-none-eabi\include\c++\10.2.1\atomic ****     operator=(bool __i) noexcept
  80:c:\users\yaman\downloads\daisytoolchain-0.3.3\daisytoolchain-0.3.3\windows\arm-none-eabi\include\c++\10.2.1\atomic ****     { return _M_base.operator=(__i); }
  81:c:\users\yaman\downloads\daisytoolchain-0.3.3\daisytoolchain-0.3.3\windows\arm-none-eabi\include\c++\10.2.1\atomic **** 
ARM GAS  C:\Users\yaman\AppData\Local\Temp\ccCu6FW5.s 			page 34


  82:c:\users\yaman\downloads\daisytoolchain-0.3.3\daisytoolchain-0.3.3\windows\arm-none-eabi\include\c++\10.2.1\atomic ****     bool
  83:c:\users\yaman\downloads\daisytoolchain-0.3.3\daisytoolchain-0.3.3\windows\arm-none-eabi\include\c++\10.2.1\atomic ****     operator=(bool __i) volatile noexcept
  84:c:\users\yaman\downloads\daisytoolchain-0.3.3\daisytoolchain-0.3.3\windows\arm-none-eabi\include\c++\10.2.1\atomic ****     { return _M_base.operator=(__i); }
  85:c:\users\yaman\downloads\daisytoolchain-0.3.3\daisytoolchain-0.3.3\windows\arm-none-eabi\include\c++\10.2.1\atomic **** 
  86:c:\users\yaman\downloads\daisytoolchain-0.3.3\daisytoolchain-0.3.3\windows\arm-none-eabi\include\c++\10.2.1\atomic ****     operator bool() const noexcept
  87:c:\users\yaman\downloads\daisytoolchain-0.3.3\daisytoolchain-0.3.3\windows\arm-none-eabi\include\c++\10.2.1\atomic ****     { return _M_base.load(); }
  88:c:\users\yaman\downloads\daisytoolchain-0.3.3\daisytoolchain-0.3.3\windows\arm-none-eabi\include\c++\10.2.1\atomic **** 
  89:c:\users\yaman\downloads\daisytoolchain-0.3.3\daisytoolchain-0.3.3\windows\arm-none-eabi\include\c++\10.2.1\atomic ****     operator bool() const volatile noexcept
  90:c:\users\yaman\downloads\daisytoolchain-0.3.3\daisytoolchain-0.3.3\windows\arm-none-eabi\include\c++\10.2.1\atomic ****     { return _M_base.load(); }
  91:c:\users\yaman\downloads\daisytoolchain-0.3.3\daisytoolchain-0.3.3\windows\arm-none-eabi\include\c++\10.2.1\atomic **** 
  92:c:\users\yaman\downloads\daisytoolchain-0.3.3\daisytoolchain-0.3.3\windows\arm-none-eabi\include\c++\10.2.1\atomic ****     bool
  93:c:\users\yaman\downloads\daisytoolchain-0.3.3\daisytoolchain-0.3.3\windows\arm-none-eabi\include\c++\10.2.1\atomic ****     is_lock_free() const noexcept { return _M_base.is_lock_free(); }
  94:c:\users\yaman\downloads\daisytoolchain-0.3.3\daisytoolchain-0.3.3\windows\arm-none-eabi\include\c++\10.2.1\atomic **** 
  95:c:\users\yaman\downloads\daisytoolchain-0.3.3\daisytoolchain-0.3.3\windows\arm-none-eabi\include\c++\10.2.1\atomic ****     bool
  96:c:\users\yaman\downloads\daisytoolchain-0.3.3\daisytoolchain-0.3.3\windows\arm-none-eabi\include\c++\10.2.1\atomic ****     is_lock_free() const volatile noexcept { return _M_base.is_lock_free(); }
  97:c:\users\yaman\downloads\daisytoolchain-0.3.3\daisytoolchain-0.3.3\windows\arm-none-eabi\include\c++\10.2.1\atomic **** 
  98:c:\users\yaman\downloads\daisytoolchain-0.3.3\daisytoolchain-0.3.3\windows\arm-none-eabi\include\c++\10.2.1\atomic **** #if __cplusplus >= 201703L
  99:c:\users\yaman\downloads\daisytoolchain-0.3.3\daisytoolchain-0.3.3\windows\arm-none-eabi\include\c++\10.2.1\atomic ****     static constexpr bool is_always_lock_free = ATOMIC_BOOL_LOCK_FREE == 2;
 100:c:\users\yaman\downloads\daisytoolchain-0.3.3\daisytoolchain-0.3.3\windows\arm-none-eabi\include\c++\10.2.1\atomic **** #endif
 101:c:\users\yaman\downloads\daisytoolchain-0.3.3\daisytoolchain-0.3.3\windows\arm-none-eabi\include\c++\10.2.1\atomic **** 
 102:c:\users\yaman\downloads\daisytoolchain-0.3.3\daisytoolchain-0.3.3\windows\arm-none-eabi\include\c++\10.2.1\atomic ****     void
 103:c:\users\yaman\downloads\daisytoolchain-0.3.3\daisytoolchain-0.3.3\windows\arm-none-eabi\include\c++\10.2.1\atomic ****     store(bool __i, memory_order __m = memory_order_seq_cst) noexcept
 104:c:\users\yaman\downloads\daisytoolchain-0.3.3\daisytoolchain-0.3.3\windows\arm-none-eabi\include\c++\10.2.1\atomic ****     { _M_base.store(__i, __m); }
 105:c:\users\yaman\downloads\daisytoolchain-0.3.3\daisytoolchain-0.3.3\windows\arm-none-eabi\include\c++\10.2.1\atomic **** 
 106:c:\users\yaman\downloads\daisytoolchain-0.3.3\daisytoolchain-0.3.3\windows\arm-none-eabi\include\c++\10.2.1\atomic ****     void
 107:c:\users\yaman\downloads\daisytoolchain-0.3.3\daisytoolchain-0.3.3\windows\arm-none-eabi\include\c++\10.2.1\atomic ****     store(bool __i, memory_order __m = memory_order_seq_cst) volatile noexcept
 108:c:\users\yaman\downloads\daisytoolchain-0.3.3\daisytoolchain-0.3.3\windows\arm-none-eabi\include\c++\10.2.1\atomic ****     { _M_base.store(__i, __m); }
 109:c:\users\yaman\downloads\daisytoolchain-0.3.3\daisytoolchain-0.3.3\windows\arm-none-eabi\include\c++\10.2.1\atomic **** 
 110:c:\users\yaman\downloads\daisytoolchain-0.3.3\daisytoolchain-0.3.3\windows\arm-none-eabi\include\c++\10.2.1\atomic ****     bool
 111:c:\users\yaman\downloads\daisytoolchain-0.3.3\daisytoolchain-0.3.3\windows\arm-none-eabi\include\c++\10.2.1\atomic ****     load(memory_order __m = memory_order_seq_cst) const noexcept
 112:c:\users\yaman\downloads\daisytoolchain-0.3.3\daisytoolchain-0.3.3\windows\arm-none-eabi\include\c++\10.2.1\atomic ****     { return _M_base.load(__m); }
 113:c:\users\yaman\downloads\daisytoolchain-0.3.3\daisytoolchain-0.3.3\windows\arm-none-eabi\include\c++\10.2.1\atomic **** 
 114:c:\users\yaman\downloads\daisytoolchain-0.3.3\daisytoolchain-0.3.3\windows\arm-none-eabi\include\c++\10.2.1\atomic ****     bool
 115:c:\users\yaman\downloads\daisytoolchain-0.3.3\daisytoolchain-0.3.3\windows\arm-none-eabi\include\c++\10.2.1\atomic ****     load(memory_order __m = memory_order_seq_cst) const volatile noexcept
 116:c:\users\yaman\downloads\daisytoolchain-0.3.3\daisytoolchain-0.3.3\windows\arm-none-eabi\include\c++\10.2.1\atomic ****     { return _M_base.load(__m); }
 117:c:\users\yaman\downloads\daisytoolchain-0.3.3\daisytoolchain-0.3.3\windows\arm-none-eabi\include\c++\10.2.1\atomic **** 
 118:c:\users\yaman\downloads\daisytoolchain-0.3.3\daisytoolchain-0.3.3\windows\arm-none-eabi\include\c++\10.2.1\atomic ****     bool
 119:c:\users\yaman\downloads\daisytoolchain-0.3.3\daisytoolchain-0.3.3\windows\arm-none-eabi\include\c++\10.2.1\atomic ****     exchange(bool __i, memory_order __m = memory_order_seq_cst) noexcept
 120:c:\users\yaman\downloads\daisytoolchain-0.3.3\daisytoolchain-0.3.3\windows\arm-none-eabi\include\c++\10.2.1\atomic ****     { return _M_base.exchange(__i, __m); }
 121:c:\users\yaman\downloads\daisytoolchain-0.3.3\daisytoolchain-0.3.3\windows\arm-none-eabi\include\c++\10.2.1\atomic **** 
 122:c:\users\yaman\downloads\daisytoolchain-0.3.3\daisytoolchain-0.3.3\windows\arm-none-eabi\include\c++\10.2.1\atomic ****     bool
 123:c:\users\yaman\downloads\daisytoolchain-0.3.3\daisytoolchain-0.3.3\windows\arm-none-eabi\include\c++\10.2.1\atomic ****     exchange(bool __i,
 124:c:\users\yaman\downloads\daisytoolchain-0.3.3\daisytoolchain-0.3.3\windows\arm-none-eabi\include\c++\10.2.1\atomic **** 	     memory_order __m = memory_order_seq_cst) volatile noexcept
 125:c:\users\yaman\downloads\daisytoolchain-0.3.3\daisytoolchain-0.3.3\windows\arm-none-eabi\include\c++\10.2.1\atomic ****     { return _M_base.exchange(__i, __m); }
 126:c:\users\yaman\downloads\daisytoolchain-0.3.3\daisytoolchain-0.3.3\windows\arm-none-eabi\include\c++\10.2.1\atomic **** 
 127:c:\users\yaman\downloads\daisytoolchain-0.3.3\daisytoolchain-0.3.3\windows\arm-none-eabi\include\c++\10.2.1\atomic ****     bool
 128:c:\users\yaman\downloads\daisytoolchain-0.3.3\daisytoolchain-0.3.3\windows\arm-none-eabi\include\c++\10.2.1\atomic ****     compare_exchange_weak(bool& __i1, bool __i2, memory_order __m1,
 129:c:\users\yaman\downloads\daisytoolchain-0.3.3\daisytoolchain-0.3.3\windows\arm-none-eabi\include\c++\10.2.1\atomic **** 			  memory_order __m2) noexcept
 130:c:\users\yaman\downloads\daisytoolchain-0.3.3\daisytoolchain-0.3.3\windows\arm-none-eabi\include\c++\10.2.1\atomic ****     { return _M_base.compare_exchange_weak(__i1, __i2, __m1, __m2); }
 131:c:\users\yaman\downloads\daisytoolchain-0.3.3\daisytoolchain-0.3.3\windows\arm-none-eabi\include\c++\10.2.1\atomic **** 
 132:c:\users\yaman\downloads\daisytoolchain-0.3.3\daisytoolchain-0.3.3\windows\arm-none-eabi\include\c++\10.2.1\atomic ****     bool
 133:c:\users\yaman\downloads\daisytoolchain-0.3.3\daisytoolchain-0.3.3\windows\arm-none-eabi\include\c++\10.2.1\atomic ****     compare_exchange_weak(bool& __i1, bool __i2, memory_order __m1,
 134:c:\users\yaman\downloads\daisytoolchain-0.3.3\daisytoolchain-0.3.3\windows\arm-none-eabi\include\c++\10.2.1\atomic **** 			  memory_order __m2) volatile noexcept
 135:c:\users\yaman\downloads\daisytoolchain-0.3.3\daisytoolchain-0.3.3\windows\arm-none-eabi\include\c++\10.2.1\atomic ****     { return _M_base.compare_exchange_weak(__i1, __i2, __m1, __m2); }
 136:c:\users\yaman\downloads\daisytoolchain-0.3.3\daisytoolchain-0.3.3\windows\arm-none-eabi\include\c++\10.2.1\atomic **** 
 137:c:\users\yaman\downloads\daisytoolchain-0.3.3\daisytoolchain-0.3.3\windows\arm-none-eabi\include\c++\10.2.1\atomic ****     bool
 138:c:\users\yaman\downloads\daisytoolchain-0.3.3\daisytoolchain-0.3.3\windows\arm-none-eabi\include\c++\10.2.1\atomic ****     compare_exchange_weak(bool& __i1, bool __i2,
ARM GAS  C:\Users\yaman\AppData\Local\Temp\ccCu6FW5.s 			page 35


 139:c:\users\yaman\downloads\daisytoolchain-0.3.3\daisytoolchain-0.3.3\windows\arm-none-eabi\include\c++\10.2.1\atomic **** 			  memory_order __m = memory_order_seq_cst) noexcept
 140:c:\users\yaman\downloads\daisytoolchain-0.3.3\daisytoolchain-0.3.3\windows\arm-none-eabi\include\c++\10.2.1\atomic ****     { return _M_base.compare_exchange_weak(__i1, __i2, __m); }
 141:c:\users\yaman\downloads\daisytoolchain-0.3.3\daisytoolchain-0.3.3\windows\arm-none-eabi\include\c++\10.2.1\atomic **** 
 142:c:\users\yaman\downloads\daisytoolchain-0.3.3\daisytoolchain-0.3.3\windows\arm-none-eabi\include\c++\10.2.1\atomic ****     bool
 143:c:\users\yaman\downloads\daisytoolchain-0.3.3\daisytoolchain-0.3.3\windows\arm-none-eabi\include\c++\10.2.1\atomic ****     compare_exchange_weak(bool& __i1, bool __i2,
 144:c:\users\yaman\downloads\daisytoolchain-0.3.3\daisytoolchain-0.3.3\windows\arm-none-eabi\include\c++\10.2.1\atomic **** 		     memory_order __m = memory_order_seq_cst) volatile noexcept
 145:c:\users\yaman\downloads\daisytoolchain-0.3.3\daisytoolchain-0.3.3\windows\arm-none-eabi\include\c++\10.2.1\atomic ****     { return _M_base.compare_exchange_weak(__i1, __i2, __m); }
 146:c:\users\yaman\downloads\daisytoolchain-0.3.3\daisytoolchain-0.3.3\windows\arm-none-eabi\include\c++\10.2.1\atomic **** 
 147:c:\users\yaman\downloads\daisytoolchain-0.3.3\daisytoolchain-0.3.3\windows\arm-none-eabi\include\c++\10.2.1\atomic ****     bool
 148:c:\users\yaman\downloads\daisytoolchain-0.3.3\daisytoolchain-0.3.3\windows\arm-none-eabi\include\c++\10.2.1\atomic ****     compare_exchange_strong(bool& __i1, bool __i2, memory_order __m1,
 149:c:\users\yaman\downloads\daisytoolchain-0.3.3\daisytoolchain-0.3.3\windows\arm-none-eabi\include\c++\10.2.1\atomic **** 			    memory_order __m2) noexcept
 150:c:\users\yaman\downloads\daisytoolchain-0.3.3\daisytoolchain-0.3.3\windows\arm-none-eabi\include\c++\10.2.1\atomic ****     { return _M_base.compare_exchange_strong(__i1, __i2, __m1, __m2); }
 151:c:\users\yaman\downloads\daisytoolchain-0.3.3\daisytoolchain-0.3.3\windows\arm-none-eabi\include\c++\10.2.1\atomic **** 
 152:c:\users\yaman\downloads\daisytoolchain-0.3.3\daisytoolchain-0.3.3\windows\arm-none-eabi\include\c++\10.2.1\atomic ****     bool
 153:c:\users\yaman\downloads\daisytoolchain-0.3.3\daisytoolchain-0.3.3\windows\arm-none-eabi\include\c++\10.2.1\atomic ****     compare_exchange_strong(bool& __i1, bool __i2, memory_order __m1,
 154:c:\users\yaman\downloads\daisytoolchain-0.3.3\daisytoolchain-0.3.3\windows\arm-none-eabi\include\c++\10.2.1\atomic **** 			    memory_order __m2) volatile noexcept
 155:c:\users\yaman\downloads\daisytoolchain-0.3.3\daisytoolchain-0.3.3\windows\arm-none-eabi\include\c++\10.2.1\atomic ****     { return _M_base.compare_exchange_strong(__i1, __i2, __m1, __m2); }
 156:c:\users\yaman\downloads\daisytoolchain-0.3.3\daisytoolchain-0.3.3\windows\arm-none-eabi\include\c++\10.2.1\atomic **** 
 157:c:\users\yaman\downloads\daisytoolchain-0.3.3\daisytoolchain-0.3.3\windows\arm-none-eabi\include\c++\10.2.1\atomic ****     bool
 158:c:\users\yaman\downloads\daisytoolchain-0.3.3\daisytoolchain-0.3.3\windows\arm-none-eabi\include\c++\10.2.1\atomic ****     compare_exchange_strong(bool& __i1, bool __i2,
 159:c:\users\yaman\downloads\daisytoolchain-0.3.3\daisytoolchain-0.3.3\windows\arm-none-eabi\include\c++\10.2.1\atomic **** 			    memory_order __m = memory_order_seq_cst) noexcept
 160:c:\users\yaman\downloads\daisytoolchain-0.3.3\daisytoolchain-0.3.3\windows\arm-none-eabi\include\c++\10.2.1\atomic ****     { return _M_base.compare_exchange_strong(__i1, __i2, __m); }
 161:c:\users\yaman\downloads\daisytoolchain-0.3.3\daisytoolchain-0.3.3\windows\arm-none-eabi\include\c++\10.2.1\atomic **** 
 162:c:\users\yaman\downloads\daisytoolchain-0.3.3\daisytoolchain-0.3.3\windows\arm-none-eabi\include\c++\10.2.1\atomic ****     bool
 163:c:\users\yaman\downloads\daisytoolchain-0.3.3\daisytoolchain-0.3.3\windows\arm-none-eabi\include\c++\10.2.1\atomic ****     compare_exchange_strong(bool& __i1, bool __i2,
 164:c:\users\yaman\downloads\daisytoolchain-0.3.3\daisytoolchain-0.3.3\windows\arm-none-eabi\include\c++\10.2.1\atomic **** 		    memory_order __m = memory_order_seq_cst) volatile noexcept
 165:c:\users\yaman\downloads\daisytoolchain-0.3.3\daisytoolchain-0.3.3\windows\arm-none-eabi\include\c++\10.2.1\atomic ****     { return _M_base.compare_exchange_strong(__i1, __i2, __m); }
 166:c:\users\yaman\downloads\daisytoolchain-0.3.3\daisytoolchain-0.3.3\windows\arm-none-eabi\include\c++\10.2.1\atomic ****   };
 167:c:\users\yaman\downloads\daisytoolchain-0.3.3\daisytoolchain-0.3.3\windows\arm-none-eabi\include\c++\10.2.1\atomic **** 
 168:c:\users\yaman\downloads\daisytoolchain-0.3.3\daisytoolchain-0.3.3\windows\arm-none-eabi\include\c++\10.2.1\atomic **** #if __cplusplus <= 201703L
 169:c:\users\yaman\downloads\daisytoolchain-0.3.3\daisytoolchain-0.3.3\windows\arm-none-eabi\include\c++\10.2.1\atomic **** # define _GLIBCXX20_INIT(I)
 170:c:\users\yaman\downloads\daisytoolchain-0.3.3\daisytoolchain-0.3.3\windows\arm-none-eabi\include\c++\10.2.1\atomic **** #else
 171:c:\users\yaman\downloads\daisytoolchain-0.3.3\daisytoolchain-0.3.3\windows\arm-none-eabi\include\c++\10.2.1\atomic **** # define _GLIBCXX20_INIT(I) = I
 172:c:\users\yaman\downloads\daisytoolchain-0.3.3\daisytoolchain-0.3.3\windows\arm-none-eabi\include\c++\10.2.1\atomic **** #endif
 173:c:\users\yaman\downloads\daisytoolchain-0.3.3\daisytoolchain-0.3.3\windows\arm-none-eabi\include\c++\10.2.1\atomic **** 
 174:c:\users\yaman\downloads\daisytoolchain-0.3.3\daisytoolchain-0.3.3\windows\arm-none-eabi\include\c++\10.2.1\atomic ****   /**
 175:c:\users\yaman\downloads\daisytoolchain-0.3.3\daisytoolchain-0.3.3\windows\arm-none-eabi\include\c++\10.2.1\atomic ****    *  @brief Generic atomic type, primary class template.
 176:c:\users\yaman\downloads\daisytoolchain-0.3.3\daisytoolchain-0.3.3\windows\arm-none-eabi\include\c++\10.2.1\atomic ****    *
 177:c:\users\yaman\downloads\daisytoolchain-0.3.3\daisytoolchain-0.3.3\windows\arm-none-eabi\include\c++\10.2.1\atomic ****    *  @tparam _Tp  Type to be made atomic, must be trivially copyable.
 178:c:\users\yaman\downloads\daisytoolchain-0.3.3\daisytoolchain-0.3.3\windows\arm-none-eabi\include\c++\10.2.1\atomic ****    */
 179:c:\users\yaman\downloads\daisytoolchain-0.3.3\daisytoolchain-0.3.3\windows\arm-none-eabi\include\c++\10.2.1\atomic ****   template<typename _Tp>
 180:c:\users\yaman\downloads\daisytoolchain-0.3.3\daisytoolchain-0.3.3\windows\arm-none-eabi\include\c++\10.2.1\atomic ****     struct atomic
 181:c:\users\yaman\downloads\daisytoolchain-0.3.3\daisytoolchain-0.3.3\windows\arm-none-eabi\include\c++\10.2.1\atomic ****     {
 182:c:\users\yaman\downloads\daisytoolchain-0.3.3\daisytoolchain-0.3.3\windows\arm-none-eabi\include\c++\10.2.1\atomic ****       using value_type = _Tp;
 183:c:\users\yaman\downloads\daisytoolchain-0.3.3\daisytoolchain-0.3.3\windows\arm-none-eabi\include\c++\10.2.1\atomic **** 
 184:c:\users\yaman\downloads\daisytoolchain-0.3.3\daisytoolchain-0.3.3\windows\arm-none-eabi\include\c++\10.2.1\atomic ****     private:
 185:c:\users\yaman\downloads\daisytoolchain-0.3.3\daisytoolchain-0.3.3\windows\arm-none-eabi\include\c++\10.2.1\atomic ****       // Align 1/2/4/8/16-byte types to at least their size.
 186:c:\users\yaman\downloads\daisytoolchain-0.3.3\daisytoolchain-0.3.3\windows\arm-none-eabi\include\c++\10.2.1\atomic ****       static constexpr int _S_min_alignment
 187:c:\users\yaman\downloads\daisytoolchain-0.3.3\daisytoolchain-0.3.3\windows\arm-none-eabi\include\c++\10.2.1\atomic **** 	= (sizeof(_Tp) & (sizeof(_Tp) - 1)) || sizeof(_Tp) > 16
 188:c:\users\yaman\downloads\daisytoolchain-0.3.3\daisytoolchain-0.3.3\windows\arm-none-eabi\include\c++\10.2.1\atomic **** 	? 0 : sizeof(_Tp);
 189:c:\users\yaman\downloads\daisytoolchain-0.3.3\daisytoolchain-0.3.3\windows\arm-none-eabi\include\c++\10.2.1\atomic **** 
 190:c:\users\yaman\downloads\daisytoolchain-0.3.3\daisytoolchain-0.3.3\windows\arm-none-eabi\include\c++\10.2.1\atomic ****       static constexpr int _S_alignment
 191:c:\users\yaman\downloads\daisytoolchain-0.3.3\daisytoolchain-0.3.3\windows\arm-none-eabi\include\c++\10.2.1\atomic ****         = _S_min_alignment > alignof(_Tp) ? _S_min_alignment : alignof(_Tp);
 192:c:\users\yaman\downloads\daisytoolchain-0.3.3\daisytoolchain-0.3.3\windows\arm-none-eabi\include\c++\10.2.1\atomic **** 
 193:c:\users\yaman\downloads\daisytoolchain-0.3.3\daisytoolchain-0.3.3\windows\arm-none-eabi\include\c++\10.2.1\atomic ****       alignas(_S_alignment) _Tp _M_i _GLIBCXX20_INIT(_Tp());
 194:c:\users\yaman\downloads\daisytoolchain-0.3.3\daisytoolchain-0.3.3\windows\arm-none-eabi\include\c++\10.2.1\atomic **** 
 195:c:\users\yaman\downloads\daisytoolchain-0.3.3\daisytoolchain-0.3.3\windows\arm-none-eabi\include\c++\10.2.1\atomic ****       static_assert(__is_trivially_copyable(_Tp),
ARM GAS  C:\Users\yaman\AppData\Local\Temp\ccCu6FW5.s 			page 36


 196:c:\users\yaman\downloads\daisytoolchain-0.3.3\daisytoolchain-0.3.3\windows\arm-none-eabi\include\c++\10.2.1\atomic **** 		    "std::atomic requires a trivially copyable type");
 197:c:\users\yaman\downloads\daisytoolchain-0.3.3\daisytoolchain-0.3.3\windows\arm-none-eabi\include\c++\10.2.1\atomic **** 
 198:c:\users\yaman\downloads\daisytoolchain-0.3.3\daisytoolchain-0.3.3\windows\arm-none-eabi\include\c++\10.2.1\atomic ****       static_assert(sizeof(_Tp) > 0,
 199:c:\users\yaman\downloads\daisytoolchain-0.3.3\daisytoolchain-0.3.3\windows\arm-none-eabi\include\c++\10.2.1\atomic **** 		    "Incomplete or zero-sized types are not supported");
 200:c:\users\yaman\downloads\daisytoolchain-0.3.3\daisytoolchain-0.3.3\windows\arm-none-eabi\include\c++\10.2.1\atomic **** 
 201:c:\users\yaman\downloads\daisytoolchain-0.3.3\daisytoolchain-0.3.3\windows\arm-none-eabi\include\c++\10.2.1\atomic ****     public:
 202:c:\users\yaman\downloads\daisytoolchain-0.3.3\daisytoolchain-0.3.3\windows\arm-none-eabi\include\c++\10.2.1\atomic ****       atomic() = default;
 203:c:\users\yaman\downloads\daisytoolchain-0.3.3\daisytoolchain-0.3.3\windows\arm-none-eabi\include\c++\10.2.1\atomic ****       ~atomic() noexcept = default;
 204:c:\users\yaman\downloads\daisytoolchain-0.3.3\daisytoolchain-0.3.3\windows\arm-none-eabi\include\c++\10.2.1\atomic ****       atomic(const atomic&) = delete;
 205:c:\users\yaman\downloads\daisytoolchain-0.3.3\daisytoolchain-0.3.3\windows\arm-none-eabi\include\c++\10.2.1\atomic ****       atomic& operator=(const atomic&) = delete;
 206:c:\users\yaman\downloads\daisytoolchain-0.3.3\daisytoolchain-0.3.3\windows\arm-none-eabi\include\c++\10.2.1\atomic ****       atomic& operator=(const atomic&) volatile = delete;
 207:c:\users\yaman\downloads\daisytoolchain-0.3.3\daisytoolchain-0.3.3\windows\arm-none-eabi\include\c++\10.2.1\atomic **** 
 208:c:\users\yaman\downloads\daisytoolchain-0.3.3\daisytoolchain-0.3.3\windows\arm-none-eabi\include\c++\10.2.1\atomic ****       constexpr atomic(_Tp __i) noexcept : _M_i(__i) { }
 209:c:\users\yaman\downloads\daisytoolchain-0.3.3\daisytoolchain-0.3.3\windows\arm-none-eabi\include\c++\10.2.1\atomic **** 
 210:c:\users\yaman\downloads\daisytoolchain-0.3.3\daisytoolchain-0.3.3\windows\arm-none-eabi\include\c++\10.2.1\atomic ****       operator _Tp() const noexcept
 211:c:\users\yaman\downloads\daisytoolchain-0.3.3\daisytoolchain-0.3.3\windows\arm-none-eabi\include\c++\10.2.1\atomic ****       { return load(); }
 212:c:\users\yaman\downloads\daisytoolchain-0.3.3\daisytoolchain-0.3.3\windows\arm-none-eabi\include\c++\10.2.1\atomic **** 
 213:c:\users\yaman\downloads\daisytoolchain-0.3.3\daisytoolchain-0.3.3\windows\arm-none-eabi\include\c++\10.2.1\atomic ****       operator _Tp() const volatile noexcept
 214:c:\users\yaman\downloads\daisytoolchain-0.3.3\daisytoolchain-0.3.3\windows\arm-none-eabi\include\c++\10.2.1\atomic ****       { return load(); }
 215:c:\users\yaman\downloads\daisytoolchain-0.3.3\daisytoolchain-0.3.3\windows\arm-none-eabi\include\c++\10.2.1\atomic **** 
 216:c:\users\yaman\downloads\daisytoolchain-0.3.3\daisytoolchain-0.3.3\windows\arm-none-eabi\include\c++\10.2.1\atomic ****       _Tp
 217:c:\users\yaman\downloads\daisytoolchain-0.3.3\daisytoolchain-0.3.3\windows\arm-none-eabi\include\c++\10.2.1\atomic ****       operator=(_Tp __i) noexcept
 218:c:\users\yaman\downloads\daisytoolchain-0.3.3\daisytoolchain-0.3.3\windows\arm-none-eabi\include\c++\10.2.1\atomic ****       { store(__i); return __i; }
 219:c:\users\yaman\downloads\daisytoolchain-0.3.3\daisytoolchain-0.3.3\windows\arm-none-eabi\include\c++\10.2.1\atomic **** 
 220:c:\users\yaman\downloads\daisytoolchain-0.3.3\daisytoolchain-0.3.3\windows\arm-none-eabi\include\c++\10.2.1\atomic ****       _Tp
 221:c:\users\yaman\downloads\daisytoolchain-0.3.3\daisytoolchain-0.3.3\windows\arm-none-eabi\include\c++\10.2.1\atomic ****       operator=(_Tp __i) volatile noexcept
 222:c:\users\yaman\downloads\daisytoolchain-0.3.3\daisytoolchain-0.3.3\windows\arm-none-eabi\include\c++\10.2.1\atomic ****       { store(__i); return __i; }
 223:c:\users\yaman\downloads\daisytoolchain-0.3.3\daisytoolchain-0.3.3\windows\arm-none-eabi\include\c++\10.2.1\atomic **** 
 224:c:\users\yaman\downloads\daisytoolchain-0.3.3\daisytoolchain-0.3.3\windows\arm-none-eabi\include\c++\10.2.1\atomic ****       bool
 225:c:\users\yaman\downloads\daisytoolchain-0.3.3\daisytoolchain-0.3.3\windows\arm-none-eabi\include\c++\10.2.1\atomic ****       is_lock_free() const noexcept
 226:c:\users\yaman\downloads\daisytoolchain-0.3.3\daisytoolchain-0.3.3\windows\arm-none-eabi\include\c++\10.2.1\atomic ****       {
 227:c:\users\yaman\downloads\daisytoolchain-0.3.3\daisytoolchain-0.3.3\windows\arm-none-eabi\include\c++\10.2.1\atomic **** 	// Produce a fake, minimally aligned pointer.
 228:c:\users\yaman\downloads\daisytoolchain-0.3.3\daisytoolchain-0.3.3\windows\arm-none-eabi\include\c++\10.2.1\atomic **** 	return __atomic_is_lock_free(sizeof(_M_i),
 229:c:\users\yaman\downloads\daisytoolchain-0.3.3\daisytoolchain-0.3.3\windows\arm-none-eabi\include\c++\10.2.1\atomic **** 	    reinterpret_cast<void *>(-_S_alignment));
 230:c:\users\yaman\downloads\daisytoolchain-0.3.3\daisytoolchain-0.3.3\windows\arm-none-eabi\include\c++\10.2.1\atomic ****       }
 231:c:\users\yaman\downloads\daisytoolchain-0.3.3\daisytoolchain-0.3.3\windows\arm-none-eabi\include\c++\10.2.1\atomic **** 
 232:c:\users\yaman\downloads\daisytoolchain-0.3.3\daisytoolchain-0.3.3\windows\arm-none-eabi\include\c++\10.2.1\atomic ****       bool
 233:c:\users\yaman\downloads\daisytoolchain-0.3.3\daisytoolchain-0.3.3\windows\arm-none-eabi\include\c++\10.2.1\atomic ****       is_lock_free() const volatile noexcept
 234:c:\users\yaman\downloads\daisytoolchain-0.3.3\daisytoolchain-0.3.3\windows\arm-none-eabi\include\c++\10.2.1\atomic ****       {
 235:c:\users\yaman\downloads\daisytoolchain-0.3.3\daisytoolchain-0.3.3\windows\arm-none-eabi\include\c++\10.2.1\atomic **** 	// Produce a fake, minimally aligned pointer.
 236:c:\users\yaman\downloads\daisytoolchain-0.3.3\daisytoolchain-0.3.3\windows\arm-none-eabi\include\c++\10.2.1\atomic **** 	return __atomic_is_lock_free(sizeof(_M_i),
 237:c:\users\yaman\downloads\daisytoolchain-0.3.3\daisytoolchain-0.3.3\windows\arm-none-eabi\include\c++\10.2.1\atomic **** 	    reinterpret_cast<void *>(-_S_alignment));
 238:c:\users\yaman\downloads\daisytoolchain-0.3.3\daisytoolchain-0.3.3\windows\arm-none-eabi\include\c++\10.2.1\atomic ****       }
 239:c:\users\yaman\downloads\daisytoolchain-0.3.3\daisytoolchain-0.3.3\windows\arm-none-eabi\include\c++\10.2.1\atomic **** 
 240:c:\users\yaman\downloads\daisytoolchain-0.3.3\daisytoolchain-0.3.3\windows\arm-none-eabi\include\c++\10.2.1\atomic **** #if __cplusplus >= 201703L
 241:c:\users\yaman\downloads\daisytoolchain-0.3.3\daisytoolchain-0.3.3\windows\arm-none-eabi\include\c++\10.2.1\atomic ****       static constexpr bool is_always_lock_free
 242:c:\users\yaman\downloads\daisytoolchain-0.3.3\daisytoolchain-0.3.3\windows\arm-none-eabi\include\c++\10.2.1\atomic **** 	= __atomic_always_lock_free(sizeof(_M_i), 0);
 243:c:\users\yaman\downloads\daisytoolchain-0.3.3\daisytoolchain-0.3.3\windows\arm-none-eabi\include\c++\10.2.1\atomic **** #endif
 244:c:\users\yaman\downloads\daisytoolchain-0.3.3\daisytoolchain-0.3.3\windows\arm-none-eabi\include\c++\10.2.1\atomic **** 
 245:c:\users\yaman\downloads\daisytoolchain-0.3.3\daisytoolchain-0.3.3\windows\arm-none-eabi\include\c++\10.2.1\atomic ****       void
 246:c:\users\yaman\downloads\daisytoolchain-0.3.3\daisytoolchain-0.3.3\windows\arm-none-eabi\include\c++\10.2.1\atomic ****       store(_Tp __i, memory_order __m = memory_order_seq_cst) noexcept
 247:c:\users\yaman\downloads\daisytoolchain-0.3.3\daisytoolchain-0.3.3\windows\arm-none-eabi\include\c++\10.2.1\atomic ****       { __atomic_store(std::__addressof(_M_i), std::__addressof(__i), int(__m)); }
 248:c:\users\yaman\downloads\daisytoolchain-0.3.3\daisytoolchain-0.3.3\windows\arm-none-eabi\include\c++\10.2.1\atomic **** 
 249:c:\users\yaman\downloads\daisytoolchain-0.3.3\daisytoolchain-0.3.3\windows\arm-none-eabi\include\c++\10.2.1\atomic ****       void
 250:c:\users\yaman\downloads\daisytoolchain-0.3.3\daisytoolchain-0.3.3\windows\arm-none-eabi\include\c++\10.2.1\atomic ****       store(_Tp __i, memory_order __m = memory_order_seq_cst) volatile noexcept
 251:c:\users\yaman\downloads\daisytoolchain-0.3.3\daisytoolchain-0.3.3\windows\arm-none-eabi\include\c++\10.2.1\atomic ****       { __atomic_store(std::__addressof(_M_i), std::__addressof(__i), int(__m)); }
 252:c:\users\yaman\downloads\daisytoolchain-0.3.3\daisytoolchain-0.3.3\windows\arm-none-eabi\include\c++\10.2.1\atomic **** 
ARM GAS  C:\Users\yaman\AppData\Local\Temp\ccCu6FW5.s 			page 37


 253:c:\users\yaman\downloads\daisytoolchain-0.3.3\daisytoolchain-0.3.3\windows\arm-none-eabi\include\c++\10.2.1\atomic ****       _Tp
 254:c:\users\yaman\downloads\daisytoolchain-0.3.3\daisytoolchain-0.3.3\windows\arm-none-eabi\include\c++\10.2.1\atomic ****       load(memory_order __m = memory_order_seq_cst) const noexcept
 497              		.loc 15 254 7 view .LVU110
 498              		.loc 15 254 7 is_stmt 0 view .LVU111
 499              	.LBE671:
 148:examples/looper.cpp ****     float cl = shared_cv_l.load(std::memory_order_relaxed);
 500              		.loc 14 148 93 view .LVU112
 501 0000 2DE9F04F 		push	{r4, r5, r6, r7, r8, r9, r10, fp, lr}
 502              		.cfi_def_cfa_offset 36
 503              		.cfi_offset 4, -36
 504              		.cfi_offset 5, -32
 505              		.cfi_offset 6, -28
 506              		.cfi_offset 7, -24
 507              		.cfi_offset 8, -20
 508              		.cfi_offset 9, -16
 509              		.cfi_offset 10, -12
 510              		.cfi_offset 11, -8
 511              		.cfi_offset 14, -4
 512              	.LBB674:
 513              	.LBB675:
 255:c:\users\yaman\downloads\daisytoolchain-0.3.3\daisytoolchain-0.3.3\windows\arm-none-eabi\include\c++\10.2.1\atomic ****       {
 256:c:\users\yaman\downloads\daisytoolchain-0.3.3\daisytoolchain-0.3.3\windows\arm-none-eabi\include\c++\10.2.1\atomic **** 	alignas(_Tp) unsigned char __buf[sizeof(_Tp)];
 257:c:\users\yaman\downloads\daisytoolchain-0.3.3\daisytoolchain-0.3.3\windows\arm-none-eabi\include\c++\10.2.1\atomic **** 	_Tp* __ptr = reinterpret_cast<_Tp*>(__buf);
 258:c:\users\yaman\downloads\daisytoolchain-0.3.3\daisytoolchain-0.3.3\windows\arm-none-eabi\include\c++\10.2.1\atomic **** 	__atomic_load(std::__addressof(_M_i), __ptr, int(__m));
 514              		.loc 15 258 15 view .LVU113
 515 0004 B04B     		ldr	r3, .L97+8
 516              	.LBE675:
 517              	.LBE674:
 148:examples/looper.cpp ****     float cl = shared_cv_l.load(std::memory_order_relaxed);
 518              		.loc 14 148 93 view .LVU114
 519 0006 8946     		mov	r9, r1
 520              	.LBB678:
 521              	.LBB672:
 522              		.loc 15 258 15 view .LVU115
 523 0008 B04C     		ldr	r4, .L97+12
 524              	.LBE672:
 525              	.LBE678:
 526              	.LBB679:
 527              	.LBB680:
 528 000a B149     		ldr	r1, .L97+16
 529              	.LVL25:
 530              		.loc 15 258 15 view .LVU116
 531              	.LBE680:
 532              	.LBE679:
 148:examples/looper.cpp ****     float cl = shared_cv_l.load(std::memory_order_relaxed);
 533              		.loc 14 148 93 view .LVU117
 534 000c 2DED048B 		vpush.64	{d8, d9}
 535              		.cfi_def_cfa_offset 52
 536              		.cfi_offset 80, -52
 537              		.cfi_offset 81, -48
 538              		.cfi_offset 82, -44
 539              		.cfi_offset 83, -40
 540              	.LBB682:
 541              	.LBB673:
 542              		.loc 15 258 15 view .LVU118
 543 0010 2468     		ldr	r4, [r4]
 544              	.LVL26:
ARM GAS  C:\Users\yaman\AppData\Local\Temp\ccCu6FW5.s 			page 38


 545              		.loc 15 258 15 view .LVU119
 546              	.LBE673:
 547              	.LBE682:
 150:examples/looper.cpp ****     float cr = shared_cv_r.load(std::memory_order_relaxed);
 548              		.loc 14 150 5 is_stmt 1 view .LVU120
 549              	.LBB683:
 550              	.LBI674:
 254:c:\users\yaman\downloads\daisytoolchain-0.3.3\daisytoolchain-0.3.3\windows\arm-none-eabi\include\c++\10.2.1\atomic ****       {
 551              		.loc 15 254 7 view .LVU121
 254:c:\users\yaman\downloads\daisytoolchain-0.3.3\daisytoolchain-0.3.3\windows\arm-none-eabi\include\c++\10.2.1\atomic ****       {
 552              		.loc 15 254 7 is_stmt 0 view .LVU122
 553              	.LBE683:
 148:examples/looper.cpp ****     float cl = shared_cv_l.load(std::memory_order_relaxed);
 554              		.loc 14 148 93 view .LVU123
 555 0012 83B0     		sub	sp, sp, #12
 556              		.cfi_def_cfa_offset 64
 557              	.LBB684:
 558              	.LBB676:
 559              		.loc 15 258 15 view .LVU124
 560 0014 1B68     		ldr	r3, [r3]
 561              	.LBE676:
 562              	.LBE684:
 563              	.LBB685:
 564              	.LBB681:
 565 0016 0968     		ldr	r1, [r1]
 566              	.LBE681:
 567              	.LBE685:
 568              	.LBB686:
 569              	.LBB677:
 570              		.loc 15 258 2 view .LVU125
 571 0018 08EE103A 		vmov	s16, r3
 572              	.LVL27:
 573              		.loc 15 258 2 view .LVU126
 574              	.LBE677:
 575              	.LBE686:
 151:examples/looper.cpp ****     float kl = shared_knob_l.load(std::memory_order_relaxed);
 576              		.loc 14 151 5 is_stmt 1 view .LVU127
 577              	.LBB687:
 578              	.LBI679:
 254:c:\users\yaman\downloads\daisytoolchain-0.3.3\daisytoolchain-0.3.3\windows\arm-none-eabi\include\c++\10.2.1\atomic ****       {
 579              		.loc 15 254 7 view .LVU128
 254:c:\users\yaman\downloads\daisytoolchain-0.3.3\daisytoolchain-0.3.3\windows\arm-none-eabi\include\c++\10.2.1\atomic ****       {
 580              		.loc 15 254 7 is_stmt 0 view .LVU129
 581              	.LBE687:
 582              	.LBB688:
 583              	.LBB689:
 584              		.loc 15 258 15 view .LVU130
 585 001c AD4B     		ldr	r3, .L97+20
 586              	.LVL28:
 587              		.loc 15 258 15 view .LVU131
 588 001e 1B68     		ldr	r3, [r3]
 589              	.LVL29:
 590              		.loc 15 258 15 view .LVU132
 591              	.LBE689:
 592              	.LBE688:
 152:examples/looper.cpp ****     float kr = shared_knob_r.load(std::memory_order_relaxed);
 593              		.loc 14 152 5 is_stmt 1 view .LVU133
ARM GAS  C:\Users\yaman\AppData\Local\Temp\ccCu6FW5.s 			page 39


 594              	.LBB690:
 595              	.LBI688:
 254:c:\users\yaman\downloads\daisytoolchain-0.3.3\daisytoolchain-0.3.3\windows\arm-none-eabi\include\c++\10.2.1\atomic ****       {
 596              		.loc 15 254 7 view .LVU134
 254:c:\users\yaman\downloads\daisytoolchain-0.3.3\daisytoolchain-0.3.3\windows\arm-none-eabi\include\c++\10.2.1\atomic ****       {
 597              		.loc 15 254 7 is_stmt 0 view .LVU135
 598              	.LBE690:
 153:examples/looper.cpp **** 
 154:examples/looper.cpp ****     for(size_t i = 0; i < size; i++) {
 599              		.loc 14 154 5 is_stmt 1 view .LVU136
 600              	.LBB691:
 601              		.loc 14 154 25 view .LVU137
 602 0020 002A     		cmp	r2, #0
 603 0022 76D0     		beq	.L15
 604 0024 08EE904A 		vmov	s17, r4
 605 0028 8046     		mov	r8, r0
 606 002a 09EE901A 		vmov	s19, r1
 607 002e 09EE103A 		vmov	s18, r3
 608 0032 9346     		mov	fp, r2
 609              		.loc 14 154 16 is_stmt 0 view .LVU138
 610 0034 0024     		movs	r4, #0
 611              	.LVL30:
 612              		.loc 14 154 16 view .LVU139
 613 0036 A84E     		ldr	r6, .L97+24
 614 0038 A84D     		ldr	r5, .L97+28
 615 003a 15E0     		b	.L16
 616              	.LVL31:
 617              	.L38:
 618              	.LBB692:
 619              	.LBB693:
  62:examples/looper.cpp ****             is_triggered_internal = false;
 620              		.loc 14 62 16 is_stmt 1 view .LVU140
  62:examples/looper.cpp ****             is_triggered_internal = false;
 621              		.loc 14 62 42 is_stmt 0 view .LVU141
 622 003c DFEDA87A 		vldr.32	s15, .L97+32
 623 0040 B4EEE78A 		vcmpe.f32	s16, s15
 624 0044 F1EE10FA 		vmrs	APSR_nzcv, FPSCR
 625 0048 01D5     		bpl	.L39
  63:examples/looper.cpp ****         }
 626              		.loc 14 63 13 is_stmt 1 view .LVU142
  63:examples/looper.cpp ****         }
 627              		.loc 14 63 35 is_stmt 0 view .LVU143
 628 004a 0023     		movs	r3, #0
 629 004c 2B75     		strb	r3, [r5, #20]
  67:examples/looper.cpp ****             if (state == ARM_REC) {
 630              		.loc 14 67 9 is_stmt 1 view .LVU144
 631              	.L39:
 632              	.LVL32:
  80:examples/looper.cpp **** 
 633              		.loc 14 80 9 view .LVU145
  80:examples/looper.cpp **** 
 634              		.loc 14 80 13 is_stmt 0 view .LVU146
 635 004e 2B79     		ldrb	r3, [r5, #4]	@ zero_extendqisi2
  80:examples/looper.cpp **** 
 636              		.loc 14 80 9 view .LVU147
 637 0050 012B     		cmp	r3, #1
 638 0052 05D9     		bls	.L47
ARM GAS  C:\Users\yaman\AppData\Local\Temp\ccCu6FW5.s 			page 40


  82:examples/looper.cpp ****             if (pos < MAX_SIZE_PER_CHANNEL) {
 639              		.loc 14 82 9 is_stmt 1 view .LVU148
 640 0054 022B     		cmp	r3, #2
 641 0056 00F0A080 		beq	.L88
  92:examples/looper.cpp ****             float out_sample = 0.0f;
 642              		.loc 14 92 9 view .LVU149
 643              	.LBB694:
 644 005a 032B     		cmp	r3, #3
 645 005c 00F05F81 		beq	.L89
 646              	.LVL33:
 647              	.L47:
  92:examples/looper.cpp ****             float out_sample = 0.0f;
 648              		.loc 14 92 9 is_stmt 0 view .LVU150
 649              	.LBE694:
 650              	.LBE693:
 651              	.LBE692:
 652              		.loc 14 154 5 view .LVU151
 653 0060 0134     		adds	r4, r4, #1
 654              	.LVL34:
 155:examples/looper.cpp ****         out[0][i] = looper_l.Process(in[0][i], cl, kl);
 156:examples/looper.cpp ****         out[1][i] = looper_r.Process(in[1][i], cr, kr);
 655              		.loc 14 156 19 view .LVU152
 656 0062 3960     		str	r1, [r7]	@ float
 154:examples/looper.cpp ****         out[0][i] = looper_l.Process(in[0][i], cl, kl);
 657              		.loc 14 154 5 is_stmt 1 view .LVU153
 658              	.LVL35:
 154:examples/looper.cpp ****         out[0][i] = looper_l.Process(in[0][i], cl, kl);
 659              		.loc 14 154 25 view .LVU154
 660 0064 A345     		cmp	fp, r4
 661 0066 54D0     		beq	.L15
 662              	.LVL36:
 663              	.L16:
 155:examples/looper.cpp ****         out[0][i] = looper_l.Process(in[0][i], cl, kl);
 664              		.loc 14 155 9 discriminator 2 view .LVU155
 155:examples/looper.cpp ****         out[0][i] = looper_l.Process(in[0][i], cl, kl);
 665              		.loc 14 155 37 is_stmt 0 discriminator 2 view .LVU156
 666 0068 D8F80010 		ldr	r1, [r8]
 667 006c A700     		lsls	r7, r4, #2
 155:examples/looper.cpp ****         out[0][i] = looper_l.Process(in[0][i], cl, kl);
 668              		.loc 14 155 17 discriminator 2 view .LVU157
 669 006e D9F80030 		ldr	r3, [r9]
 155:examples/looper.cpp ****         out[0][i] = looper_l.Process(in[0][i], cl, kl);
 670              		.loc 14 155 37 discriminator 2 view .LVU158
 671 0072 01EB8401 		add	r1, r1, r4, lsl #2
 672              	.LBB742:
 673              	.LBB743:
  59:examples/looper.cpp ****             is_triggered_internal = true;
 674              		.loc 14 59 9 discriminator 2 view .LVU159
 675 0076 307D     		ldrb	r0, [r6, #20]	@ zero_extendqisi2
 676              	.LBE743:
 677              	.LBE742:
 155:examples/looper.cpp ****         out[0][i] = looper_l.Process(in[0][i], cl, kl);
 678              		.loc 14 155 17 discriminator 2 view .LVU160
 679 0078 03EB840A 		add	r10, r3, r4, lsl #2
 680              	.LVL37:
 155:examples/looper.cpp ****         out[0][i] = looper_l.Process(in[0][i], cl, kl);
 681              		.loc 14 155 37 discriminator 2 view .LVU161
ARM GAS  C:\Users\yaman\AppData\Local\Temp\ccCu6FW5.s 			page 41


 682 007c 0968     		ldr	r1, [r1]	@ float
 683              	.LVL38:
 684              	.LBB790:
 685              	.LBI742:
  56:examples/looper.cpp ****         // --- 1.  ---
 686              		.loc 14 56 11 is_stmt 1 discriminator 2 view .LVU162
 687              	.LBB781:
  58:examples/looper.cpp ****         if (!is_triggered_internal && cv_raw > 0.8f) {
 688              		.loc 14 58 9 discriminator 2 view .LVU163
  59:examples/looper.cpp ****             is_triggered_internal = true;
 689              		.loc 14 59 9 discriminator 2 view .LVU164
 690 007e 0028     		cmp	r0, #0
 691 0080 4CD0     		beq	.L90
  62:examples/looper.cpp ****             is_triggered_internal = false;
 692              		.loc 14 62 16 view .LVU165
  62:examples/looper.cpp ****             is_triggered_internal = false;
 693              		.loc 14 62 42 is_stmt 0 view .LVU166
 694 0082 DFED977A 		vldr.32	s15, .L97+32
 695 0086 F4EEE78A 		vcmpe.f32	s17, s15
 696 008a F1EE10FA 		vmrs	APSR_nzcv, FPSCR
 697 008e 01D5     		bpl	.L18
  63:examples/looper.cpp ****         }
 698              		.loc 14 63 13 is_stmt 1 view .LVU167
  63:examples/looper.cpp ****         }
 699              		.loc 14 63 35 is_stmt 0 view .LVU168
 700 0090 0023     		movs	r3, #0
 701 0092 3375     		strb	r3, [r6, #20]
  67:examples/looper.cpp ****             if (state == ARM_REC) {
 702              		.loc 14 67 9 is_stmt 1 view .LVU169
 703              	.L18:
 704              	.LVL39:
  80:examples/looper.cpp **** 
 705              		.loc 14 80 9 view .LVU170
  80:examples/looper.cpp **** 
 706              		.loc 14 80 13 is_stmt 0 view .LVU171
 707 0094 3379     		ldrb	r3, [r6, #4]	@ zero_extendqisi2
  80:examples/looper.cpp **** 
 708              		.loc 14 80 9 view .LVU172
 709 0096 012B     		cmp	r3, #1
 710 0098 05D9     		bls	.L26
  82:examples/looper.cpp ****             if (pos < MAX_SIZE_PER_CHANNEL) {
 711              		.loc 14 82 9 is_stmt 1 view .LVU173
 712 009a 022B     		cmp	r3, #2
 713 009c 00F08780 		beq	.L91
  92:examples/looper.cpp ****             float out_sample = 0.0f;
 714              		.loc 14 92 9 view .LVU174
 715              	.LBB744:
 716 00a0 032B     		cmp	r3, #3
 717 00a2 00F03E81 		beq	.L92
 718              	.LVL40:
 719              	.L26:
  92:examples/looper.cpp ****             float out_sample = 0.0f;
 720              		.loc 14 92 9 is_stmt 0 view .LVU175
 721              	.LBE744:
 722              	.LBE781:
 723              	.LBE790:
 724              		.loc 14 156 37 view .LVU176
ARM GAS  C:\Users\yaman\AppData\Local\Temp\ccCu6FW5.s 			page 42


 725 00a6 D8F80430 		ldr	r3, [r8, #4]
 726              		.loc 14 156 17 view .LVU177
 727 00aa D9F80400 		ldr	r0, [r9, #4]
 728              		.loc 14 156 37 view .LVU178
 729 00ae 3B44     		add	r3, r3, r7
 730              	.LBB791:
 731              	.LBB732:
  59:examples/looper.cpp ****             is_triggered_internal = true;
 732              		.loc 14 59 9 view .LVU179
 733 00b0 2A7D     		ldrb	r2, [r5, #20]	@ zero_extendqisi2
 734              	.LBE732:
 735              	.LBE791:
 736              		.loc 14 156 17 view .LVU180
 737 00b2 0744     		add	r7, r7, r0
 155:examples/looper.cpp ****         out[1][i] = looper_r.Process(in[1][i], cr, kr);
 738              		.loc 14 155 19 view .LVU181
 739 00b4 CAF80010 		str	r1, [r10]	@ float
 740              		.loc 14 156 9 is_stmt 1 view .LVU182
 741              	.LVL41:
 742              		.loc 14 156 37 is_stmt 0 view .LVU183
 743 00b8 1968     		ldr	r1, [r3]	@ float
 744              	.LVL42:
 745              	.LBB792:
 746              	.LBI692:
  56:examples/looper.cpp ****         // --- 1.  ---
 747              		.loc 14 56 11 is_stmt 1 view .LVU184
 748              	.LBB733:
  58:examples/looper.cpp ****         if (!is_triggered_internal && cv_raw > 0.8f) {
 749              		.loc 14 58 9 view .LVU185
  59:examples/looper.cpp ****             is_triggered_internal = true;
 750              		.loc 14 59 9 view .LVU186
 751 00ba 002A     		cmp	r2, #0
 752 00bc BED1     		bne	.L38
  59:examples/looper.cpp ****             is_triggered_internal = true;
 753              		.loc 14 59 36 is_stmt 0 view .LVU187
 754 00be DFED897A 		vldr.32	s15, .L97+36
 755 00c2 B4EEE78A 		vcmpe.f32	s16, s15
 756 00c6 F1EE10FA 		vmrs	APSR_nzcv, FPSCR
 757 00ca C0DD     		ble	.L39
  60:examples/looper.cpp ****             edge = true;
 758              		.loc 14 60 13 is_stmt 1 view .LVU188
  60:examples/looper.cpp ****             edge = true;
 759              		.loc 14 60 35 is_stmt 0 view .LVU189
 760 00cc 0123     		movs	r3, #1
 761 00ce 2B75     		strb	r3, [r5, #20]
  61:examples/looper.cpp ****         } else if (is_triggered_internal && cv_raw < 0.6f) {
 762              		.loc 14 61 13 is_stmt 1 view .LVU190
 763              	.LVL43:
  67:examples/looper.cpp ****             if (state == ARM_REC) {
 764              		.loc 14 67 9 view .LVU191
  68:examples/looper.cpp ****                 state = RECORDING; pos = 0; loop_len = 0;
 765              		.loc 14 68 13 view .LVU192
  68:examples/looper.cpp ****                 state = RECORDING; pos = 0; loop_len = 0;
 766              		.loc 14 68 17 is_stmt 0 view .LVU193
 767 00d0 2B79     		ldrb	r3, [r5, #4]	@ zero_extendqisi2
  68:examples/looper.cpp ****                 state = RECORDING; pos = 0; loop_len = 0;
 768              		.loc 14 68 13 view .LVU194
ARM GAS  C:\Users\yaman\AppData\Local\Temp\ccCu6FW5.s 			page 43


 769 00d2 012B     		cmp	r3, #1
 770 00d4 47D0     		beq	.L93
  70:examples/looper.cpp ****                 state = PLAYING; mod_len = (pos > 0) ? pos : 1; pos = 0;
 771              		.loc 14 70 20 is_stmt 1 view .LVU195
 772 00d6 022B     		cmp	r3, #2
 773 00d8 00F01781 		beq	.L94
  72:examples/looper.cpp ****                 // BPM
 774              		.loc 14 72 20 view .LVU196
 775 00dc 032B     		cmp	r3, #3
 776 00de BFD1     		bne	.L47
  74:examples/looper.cpp ****                 slice_timer = 0; // 
 777              		.loc 14 74 17 view .LVU197
  74:examples/looper.cpp ****                 slice_timer = 0; // 
 778              		.loc 14 74 21 is_stmt 0 view .LVU198
 779 00e0 AA60     		str	r2, [r5, #8]
  75:examples/looper.cpp ****             }
 780              		.loc 14 75 17 is_stmt 1 view .LVU199
  75:examples/looper.cpp ****             }
 781              		.loc 14 75 29 is_stmt 0 view .LVU200
 782 00e2 2A62     		str	r2, [r5, #32]
 783              	.LBB720:
 784              	.LBB695:
 785              	.LBB696:
 100:examples/looper.cpp ****             } else {
 786              		.loc 14 100 28 view .LVU201
 787 00e4 2A69     		ldr	r2, [r5, #16]
 788              	.LVL44:
 789              	.L60:
 100:examples/looper.cpp ****             } else {
 790              		.loc 14 100 28 view .LVU202
 791              	.LBE696:
  93:examples/looper.cpp **** 
 792              		.loc 14 93 13 is_stmt 1 view .LVU203
  96:examples/looper.cpp ****                 // 
 793              		.loc 14 96 13 view .LVU204
 794              	.LBB707:
 795 00e6 DFED807A 		vldr.32	s15, .L97+40
 796 00ea B4EEE79A 		vcmpe.f32	s18, s15
 797 00ee F1EE10FA 		vmrs	APSR_nzcv, FPSCR
 798 00f2 40F1C380 		bpl	.L84
  98:examples/looper.cpp ****                 pos++;
 799              		.loc 14 98 17 view .LVU205
  98:examples/looper.cpp ****                 pos++;
 800              		.loc 14 98 37 is_stmt 0 view .LVU206
 801 00f6 A868     		ldr	r0, [r5, #8]
  98:examples/looper.cpp ****                 pos++;
 802              		.loc 14 98 28 view .LVU207
 803 00f8 2B68     		ldr	r3, [r5]
 804 00fa 03EB8003 		add	r3, r3, r0, lsl #2
  99:examples/looper.cpp ****                 if (pos >= mod_len) pos = 0;
 805              		.loc 14 99 20 view .LVU208
 806 00fe 0130     		adds	r0, r0, #1
 100:examples/looper.cpp ****             } else {
 807              		.loc 14 100 17 view .LVU209
 808 0100 9042     		cmp	r0, r2
  98:examples/looper.cpp ****                 pos++;
 809              		.loc 14 98 28 view .LVU210
ARM GAS  C:\Users\yaman\AppData\Local\Temp\ccCu6FW5.s 			page 44


 810 0102 1968     		ldr	r1, [r3]	@ float
 811              	.LVL45:
  99:examples/looper.cpp ****                 if (pos >= mod_len) pos = 0;
 812              		.loc 14 99 17 is_stmt 1 view .LVU211
 100:examples/looper.cpp ****             } else {
 813              		.loc 14 100 17 view .LVU212
 814 0104 80F2B780 		bge	.L58
 815              	.LBE707:
 816              	.LBE695:
 817              	.LBE720:
 818              	.LBE733:
 819              	.LBE792:
 154:examples/looper.cpp ****         out[0][i] = looper_l.Process(in[0][i], cl, kl);
 820              		.loc 14 154 5 is_stmt 0 view .LVU213
 821 0108 0134     		adds	r4, r4, #1
 822              	.LVL46:
 823              	.LBB793:
 824              	.LBB734:
 825              	.LBB721:
 826              	.LBB714:
 827              	.LBB708:
  99:examples/looper.cpp ****                 if (pos >= mod_len) pos = 0;
 828              		.loc 14 99 20 view .LVU214
 829 010a A860     		str	r0, [r5, #8]
 830              	.LVL47:
  99:examples/looper.cpp ****                 if (pos >= mod_len) pos = 0;
 831              		.loc 14 99 20 view .LVU215
 832              	.LBE708:
 833              	.LBE714:
 834              	.LBE721:
 835              	.LBE734:
 836              	.LBE793:
 837              		.loc 14 156 19 view .LVU216
 838 010c 3960     		str	r1, [r7]	@ float
 154:examples/looper.cpp ****         out[0][i] = looper_l.Process(in[0][i], cl, kl);
 839              		.loc 14 154 5 is_stmt 1 view .LVU217
 840              	.LVL48:
 154:examples/looper.cpp ****         out[0][i] = looper_l.Process(in[0][i], cl, kl);
 841              		.loc 14 154 25 view .LVU218
 842 010e A345     		cmp	fp, r4
 843 0110 AAD1     		bne	.L16
 844              	.LVL49:
 845              	.L15:
 154:examples/looper.cpp ****         out[0][i] = looper_l.Process(in[0][i], cl, kl);
 846              		.loc 14 154 25 is_stmt 0 view .LVU219
 847              	.LBE691:
 157:examples/looper.cpp ****     }
 158:examples/looper.cpp **** }
 848              		.loc 14 158 1 view .LVU220
 849 0112 03B0     		add	sp, sp, #12
 850              		.cfi_remember_state
 851              		.cfi_def_cfa_offset 52
 852              		@ sp needed
 853 0114 BDEC048B 		vldm	sp!, {d8-d9}
 854              		.cfi_restore 82
 855              		.cfi_restore 83
 856              		.cfi_restore 80
ARM GAS  C:\Users\yaman\AppData\Local\Temp\ccCu6FW5.s 			page 45


 857              		.cfi_restore 81
 858              		.cfi_def_cfa_offset 36
 859 0118 BDE8F08F 		pop	{r4, r5, r6, r7, r8, r9, r10, fp, pc}
 860              	.LVL50:
 861              	.L90:
 862              		.cfi_restore_state
 863              	.LBB809:
 864              	.LBB794:
 865              	.LBB782:
  59:examples/looper.cpp ****             is_triggered_internal = true;
 866              		.loc 14 59 36 view .LVU221
 867 011c DFED717A 		vldr.32	s15, .L97+36
 868 0120 F4EEE78A 		vcmpe.f32	s17, s15
 869 0124 F1EE10FA 		vmrs	APSR_nzcv, FPSCR
 870 0128 B4DD     		ble	.L18
  60:examples/looper.cpp ****             edge = true;
 871              		.loc 14 60 13 is_stmt 1 view .LVU222
  60:examples/looper.cpp ****             edge = true;
 872              		.loc 14 60 35 is_stmt 0 view .LVU223
 873 012a 0123     		movs	r3, #1
 874 012c 3375     		strb	r3, [r6, #20]
  61:examples/looper.cpp ****         } else if (is_triggered_internal && cv_raw < 0.6f) {
 875              		.loc 14 61 13 is_stmt 1 view .LVU224
 876              	.LVL51:
  67:examples/looper.cpp ****             if (state == ARM_REC) {
 877              		.loc 14 67 9 view .LVU225
  68:examples/looper.cpp ****                 state = RECORDING; pos = 0; loop_len = 0;
 878              		.loc 14 68 13 view .LVU226
  68:examples/looper.cpp ****                 state = RECORDING; pos = 0; loop_len = 0;
 879              		.loc 14 68 17 is_stmt 0 view .LVU227
 880 012e 3379     		ldrb	r3, [r6, #4]	@ zero_extendqisi2
  68:examples/looper.cpp ****                 state = RECORDING; pos = 0; loop_len = 0;
 881              		.loc 14 68 13 view .LVU228
 882 0130 012B     		cmp	r3, #1
 883 0132 25D0     		beq	.L95
  70:examples/looper.cpp ****                 state = PLAYING; mod_len = (pos > 0) ? pos : 1; pos = 0;
 884              		.loc 14 70 20 is_stmt 1 view .LVU229
 885 0134 022B     		cmp	r3, #2
 886 0136 00F0DF80 		beq	.L96
  72:examples/looper.cpp ****                 // BPM
 887              		.loc 14 72 20 view .LVU230
 888 013a 032B     		cmp	r3, #3
 889 013c B3D1     		bne	.L26
  74:examples/looper.cpp ****                 slice_timer = 0; // 
 890              		.loc 14 74 17 view .LVU231
 891              	.LBB769:
 892              	.LBB745:
 893              	.LBB746:
 100:examples/looper.cpp ****             } else {
 894              		.loc 14 100 28 is_stmt 0 view .LVU232
 895 013e 3269     		ldr	r2, [r6, #16]
 896              	.LBE746:
 897              	.LBE745:
 898              	.LBE769:
  74:examples/looper.cpp ****                 slice_timer = 0; // 
 899              		.loc 14 74 21 view .LVU233
 900 0140 B060     		str	r0, [r6, #8]
ARM GAS  C:\Users\yaman\AppData\Local\Temp\ccCu6FW5.s 			page 46


  75:examples/looper.cpp ****             }
 901              		.loc 14 75 17 is_stmt 1 view .LVU234
  75:examples/looper.cpp ****             }
 902              		.loc 14 75 29 is_stmt 0 view .LVU235
 903 0142 3062     		str	r0, [r6, #32]
 904              	.LVL52:
 905              	.L61:
 906              	.LBB770:
 907              	.LBB763:
  93:examples/looper.cpp **** 
 908              		.loc 14 93 13 is_stmt 1 view .LVU236
  96:examples/looper.cpp ****                 // 
 909              		.loc 14 96 13 view .LVU237
 910              	.LBB757:
 911 0144 DFED687A 		vldr.32	s15, .L97+40
 912 0148 F4EEE79A 		vcmpe.f32	s19, s15
 913 014c F1EE10FA 		vmrs	APSR_nzcv, FPSCR
 914 0150 55D5     		bpl	.L82
  98:examples/looper.cpp ****                 pos++;
 915              		.loc 14 98 17 view .LVU238
  98:examples/looper.cpp ****                 pos++;
 916              		.loc 14 98 37 is_stmt 0 view .LVU239
 917 0152 B068     		ldr	r0, [r6, #8]
  98:examples/looper.cpp ****                 pos++;
 918              		.loc 14 98 28 view .LVU240
 919 0154 3368     		ldr	r3, [r6]
 920 0156 03EB8003 		add	r3, r3, r0, lsl #2
  99:examples/looper.cpp ****                 if (pos >= mod_len) pos = 0;
 921              		.loc 14 99 20 view .LVU241
 922 015a 0130     		adds	r0, r0, #1
 100:examples/looper.cpp ****             } else {
 923              		.loc 14 100 17 view .LVU242
 924 015c 9042     		cmp	r0, r2
  98:examples/looper.cpp ****                 pos++;
 925              		.loc 14 98 28 view .LVU243
 926 015e 1968     		ldr	r1, [r3]	@ float
 927              	.LVL53:
  99:examples/looper.cpp ****                 if (pos >= mod_len) pos = 0;
 928              		.loc 14 99 17 is_stmt 1 view .LVU244
 100:examples/looper.cpp ****             } else {
 929              		.loc 14 100 17 view .LVU245
 930 0160 4ADA     		bge	.L37
  99:examples/looper.cpp ****                 if (pos >= mod_len) pos = 0;
 931              		.loc 14 99 20 is_stmt 0 view .LVU246
 932 0162 B060     		str	r0, [r6, #8]
 933 0164 9FE7     		b	.L26
 934              	.LVL54:
 935              	.L93:
  99:examples/looper.cpp ****                 if (pos >= mod_len) pos = 0;
 936              		.loc 14 99 20 view .LVU247
 937              	.LBE757:
 938              	.LBE763:
 939              	.LBE770:
 940              	.LBE782:
 941              	.LBE794:
 942              	.LBB795:
 943              	.LBB735:
ARM GAS  C:\Users\yaman\AppData\Local\Temp\ccCu6FW5.s 			page 47


  69:examples/looper.cpp ****             } else if (state == RECORDING) {
 944              		.loc 14 69 17 is_stmt 1 view .LVU248
  69:examples/looper.cpp ****             } else if (state == RECORDING) {
 945              		.loc 14 69 40 is_stmt 0 view .LVU249
 946 0166 9FED567B 		vldr.64	d7, .L97	@ int
  69:examples/looper.cpp ****             } else if (state == RECORDING) {
 947              		.loc 14 69 23 view .LVU250
 948 016a 0223     		movs	r3, #2
  69:examples/looper.cpp ****             } else if (state == RECORDING) {
 949              		.loc 14 69 40 view .LVU251
 950 016c 85ED027B 		vstr.64	d7, [r5, #8]	@ int
  69:examples/looper.cpp ****             } else if (state == RECORDING) {
 951              		.loc 14 69 23 view .LVU252
 952 0170 2B71     		strb	r3, [r5, #4]
  69:examples/looper.cpp ****             } else if (state == RECORDING) {
 953              		.loc 14 69 36 is_stmt 1 view .LVU253
  69:examples/looper.cpp ****             } else if (state == RECORDING) {
 954              		.loc 14 69 45 view .LVU254
 955              	.LVL55:
  80:examples/looper.cpp **** 
 956              		.loc 14 80 9 view .LVU255
  82:examples/looper.cpp ****             if (pos < MAX_SIZE_PER_CHANNEL) {
 957              		.loc 14 82 9 view .LVU256
 958              	.LBB722:
 959              	.LBI722:
  56:examples/looper.cpp ****         // --- 1.  ---
 960              		.loc 14 56 11 view .LVU257
 961              	.LBB723:
  83:examples/looper.cpp ****                 buffer[pos] = in;
 962              		.loc 14 83 13 view .LVU258
 963              	.L44:
  84:examples/looper.cpp ****                 pos++;
 964              		.loc 14 84 17 view .LVU259
  84:examples/looper.cpp ****                 pos++;
 965              		.loc 14 84 29 is_stmt 0 view .LVU260
 966 0172 2B68     		ldr	r3, [r5]
 967 0174 03EB8203 		add	r3, r3, r2, lsl #2
  85:examples/looper.cpp ****             } else {
 968              		.loc 14 85 20 view .LVU261
 969 0178 0132     		adds	r2, r2, #1
  84:examples/looper.cpp ****                 pos++;
 970              		.loc 14 84 29 view .LVU262
 971 017a 1960     		str	r1, [r3]	@ float
  85:examples/looper.cpp ****             } else {
 972              		.loc 14 85 17 is_stmt 1 view .LVU263
  85:examples/looper.cpp ****             } else {
 973              		.loc 14 85 20 is_stmt 0 view .LVU264
 974 017c AA60     		str	r2, [r5, #8]
 975 017e 6FE7     		b	.L47
 976              	.LVL56:
 977              	.L95:
  85:examples/looper.cpp ****             } else {
 978              		.loc 14 85 20 view .LVU265
 979              	.LBE723:
 980              	.LBE722:
 981              	.LBE735:
 982              	.LBE795:
ARM GAS  C:\Users\yaman\AppData\Local\Temp\ccCu6FW5.s 			page 48


 983              	.LBB796:
 984              	.LBB783:
  69:examples/looper.cpp ****             } else if (state == RECORDING) {
 985              		.loc 14 69 17 is_stmt 1 view .LVU266
  69:examples/looper.cpp ****             } else if (state == RECORDING) {
 986              		.loc 14 69 23 is_stmt 0 view .LVU267
 987 0180 0223     		movs	r3, #2
  69:examples/looper.cpp ****             } else if (state == RECORDING) {
 988              		.loc 14 69 40 view .LVU268
 989 0182 0022     		movs	r2, #0
  69:examples/looper.cpp ****             } else if (state == RECORDING) {
 990              		.loc 14 69 23 view .LVU269
 991 0184 3371     		strb	r3, [r6, #4]
  69:examples/looper.cpp ****             } else if (state == RECORDING) {
 992              		.loc 14 69 36 is_stmt 1 view .LVU270
  69:examples/looper.cpp ****             } else if (state == RECORDING) {
 993              		.loc 14 69 45 view .LVU271
  69:examples/looper.cpp ****             } else if (state == RECORDING) {
 994              		.loc 14 69 40 is_stmt 0 view .LVU272
 995 0186 0023     		movs	r3, #0
 996 0188 C6E90223 		strd	r2, [r6, #8]
 997              	.LVL57:
  80:examples/looper.cpp **** 
 998              		.loc 14 80 9 is_stmt 1 view .LVU273
 999              	.LBB771:
 1000              	.LBI771:
  56:examples/looper.cpp ****         // --- 1.  ---
 1001              		.loc 14 56 11 view .LVU274
 1002              	.LBB772:
  83:examples/looper.cpp ****                 buffer[pos] = in;
 1003              		.loc 14 83 13 view .LVU275
 1004              	.L23:
  84:examples/looper.cpp ****                 pos++;
 1005              		.loc 14 84 17 view .LVU276
  84:examples/looper.cpp ****                 pos++;
 1006              		.loc 14 84 29 is_stmt 0 view .LVU277
 1007 018c 3368     		ldr	r3, [r6]
 1008 018e 03EB8003 		add	r3, r3, r0, lsl #2
  85:examples/looper.cpp ****             } else {
 1009              		.loc 14 85 20 view .LVU278
 1010 0192 0130     		adds	r0, r0, #1
  84:examples/looper.cpp ****                 pos++;
 1011              		.loc 14 84 29 view .LVU279
 1012 0194 1960     		str	r1, [r3]	@ float
  85:examples/looper.cpp ****             } else {
 1013              		.loc 14 85 17 is_stmt 1 view .LVU280
  85:examples/looper.cpp ****             } else {
 1014              		.loc 14 85 20 is_stmt 0 view .LVU281
 1015 0196 B060     		str	r0, [r6, #8]
 1016 0198 85E7     		b	.L26
 1017              	.LVL58:
 1018              	.L88:
  85:examples/looper.cpp ****             } else {
 1019              		.loc 14 85 20 view .LVU282
 1020              	.LBE772:
 1021              	.LBE771:
 1022              	.LBE783:
ARM GAS  C:\Users\yaman\AppData\Local\Temp\ccCu6FW5.s 			page 49


 1023              	.LBE796:
 1024              	.LBB797:
 1025              	.LBB736:
 1026              	.LBB726:
 1027              	.LBB724:
  83:examples/looper.cpp ****                 buffer[pos] = in;
 1028              		.loc 14 83 17 view .LVU283
 1029 019a AA68     		ldr	r2, [r5, #8]
 1030              	.LVL59:
  83:examples/looper.cpp ****                 buffer[pos] = in;
 1031              		.loc 14 83 17 view .LVU284
 1032              	.LBE724:
  56:examples/looper.cpp ****         // --- 1.  ---
 1033              		.loc 14 56 11 is_stmt 1 view .LVU285
 1034              	.LBB725:
  83:examples/looper.cpp ****                 buffer[pos] = in;
 1035              		.loc 14 83 13 view .LVU286
 1036 019c 534B     		ldr	r3, .L97+44
 1037 019e 9A42     		cmp	r2, r3
 1038 01a0 E7DB     		blt	.L44
  87:examples/looper.cpp ****             }
 1039              		.loc 14 87 17 view .LVU287
  87:examples/looper.cpp ****             }
 1040              		.loc 14 87 42 is_stmt 0 view .LVU288
 1041 01a2 2B61     		str	r3, [r5, #16]
  87:examples/looper.cpp ****             }
 1042              		.loc 14 87 23 view .LVU289
 1043 01a4 0323     		movs	r3, #3
 1044 01a6 2B71     		strb	r3, [r5, #4]
  87:examples/looper.cpp ****             }
 1045              		.loc 14 87 34 is_stmt 1 view .LVU290
  87:examples/looper.cpp ****             }
 1046              		.loc 14 87 66 view .LVU291
  87:examples/looper.cpp ****             }
 1047              		.loc 14 87 70 is_stmt 0 view .LVU292
 1048 01a8 0023     		movs	r3, #0
 1049 01aa AB60     		str	r3, [r5, #8]
 1050 01ac 58E7     		b	.L47
 1051              	.LVL60:
 1052              	.L91:
  87:examples/looper.cpp ****             }
 1053              		.loc 14 87 70 view .LVU293
 1054              	.LBE725:
 1055              	.LBE726:
 1056              	.LBE736:
 1057              	.LBE797:
 1058              	.LBB798:
 1059              	.LBB784:
 1060              	.LBB775:
 1061              	.LBB773:
  83:examples/looper.cpp ****                 buffer[pos] = in;
 1062              		.loc 14 83 17 view .LVU294
 1063 01ae B068     		ldr	r0, [r6, #8]
 1064              	.LVL61:
  83:examples/looper.cpp ****                 buffer[pos] = in;
 1065              		.loc 14 83 17 view .LVU295
 1066              	.LBE773:
ARM GAS  C:\Users\yaman\AppData\Local\Temp\ccCu6FW5.s 			page 50


  56:examples/looper.cpp ****         // --- 1.  ---
 1067              		.loc 14 56 11 is_stmt 1 view .LVU296
 1068              	.LBB774:
  83:examples/looper.cpp ****                 buffer[pos] = in;
 1069              		.loc 14 83 13 view .LVU297
 1070 01b0 4E4B     		ldr	r3, .L97+44
 1071 01b2 9842     		cmp	r0, r3
 1072 01b4 EADB     		blt	.L23
  87:examples/looper.cpp ****             }
 1073              		.loc 14 87 17 view .LVU298
  87:examples/looper.cpp ****             }
 1074              		.loc 14 87 42 is_stmt 0 view .LVU299
 1075 01b6 3361     		str	r3, [r6, #16]
  87:examples/looper.cpp ****             }
 1076              		.loc 14 87 23 view .LVU300
 1077 01b8 0323     		movs	r3, #3
 1078 01ba 3371     		strb	r3, [r6, #4]
  87:examples/looper.cpp ****             }
 1079              		.loc 14 87 34 is_stmt 1 view .LVU301
  87:examples/looper.cpp ****             }
 1080              		.loc 14 87 66 view .LVU302
  87:examples/looper.cpp ****             }
 1081              		.loc 14 87 70 is_stmt 0 view .LVU303
 1082 01bc 0023     		movs	r3, #0
 1083 01be B360     		str	r3, [r6, #8]
 1084 01c0 71E7     		b	.L26
 1085              	.LVL62:
 1086              	.L63:
  87:examples/looper.cpp ****             }
 1087              		.loc 14 87 70 view .LVU304
 1088              	.LBE774:
 1089              	.LBE775:
 1090              	.LBB776:
 1091              	.LBB764:
 1092              	.LBB758:
 1093              	.LBB747:
 105:examples/looper.cpp ****                 else if (knob_val > 0.6f) divisions = 16;
 1094              		.loc 14 105 53 view .LVU305
 1095 01c2 2021     		movs	r1, #32
 1096              	.LVL63:
 1097              	.L32:
 110:examples/looper.cpp ****                 if (current_slice_len < 1) current_slice_len = 1;
 1098              		.loc 14 110 17 is_stmt 1 view .LVU306
 110:examples/looper.cpp ****                 if (current_slice_len < 1) current_slice_len = 1;
 1099              		.loc 14 110 21 is_stmt 0 view .LVU307
 1100 01c4 92FBF1F3 		sdiv	r3, r2, r1
 1101              	.LVL64:
 111:examples/looper.cpp **** 
 1102              		.loc 14 111 17 is_stmt 1 view .LVU308
 1103 01c8 012B     		cmp	r3, #1
 1104 01ca B8BF     		it	lt
 1105 01cc 0123     		movlt	r3, #1
 1106              	.LVL65:
 111:examples/looper.cpp **** 
 1107              		.loc 14 111 17 is_stmt 0 view .LVU309
 1108 01ce 1846     		mov	r0, r3
 1109 01d0 0093     		str	r3, [sp]
ARM GAS  C:\Users\yaman\AppData\Local\Temp\ccCu6FW5.s 			page 51


 1110              	.LVL66:
 114:examples/looper.cpp ****                 if (slice_timer >= current_slice_len) {
 1111              		.loc 14 114 17 is_stmt 1 view .LVU310
 114:examples/looper.cpp ****                 if (slice_timer >= current_slice_len) {
 1112              		.loc 14 114 28 is_stmt 0 view .LVU311
 1113 01d2 336A     		ldr	r3, [r6, #32]
 1114 01d4 0133     		adds	r3, r3, #1
 1115              	.LBB748:
 115:examples/looper.cpp ****                     slice_timer = 0;
 1116              		.loc 14 115 17 view .LVU312
 1117 01d6 9842     		cmp	r0, r3
 1118              	.LBE748:
 114:examples/looper.cpp ****                 if (slice_timer >= current_slice_len) {
 1119              		.loc 14 114 28 view .LVU313
 1120 01d8 3362     		str	r3, [r6, #32]
 115:examples/looper.cpp ****                     slice_timer = 0;
 1121              		.loc 14 115 17 is_stmt 1 view .LVU314
 1122              	.LBB751:
 1123 01da 40F3B980 		ble	.L34
 1124              	.LBE751:
 122:examples/looper.cpp ****                 // 
 1125              		.loc 14 122 32 is_stmt 0 view .LVU315
 1126 01de B169     		ldr	r1, [r6, #24]
 1127              	.LVL67:
 1128              	.L35:
 122:examples/looper.cpp ****                 // 
 1129              		.loc 14 122 17 is_stmt 1 view .LVU316
 122:examples/looper.cpp ****                 // 
 1130              		.loc 14 122 21 is_stmt 0 view .LVU317
 1131 01e0 0B44     		add	r3, r3, r1
 1132              	.LVL68:
 124:examples/looper.cpp ****                 out_sample = buffer[read_pos];
 1133              		.loc 14 124 17 is_stmt 1 view .LVU318
 1134 01e2 9342     		cmp	r3, r2
 125:examples/looper.cpp **** 
 1135              		.loc 14 125 45 is_stmt 0 view .LVU319
 1136 01e4 B4BF     		ite	lt
 1137 01e6 9900     		lsllt	r1, r3, #2
 1138 01e8 0021     		movge	r1, #0
 1139              	.LVL69:
 125:examples/looper.cpp **** 
 1140              		.loc 14 125 17 is_stmt 1 view .LVU320
 125:examples/looper.cpp **** 
 1141              		.loc 14 125 28 is_stmt 0 view .LVU321
 1142 01ea 3368     		ldr	r3, [r6]
 1143 01ec 0B44     		add	r3, r3, r1
 1144 01ee 1968     		ldr	r1, [r3]	@ float
 1145              	.LVL70:
 128:examples/looper.cpp ****                 if (pos >= mod_len) pos = 0;
 1146              		.loc 14 128 17 is_stmt 1 view .LVU322
 128:examples/looper.cpp ****                 if (pos >= mod_len) pos = 0;
 1147              		.loc 14 128 20 is_stmt 0 view .LVU323
 1148 01f0 B368     		ldr	r3, [r6, #8]
 1149 01f2 0133     		adds	r3, r3, #1
 129:examples/looper.cpp ****             }
 1150              		.loc 14 129 17 is_stmt 1 view .LVU324
 1151 01f4 9342     		cmp	r3, r2
ARM GAS  C:\Users\yaman\AppData\Local\Temp\ccCu6FW5.s 			page 52


 1152 01f6 00DB     		blt	.L86
 1153              	.LVL71:
 1154              	.L37:
 129:examples/looper.cpp ****             }
 1155              		.loc 14 129 37 view .LVU325
 129:examples/looper.cpp ****             }
 1156              		.loc 14 129 41 is_stmt 0 view .LVU326
 1157 01f8 0023     		movs	r3, #0
 1158              	.L86:
 129:examples/looper.cpp ****             }
 1159              		.loc 14 129 41 view .LVU327
 1160 01fa B360     		str	r3, [r6, #8]
 1161 01fc 53E7     		b	.L26
 1162              	.LVL72:
 1163              	.L82:
 104:examples/looper.cpp ****                 if (knob_val > 0.8f)      divisions = 32;
 1164              		.loc 14 104 17 is_stmt 1 view .LVU328
 105:examples/looper.cpp ****                 else if (knob_val > 0.6f) divisions = 16;
 1165              		.loc 14 105 17 view .LVU329
 1166 01fe DFED397A 		vldr.32	s15, .L97+36
 1167 0202 F4EEE79A 		vcmpe.f32	s19, s15
 1168 0206 F1EE10FA 		vmrs	APSR_nzcv, FPSCR
 1169 020a DADC     		bgt	.L63
 106:examples/looper.cpp ****                 else if (knob_val > 0.4f) divisions = 8;
 1170              		.loc 14 106 22 view .LVU330
 1171 020c DFED347A 		vldr.32	s15, .L97+32
 1172 0210 F4EEE79A 		vcmpe.f32	s19, s15
 1173 0214 F1EE10FA 		vmrs	APSR_nzcv, FPSCR
 1174 0218 00F38780 		bgt	.L64
 107:examples/looper.cpp ****                 else if (knob_val > 0.2f) divisions = 4;
 1175              		.loc 14 107 22 view .LVU331
 1176 021c DFED347A 		vldr.32	s15, .L97+48
 1177 0220 F4EEE79A 		vcmpe.f32	s19, s15
 1178 0224 F1EE10FA 		vmrs	APSR_nzcv, FPSCR
 1179 0228 00F3A580 		bgt	.L65
 108:examples/looper.cpp **** 
 1180              		.loc 14 108 22 view .LVU332
 1181 022c DFED317A 		vldr.32	s15, .L97+52
 104:examples/looper.cpp ****                 if (knob_val > 0.8f)      divisions = 32;
 1182              		.loc 14 104 21 is_stmt 0 view .LVU333
 1183 0230 F4EEE79A 		vcmpe.f32	s19, s15
 1184 0234 F1EE10FA 		vmrs	APSR_nzcv, FPSCR
 1185 0238 CCBF     		ite	gt
 1186 023a 0421     		movgt	r1, #4
 1187              	.LVL73:
 104:examples/looper.cpp ****                 if (knob_val > 0.8f)      divisions = 32;
 1188              		.loc 14 104 21 view .LVU334
 1189 023c 0221     		movle	r1, #2
 1190 023e C1E7     		b	.L32
 1191              	.LVL74:
 1192              	.L68:
 104:examples/looper.cpp ****                 if (knob_val > 0.8f)      divisions = 32;
 1193              		.loc 14 104 21 view .LVU335
 1194              	.LBE747:
 1195              	.LBE758:
 1196              	.LBE764:
 1197              	.LBE776:
ARM GAS  C:\Users\yaman\AppData\Local\Temp\ccCu6FW5.s 			page 53


 1198              	.LBE784:
 1199              	.LBE798:
 1200              	.LBB799:
 1201              	.LBB737:
 1202              	.LBB727:
 1203              	.LBB715:
 1204              	.LBB709:
 1205              	.LBB697:
 105:examples/looper.cpp ****                 else if (knob_val > 0.6f) divisions = 16;
 1206              		.loc 14 105 53 view .LVU336
 1207 0240 2021     		movs	r1, #32
 1208              	.LVL75:
 1209              	.L53:
 110:examples/looper.cpp ****                 if (current_slice_len < 1) current_slice_len = 1;
 1210              		.loc 14 110 17 is_stmt 1 view .LVU337
 110:examples/looper.cpp ****                 if (current_slice_len < 1) current_slice_len = 1;
 1211              		.loc 14 110 21 is_stmt 0 view .LVU338
 1212 0242 92FBF1F3 		sdiv	r3, r2, r1
 1213              	.LVL76:
 111:examples/looper.cpp **** 
 1214              		.loc 14 111 17 is_stmt 1 view .LVU339
 1215 0246 012B     		cmp	r3, #1
 1216 0248 B8BF     		it	lt
 1217 024a 0123     		movlt	r3, #1
 1218              	.LVL77:
 111:examples/looper.cpp **** 
 1219              		.loc 14 111 17 is_stmt 0 view .LVU340
 1220 024c 9A46     		mov	r10, r3
 1221              	.LVL78:
 114:examples/looper.cpp ****                 if (slice_timer >= current_slice_len) {
 1222              		.loc 14 114 17 is_stmt 1 view .LVU341
 114:examples/looper.cpp ****                 if (slice_timer >= current_slice_len) {
 1223              		.loc 14 114 28 is_stmt 0 view .LVU342
 1224 024e 2B6A     		ldr	r3, [r5, #32]
 1225              	.LVL79:
 114:examples/looper.cpp ****                 if (slice_timer >= current_slice_len) {
 1226              		.loc 14 114 28 view .LVU343
 1227 0250 03F1010C 		add	ip, r3, #1
 1228              	.LBB698:
 115:examples/looper.cpp ****                     slice_timer = 0;
 1229              		.loc 14 115 17 view .LVU344
 1230 0254 E245     		cmp	r10, ip
 1231              	.LBE698:
 114:examples/looper.cpp ****                 if (slice_timer >= current_slice_len) {
 1232              		.loc 14 114 28 view .LVU345
 1233 0256 C5F820C0 		str	ip, [r5, #32]
 115:examples/looper.cpp ****                     slice_timer = 0;
 1234              		.loc 14 115 17 is_stmt 1 view .LVU346
 1235              	.LBB701:
 1236 025a 68DD     		ble	.L55
 1237              	.LBE701:
 122:examples/looper.cpp ****                 // 
 1238              		.loc 14 122 32 is_stmt 0 view .LVU347
 1239 025c AB69     		ldr	r3, [r5, #24]
 1240              	.LVL80:
 1241              	.L56:
 122:examples/looper.cpp ****                 // 
ARM GAS  C:\Users\yaman\AppData\Local\Temp\ccCu6FW5.s 			page 54


 1242              		.loc 14 122 17 is_stmt 1 view .LVU348
 122:examples/looper.cpp ****                 // 
 1243              		.loc 14 122 21 is_stmt 0 view .LVU349
 1244 025e 6344     		add	r3, r3, ip
 1245              	.LVL81:
 124:examples/looper.cpp ****                 out_sample = buffer[read_pos];
 1246              		.loc 14 124 17 is_stmt 1 view .LVU350
 1247 0260 9342     		cmp	r3, r2
 125:examples/looper.cpp **** 
 1248              		.loc 14 125 45 is_stmt 0 view .LVU351
 1249 0262 B4BF     		ite	lt
 1250 0264 9900     		lsllt	r1, r3, #2
 1251 0266 0021     		movge	r1, #0
 1252              	.LVL82:
 125:examples/looper.cpp **** 
 1253              		.loc 14 125 17 is_stmt 1 view .LVU352
 125:examples/looper.cpp **** 
 1254              		.loc 14 125 28 is_stmt 0 view .LVU353
 1255 0268 2B68     		ldr	r3, [r5]
 1256 026a 0B44     		add	r3, r3, r1
 1257 026c 1968     		ldr	r1, [r3]	@ float
 1258              	.LVL83:
 128:examples/looper.cpp ****                 if (pos >= mod_len) pos = 0;
 1259              		.loc 14 128 17 is_stmt 1 view .LVU354
 128:examples/looper.cpp ****                 if (pos >= mod_len) pos = 0;
 1260              		.loc 14 128 20 is_stmt 0 view .LVU355
 1261 026e AB68     		ldr	r3, [r5, #8]
 1262 0270 0133     		adds	r3, r3, #1
 129:examples/looper.cpp ****             }
 1263              		.loc 14 129 17 is_stmt 1 view .LVU356
 1264 0272 9342     		cmp	r3, r2
 1265 0274 00DB     		blt	.L87
 1266              	.LVL84:
 1267              	.L58:
 129:examples/looper.cpp ****             }
 1268              		.loc 14 129 37 view .LVU357
 129:examples/looper.cpp ****             }
 1269              		.loc 14 129 41 is_stmt 0 view .LVU358
 1270 0276 0023     		movs	r3, #0
 1271              	.L87:
 129:examples/looper.cpp ****             }
 1272              		.loc 14 129 41 view .LVU359
 1273 0278 AB60     		str	r3, [r5, #8]
 1274 027a F1E6     		b	.L47
 1275              	.LVL85:
 1276              	.L84:
 104:examples/looper.cpp ****                 if (knob_val > 0.8f)      divisions = 32;
 1277              		.loc 14 104 17 is_stmt 1 view .LVU360
 105:examples/looper.cpp ****                 else if (knob_val > 0.6f) divisions = 16;
 1278              		.loc 14 105 17 view .LVU361
 1279 027c DFED197A 		vldr.32	s15, .L97+36
 1280 0280 B4EEE79A 		vcmpe.f32	s18, s15
 1281 0284 F1EE10FA 		vmrs	APSR_nzcv, FPSCR
 1282 0288 DADC     		bgt	.L68
 106:examples/looper.cpp ****                 else if (knob_val > 0.4f) divisions = 8;
 1283              		.loc 14 106 22 view .LVU362
 1284 028a DFED157A 		vldr.32	s15, .L97+32
ARM GAS  C:\Users\yaman\AppData\Local\Temp\ccCu6FW5.s 			page 55


 1285 028e B4EEE79A 		vcmpe.f32	s18, s15
 1286 0292 F1EE10FA 		vmrs	APSR_nzcv, FPSCR
 1287 0296 46DC     		bgt	.L69
 107:examples/looper.cpp ****                 else if (knob_val > 0.2f) divisions = 4;
 1288              		.loc 14 107 22 view .LVU363
 1289 0298 DFED157A 		vldr.32	s15, .L97+48
 1290 029c B4EEE79A 		vcmpe.f32	s18, s15
 1291 02a0 F1EE10FA 		vmrs	APSR_nzcv, FPSCR
 1292 02a4 65DC     		bgt	.L70
 108:examples/looper.cpp **** 
 1293              		.loc 14 108 22 view .LVU364
 1294 02a6 DFED137A 		vldr.32	s15, .L97+52
 104:examples/looper.cpp ****                 if (knob_val > 0.8f)      divisions = 32;
 1295              		.loc 14 104 21 is_stmt 0 view .LVU365
 1296 02aa B4EEE79A 		vcmpe.f32	s18, s15
 1297 02ae F1EE10FA 		vmrs	APSR_nzcv, FPSCR
 1298 02b2 CCBF     		ite	gt
 1299 02b4 0421     		movgt	r1, #4
 1300              	.LVL86:
 104:examples/looper.cpp ****                 if (knob_val > 0.8f)      divisions = 32;
 1301              		.loc 14 104 21 view .LVU366
 1302 02b6 0221     		movle	r1, #2
 1303 02b8 C3E7     		b	.L53
 1304              	.L98:
 1305 02ba 00BFAFF3 		.align	3
 1305      0080
 1306              	.L97:
 1307 02c0 00000000 		.word	0
 1308 02c4 00000000 		.word	0
 1309 02c8 00000000 		.word	.LANCHOR1
 1310 02cc 00000000 		.word	.LANCHOR0
 1311 02d0 00000000 		.word	.LANCHOR2
 1312 02d4 00000000 		.word	.LANCHOR3
 1313 02d8 00000000 		.word	.LANCHOR4
 1314 02dc 00000000 		.word	.LANCHOR5
 1315 02e0 9A99193F 		.word	1058642330
 1316 02e4 CDCC4C3F 		.word	1061997773
 1317 02e8 CDCC4C3D 		.word	1028443341
 1318 02ec 00F22B00 		.word	2880000
 1319 02f0 CDCCCC3E 		.word	1053609165
 1320 02f4 CDCC4C3E 		.word	1045220557
 1321              	.LVL87:
 1322              	.L96:
 104:examples/looper.cpp ****                 if (knob_val > 0.8f)      divisions = 32;
 1323              		.loc 14 104 21 view .LVU367
 1324              	.LBE697:
 1325              	.LBE709:
 1326              	.LBE715:
 1327              	.LBE727:
 1328              	.LBE737:
 1329              	.LBE799:
 1330              	.LBB800:
 1331              	.LBB785:
  71:examples/looper.cpp ****             } else if (state == PLAYING) {
 1332              		.loc 14 71 17 is_stmt 1 view .LVU368
  71:examples/looper.cpp ****             } else if (state == PLAYING) {
 1333              		.loc 14 71 54 is_stmt 0 view .LVU369
ARM GAS  C:\Users\yaman\AppData\Local\Temp\ccCu6FW5.s 			page 56


 1334 02f8 B268     		ldr	r2, [r6, #8]
  71:examples/looper.cpp ****             } else if (state == PLAYING) {
 1335              		.loc 14 71 23 view .LVU370
 1336 02fa 0323     		movs	r3, #3
  71:examples/looper.cpp ****             } else if (state == PLAYING) {
 1337              		.loc 14 71 69 view .LVU371
 1338 02fc B060     		str	r0, [r6, #8]
  71:examples/looper.cpp ****             } else if (state == PLAYING) {
 1339              		.loc 14 71 54 view .LVU372
 1340 02fe 012A     		cmp	r2, #1
  71:examples/looper.cpp ****             } else if (state == PLAYING) {
 1341              		.loc 14 71 23 view .LVU373
 1342 0300 3371     		strb	r3, [r6, #4]
  71:examples/looper.cpp ****             } else if (state == PLAYING) {
 1343              		.loc 14 71 34 is_stmt 1 view .LVU374
  71:examples/looper.cpp ****             } else if (state == PLAYING) {
 1344              		.loc 14 71 65 view .LVU375
  71:examples/looper.cpp ****             } else if (state == PLAYING) {
 1345              		.loc 14 71 54 is_stmt 0 view .LVU376
 1346 0302 B8BF     		it	lt
 1347 0304 0122     		movlt	r2, #1
  71:examples/looper.cpp ****             } else if (state == PLAYING) {
 1348              		.loc 14 71 42 view .LVU377
 1349 0306 3261     		str	r2, [r6, #16]
 1350 0308 1CE7     		b	.L61
 1351              	.LVL88:
 1352              	.L94:
  71:examples/looper.cpp ****             } else if (state == PLAYING) {
 1353              		.loc 14 71 42 view .LVU378
 1354              	.LBE785:
 1355              	.LBE800:
 1356              	.LBB801:
 1357              	.LBB738:
  71:examples/looper.cpp ****             } else if (state == PLAYING) {
 1358              		.loc 14 71 17 is_stmt 1 view .LVU379
  71:examples/looper.cpp ****             } else if (state == PLAYING) {
 1359              		.loc 14 71 54 is_stmt 0 view .LVU380
 1360 030a AB68     		ldr	r3, [r5, #8]
  71:examples/looper.cpp ****             } else if (state == PLAYING) {
 1361              		.loc 14 71 69 view .LVU381
 1362 030c AA60     		str	r2, [r5, #8]
  71:examples/looper.cpp ****             } else if (state == PLAYING) {
 1363              		.loc 14 71 54 view .LVU382
 1364 030e 012B     		cmp	r3, #1
 1365 0310 B8BF     		it	lt
 1366 0312 0123     		movlt	r3, #1
 1367 0314 1A46     		mov	r2, r3
  71:examples/looper.cpp ****             } else if (state == PLAYING) {
 1368              		.loc 14 71 42 view .LVU383
 1369 0316 2B61     		str	r3, [r5, #16]
  71:examples/looper.cpp ****             } else if (state == PLAYING) {
 1370              		.loc 14 71 23 view .LVU384
 1371 0318 0323     		movs	r3, #3
 1372 031a 2B71     		strb	r3, [r5, #4]
  71:examples/looper.cpp ****             } else if (state == PLAYING) {
 1373              		.loc 14 71 34 is_stmt 1 view .LVU385
  71:examples/looper.cpp ****             } else if (state == PLAYING) {
ARM GAS  C:\Users\yaman\AppData\Local\Temp\ccCu6FW5.s 			page 57


 1374              		.loc 14 71 65 view .LVU386
 1375 031c E3E6     		b	.L60
 1376              	.LVL89:
 1377              	.L89:
 1378              	.LBB728:
 1379              	.LBB716:
 1380              	.LBB710:
 100:examples/looper.cpp ****             } else {
 1381              		.loc 14 100 28 is_stmt 0 view .LVU387
 1382 031e 2A69     		ldr	r2, [r5, #16]
 1383 0320 E1E6     		b	.L60
 1384              	.LVL90:
 1385              	.L92:
 100:examples/looper.cpp ****             } else {
 1386              		.loc 14 100 28 view .LVU388
 1387              	.LBE710:
 1388              	.LBE716:
 1389              	.LBE728:
 1390              	.LBE738:
 1391              	.LBE801:
 1392              	.LBB802:
 1393              	.LBB786:
 1394              	.LBB777:
 1395              	.LBB765:
 1396              	.LBB759:
 1397 0322 3269     		ldr	r2, [r6, #16]
 1398 0324 0EE7     		b	.L61
 1399              	.LVL91:
 1400              	.L69:
 100:examples/looper.cpp ****             } else {
 1401              		.loc 14 100 28 view .LVU389
 1402              	.LBE759:
 1403              	.LBE765:
 1404              	.LBE777:
 1405              	.LBE786:
 1406              	.LBE802:
 1407              	.LBB803:
 1408              	.LBB739:
 1409              	.LBB729:
 1410              	.LBB717:
 1411              	.LBB711:
 1412              	.LBB704:
 106:examples/looper.cpp ****                 else if (knob_val > 0.4f) divisions = 8;
 1413              		.loc 14 106 53 view .LVU390
 1414 0326 1021     		movs	r1, #16
 1415              	.LVL92:
 106:examples/looper.cpp ****                 else if (knob_val > 0.4f) divisions = 8;
 1416              		.loc 14 106 53 view .LVU391
 1417 0328 8BE7     		b	.L53
 1418              	.LVL93:
 1419              	.L64:
 106:examples/looper.cpp ****                 else if (knob_val > 0.4f) divisions = 8;
 1420              		.loc 14 106 53 view .LVU392
 1421              	.LBE704:
 1422              	.LBE711:
 1423              	.LBE717:
 1424              	.LBE729:
ARM GAS  C:\Users\yaman\AppData\Local\Temp\ccCu6FW5.s 			page 58


 1425              	.LBE739:
 1426              	.LBE803:
 1427              	.LBB804:
 1428              	.LBB787:
 1429              	.LBB778:
 1430              	.LBB766:
 1431              	.LBB760:
 1432              	.LBB754:
 1433 032a 1021     		movs	r1, #16
 1434              	.LVL94:
 106:examples/looper.cpp ****                 else if (knob_val > 0.4f) divisions = 8;
 1435              		.loc 14 106 53 view .LVU393
 1436 032c 4AE7     		b	.L32
 1437              	.LVL95:
 1438              	.L55:
 106:examples/looper.cpp ****                 else if (knob_val > 0.4f) divisions = 8;
 1439              		.loc 14 106 53 view .LVU394
 1440              	.LBE754:
 1441              	.LBE760:
 1442              	.LBE766:
 1443              	.LBE778:
 1444              	.LBE787:
 1445              	.LBE804:
 1446              	.LBB805:
 1447              	.LBB740:
 1448              	.LBB730:
 1449              	.LBB718:
 1450              	.LBB712:
 1451              	.LBB705:
 1452              	.LBB702:
 1453              	.LBB699:
 116:examples/looper.cpp ****                     // 
 1454              		.loc 14 116 21 is_stmt 1 view .LVU395
 116:examples/looper.cpp ****                     // 
 1455              		.loc 14 116 33 is_stmt 0 view .LVU396
 1456 032e 0023     		movs	r3, #0
 1457 0330 0091     		str	r1, [sp]
 1458 0332 2B62     		str	r3, [r5, #32]
 118:examples/looper.cpp ****                     slice_start = (rand() % num_slices) * current_slice_len;
 1459              		.loc 14 118 21 is_stmt 1 view .LVU397
 1460              	.LVL96:
 119:examples/looper.cpp ****                 }
 1461              		.loc 14 119 21 view .LVU398
 119:examples/looper.cpp ****                 }
 1462              		.loc 14 119 40 is_stmt 0 view .LVU399
 1463 0334 FFF7FEFF 		bl	rand
 1464              	.LVL97:
 119:examples/looper.cpp ****                 }
 1465              		.loc 14 119 43 view .LVU400
 1466 0338 0099     		ldr	r1, [sp]
 1467              	.LBE699:
 1468              	.LBE702:
 122:examples/looper.cpp ****                 // 
 1469              		.loc 14 122 46 view .LVU401
 1470 033a D5F820C0 		ldr	ip, [r5, #32]
 124:examples/looper.cpp ****                 out_sample = buffer[read_pos];
 1471              		.loc 14 124 33 view .LVU402
ARM GAS  C:\Users\yaman\AppData\Local\Temp\ccCu6FW5.s 			page 59


 1472 033e 2A69     		ldr	r2, [r5, #16]
 1473              	.LBB703:
 1474              	.LBB700:
 119:examples/looper.cpp ****                 }
 1475              		.loc 14 119 43 view .LVU403
 1476 0340 90FBF1F3 		sdiv	r3, r0, r1
 1477 0344 03FB1100 		mls	r0, r3, r1, r0
 119:examples/looper.cpp ****                 }
 1478              		.loc 14 119 57 view .LVU404
 1479 0348 0AFB00F3 		mul	r3, r10, r0
 119:examples/looper.cpp ****                 }
 1480              		.loc 14 119 33 view .LVU405
 1481 034c AB61     		str	r3, [r5, #24]
 1482              	.LBE700:
 1483 034e 86E7     		b	.L56
 1484              	.LVL98:
 1485              	.L34:
 119:examples/looper.cpp ****                 }
 1486              		.loc 14 119 33 view .LVU406
 1487              	.LBE703:
 1488              	.LBE705:
 1489              	.LBE712:
 1490              	.LBE718:
 1491              	.LBE730:
 1492              	.LBE740:
 1493              	.LBE805:
 1494              	.LBB806:
 1495              	.LBB788:
 1496              	.LBB779:
 1497              	.LBB767:
 1498              	.LBB761:
 1499              	.LBB755:
 1500              	.LBB752:
 1501              	.LBB749:
 116:examples/looper.cpp ****                     // 
 1502              		.loc 14 116 21 is_stmt 1 view .LVU407
 116:examples/looper.cpp ****                     // 
 1503              		.loc 14 116 33 is_stmt 0 view .LVU408
 1504 0350 0023     		movs	r3, #0
 1505 0352 0191     		str	r1, [sp, #4]
 1506 0354 3362     		str	r3, [r6, #32]
 118:examples/looper.cpp ****                     slice_start = (rand() % num_slices) * current_slice_len;
 1507              		.loc 14 118 21 is_stmt 1 view .LVU409
 1508              	.LVL99:
 119:examples/looper.cpp ****                 }
 1509              		.loc 14 119 21 view .LVU410
 119:examples/looper.cpp ****                 }
 1510              		.loc 14 119 40 is_stmt 0 view .LVU411
 1511 0356 FFF7FEFF 		bl	rand
 1512              	.LVL100:
 119:examples/looper.cpp ****                 }
 1513              		.loc 14 119 43 view .LVU412
 1514 035a 0199     		ldr	r1, [sp, #4]
 1515              	.LBE749:
 1516              	.LBE752:
 122:examples/looper.cpp ****                 // 
 1517              		.loc 14 122 46 view .LVU413
ARM GAS  C:\Users\yaman\AppData\Local\Temp\ccCu6FW5.s 			page 60


 1518 035c 336A     		ldr	r3, [r6, #32]
 124:examples/looper.cpp ****                 out_sample = buffer[read_pos];
 1519              		.loc 14 124 33 view .LVU414
 1520 035e 3269     		ldr	r2, [r6, #16]
 1521              	.LBB753:
 1522              	.LBB750:
 119:examples/looper.cpp ****                 }
 1523              		.loc 14 119 43 view .LVU415
 1524 0360 90FBF1FC 		sdiv	ip, r0, r1
 1525 0364 0CFB1101 		mls	r1, ip, r1, r0
 119:examples/looper.cpp ****                 }
 1526              		.loc 14 119 57 view .LVU416
 1527 0368 0098     		ldr	r0, [sp]
 1528 036a 00FB01F1 		mul	r1, r0, r1
 119:examples/looper.cpp ****                 }
 1529              		.loc 14 119 33 view .LVU417
 1530 036e B161     		str	r1, [r6, #24]
 1531              	.LBE750:
 1532 0370 36E7     		b	.L35
 1533              	.LVL101:
 1534              	.L70:
 119:examples/looper.cpp ****                 }
 1535              		.loc 14 119 33 view .LVU418
 1536              	.LBE753:
 1537              	.LBE755:
 1538              	.LBE761:
 1539              	.LBE767:
 1540              	.LBE779:
 1541              	.LBE788:
 1542              	.LBE806:
 1543              	.LBB807:
 1544              	.LBB741:
 1545              	.LBB731:
 1546              	.LBB719:
 1547              	.LBB713:
 1548              	.LBB706:
 107:examples/looper.cpp ****                 else if (knob_val > 0.2f) divisions = 4;
 1549              		.loc 14 107 53 view .LVU419
 1550 0372 0821     		movs	r1, #8
 1551              	.LVL102:
 107:examples/looper.cpp ****                 else if (knob_val > 0.2f) divisions = 4;
 1552              		.loc 14 107 53 view .LVU420
 1553 0374 65E7     		b	.L53
 1554              	.LVL103:
 1555              	.L65:
 107:examples/looper.cpp ****                 else if (knob_val > 0.2f) divisions = 4;
 1556              		.loc 14 107 53 view .LVU421
 1557              	.LBE706:
 1558              	.LBE713:
 1559              	.LBE719:
 1560              	.LBE731:
 1561              	.LBE741:
 1562              	.LBE807:
 1563              	.LBB808:
 1564              	.LBB789:
 1565              	.LBB780:
 1566              	.LBB768:
ARM GAS  C:\Users\yaman\AppData\Local\Temp\ccCu6FW5.s 			page 61


 1567              	.LBB762:
 1568              	.LBB756:
 1569 0376 0821     		movs	r1, #8
 1570              	.LVL104:
 107:examples/looper.cpp ****                 else if (knob_val > 0.2f) divisions = 4;
 1571              		.loc 14 107 53 view .LVU422
 1572 0378 24E7     		b	.L32
 1573              	.LBE756:
 1574              	.LBE762:
 1575              	.LBE768:
 1576              	.LBE780:
 1577              	.LBE789:
 1578              	.LBE808:
 1579              	.LBE809:
 1580              		.cfi_endproc
 1581              	.LFE4756:
 1583              		.section	.text._ZN5daisy25OneBitGraphicsDisplayImplINS_11OledDisplayINS_13SSD130xDriverILj64ELj32E
 1584              		.align	1
 1585              		.p2align 2,,3
 1586              		.weak	_ZN5daisy25OneBitGraphicsDisplayImplINS_11OledDisplayINS_13SSD130xDriverILj64ELj32ENS_19SSD1
 1587              		.syntax unified
 1588              		.thumb
 1589              		.thumb_func
 1590              		.fpu fpv5-d16
 1592              	_ZN5daisy25OneBitGraphicsDisplayImplINS_11OledDisplayINS_13SSD130xDriverILj64ELj32ENS_19SSD130xI2CT
 1593              	.LVL105:
 1594              	.LFB5108:
 220:libDaisy/src/hid/disp/display.h **** 
 221:libDaisy/src/hid/disp/display.h ****     void DrawLine(uint_fast8_t x1,
 222:libDaisy/src/hid/disp/display.h ****                   uint_fast8_t y1,
 223:libDaisy/src/hid/disp/display.h ****                   uint_fast8_t x2,
 224:libDaisy/src/hid/disp/display.h ****                   uint_fast8_t y2,
 225:libDaisy/src/hid/disp/display.h ****                   bool         on) override
 226:libDaisy/src/hid/disp/display.h ****     {
 227:libDaisy/src/hid/disp/display.h ****         int_fast16_t deltaX = abs((int_fast16_t)x2 - (int_fast16_t)x1);
 228:libDaisy/src/hid/disp/display.h ****         int_fast16_t deltaY = abs((int_fast16_t)y2 - (int_fast16_t)y1);
 229:libDaisy/src/hid/disp/display.h ****         int_fast16_t signX  = ((x1 < x2) ? 1 : -1);
 230:libDaisy/src/hid/disp/display.h ****         int_fast16_t signY  = ((y1 < y2) ? 1 : -1);
 231:libDaisy/src/hid/disp/display.h ****         int_fast16_t error  = deltaX - deltaY;
 232:libDaisy/src/hid/disp/display.h ****         int_fast16_t error2;
 233:libDaisy/src/hid/disp/display.h **** 
 234:libDaisy/src/hid/disp/display.h ****         // If we write "ChildType::DrawPixel(x2, y2, on);", we end up with
 235:libDaisy/src/hid/disp/display.h ****         // all sorts of weird compiler errors when the Child class is a template
 236:libDaisy/src/hid/disp/display.h ****         // class. The only way around this is to use this very verbose syntax:
 237:libDaisy/src/hid/disp/display.h ****         ((ChildType*)(this))->ChildType::DrawPixel(x2, y2, on);
 238:libDaisy/src/hid/disp/display.h **** 
 239:libDaisy/src/hid/disp/display.h ****         while((x1 != x2) || (y1 != y2))
 240:libDaisy/src/hid/disp/display.h ****         {
 241:libDaisy/src/hid/disp/display.h ****             ((ChildType*)(this))->ChildType::DrawPixel(x1, y1, on);
 242:libDaisy/src/hid/disp/display.h ****             error2 = error * 2;
 243:libDaisy/src/hid/disp/display.h ****             if(error2 > -deltaY)
 244:libDaisy/src/hid/disp/display.h ****             {
 245:libDaisy/src/hid/disp/display.h ****                 error -= deltaY;
 246:libDaisy/src/hid/disp/display.h ****                 x1 += signX;
 247:libDaisy/src/hid/disp/display.h ****             }
 248:libDaisy/src/hid/disp/display.h **** 
 249:libDaisy/src/hid/disp/display.h ****             if(error2 < deltaX)
ARM GAS  C:\Users\yaman\AppData\Local\Temp\ccCu6FW5.s 			page 62


 250:libDaisy/src/hid/disp/display.h ****             {
 251:libDaisy/src/hid/disp/display.h ****                 error += deltaX;
 252:libDaisy/src/hid/disp/display.h ****                 y1 += signY;
 253:libDaisy/src/hid/disp/display.h ****             }
 254:libDaisy/src/hid/disp/display.h ****         }
 255:libDaisy/src/hid/disp/display.h ****     }
 256:libDaisy/src/hid/disp/display.h **** 
 257:libDaisy/src/hid/disp/display.h ****     void DrawRect(uint_fast8_t x1,
 258:libDaisy/src/hid/disp/display.h ****                   uint_fast8_t y1,
 259:libDaisy/src/hid/disp/display.h ****                   uint_fast8_t x2,
 260:libDaisy/src/hid/disp/display.h ****                   uint_fast8_t y2,
 261:libDaisy/src/hid/disp/display.h ****                   bool         on,
 262:libDaisy/src/hid/disp/display.h ****                   bool         fill = false) override
 263:libDaisy/src/hid/disp/display.h ****     {
 264:libDaisy/src/hid/disp/display.h ****         if(fill)
 265:libDaisy/src/hid/disp/display.h ****         {
 266:libDaisy/src/hid/disp/display.h ****             for(uint_fast8_t x = x1; x <= x2; x++)
 267:libDaisy/src/hid/disp/display.h ****             {
 268:libDaisy/src/hid/disp/display.h ****                 for(uint_fast8_t y = y1; y <= y2; y++)
 269:libDaisy/src/hid/disp/display.h ****                 {
 270:libDaisy/src/hid/disp/display.h ****                     ((ChildType*)(this))->ChildType::DrawPixel(x, y, on);
 271:libDaisy/src/hid/disp/display.h ****                 }
 272:libDaisy/src/hid/disp/display.h ****             }
 273:libDaisy/src/hid/disp/display.h ****         }
 274:libDaisy/src/hid/disp/display.h ****         else
 275:libDaisy/src/hid/disp/display.h ****         {
 276:libDaisy/src/hid/disp/display.h ****             ((ChildType*)(this))->ChildType::DrawLine(x1, y1, x2, y1, on);
 277:libDaisy/src/hid/disp/display.h ****             ((ChildType*)(this))->ChildType::DrawLine(x2, y1, x2, y2, on);
 278:libDaisy/src/hid/disp/display.h ****             ((ChildType*)(this))->ChildType::DrawLine(x2, y2, x1, y2, on);
 279:libDaisy/src/hid/disp/display.h ****             ((ChildType*)(this))->ChildType::DrawLine(x1, y2, x1, y1, on);
 280:libDaisy/src/hid/disp/display.h ****         }
 281:libDaisy/src/hid/disp/display.h ****     }
 282:libDaisy/src/hid/disp/display.h **** 
 283:libDaisy/src/hid/disp/display.h ****     void DrawArc(uint_fast8_t x,
 284:libDaisy/src/hid/disp/display.h ****                  uint_fast8_t y,
 285:libDaisy/src/hid/disp/display.h ****                  uint_fast8_t radius,
 286:libDaisy/src/hid/disp/display.h ****                  int_fast16_t start_angle,
 287:libDaisy/src/hid/disp/display.h ****                  int_fast16_t sweep,
 288:libDaisy/src/hid/disp/display.h ****                  bool         on) override
 289:libDaisy/src/hid/disp/display.h ****     {
 290:libDaisy/src/hid/disp/display.h ****         // Values to calculate the circle
 291:libDaisy/src/hid/disp/display.h ****         int_fast16_t t_x, t_y, err, e2;
 292:libDaisy/src/hid/disp/display.h **** 
 293:libDaisy/src/hid/disp/display.h ****         // Temporary values to speed up comparisons
 294:libDaisy/src/hid/disp/display.h ****         float t_sxy, t_syx, t_sxny, t_synx;
 295:libDaisy/src/hid/disp/display.h ****         float t_exy, t_eyx, t_exny, t_eynx;
 296:libDaisy/src/hid/disp/display.h **** 
 297:libDaisy/src/hid/disp/display.h ****         float start_angle_rad, end_angle_rad;
 298:libDaisy/src/hid/disp/display.h ****         float start_x, start_y, end_x, end_y;
 299:libDaisy/src/hid/disp/display.h **** 
 300:libDaisy/src/hid/disp/display.h ****         bool d1, d2, d3, d4;
 301:libDaisy/src/hid/disp/display.h **** 
 302:libDaisy/src/hid/disp/display.h ****         d1 = d2 = d3 = d4 = true;
 303:libDaisy/src/hid/disp/display.h **** 
 304:libDaisy/src/hid/disp/display.h ****         bool circle = false;
 305:libDaisy/src/hid/disp/display.h **** 
 306:libDaisy/src/hid/disp/display.h ****         if(sweep < 0)
ARM GAS  C:\Users\yaman\AppData\Local\Temp\ccCu6FW5.s 			page 63


 307:libDaisy/src/hid/disp/display.h ****         {
 308:libDaisy/src/hid/disp/display.h ****             start_angle += sweep;
 309:libDaisy/src/hid/disp/display.h ****             sweep = -sweep;
 310:libDaisy/src/hid/disp/display.h ****         }
 311:libDaisy/src/hid/disp/display.h **** 
 312:libDaisy/src/hid/disp/display.h ****         start_angle_rad = deg2rad(start_angle);
 313:libDaisy/src/hid/disp/display.h ****         end_angle_rad   = deg2rad(start_angle + sweep);
 314:libDaisy/src/hid/disp/display.h **** 
 315:libDaisy/src/hid/disp/display.h ****         start_x = cos(start_angle_rad) * radius;
 316:libDaisy/src/hid/disp/display.h ****         start_y = -sin(start_angle_rad) * radius;
 317:libDaisy/src/hid/disp/display.h ****         end_x   = cos(end_angle_rad) * radius;
 318:libDaisy/src/hid/disp/display.h ****         end_y   = -sin(end_angle_rad) * radius;
 319:libDaisy/src/hid/disp/display.h **** 
 320:libDaisy/src/hid/disp/display.h ****         // Check if start and endpoint are very near
 321:libDaisy/src/hid/disp/display.h ****         if((end_x - start_x) * (end_x - start_x)
 322:libDaisy/src/hid/disp/display.h ****                + (end_y - start_y) * (end_y - start_y)
 323:libDaisy/src/hid/disp/display.h ****            < 2.0f)
 324:libDaisy/src/hid/disp/display.h ****         {
 325:libDaisy/src/hid/disp/display.h ****             if(sweep > 180)
 326:libDaisy/src/hid/disp/display.h ****                 circle = true;
 327:libDaisy/src/hid/disp/display.h ****             else
 328:libDaisy/src/hid/disp/display.h ****                 // Nothing to draw
 329:libDaisy/src/hid/disp/display.h ****                 return;
 330:libDaisy/src/hid/disp/display.h ****         }
 331:libDaisy/src/hid/disp/display.h **** 
 332:libDaisy/src/hid/disp/display.h ****         t_x = -radius;
 333:libDaisy/src/hid/disp/display.h ****         t_y = 0;
 334:libDaisy/src/hid/disp/display.h ****         err = 2 - 2 * radius;
 335:libDaisy/src/hid/disp/display.h **** 
 336:libDaisy/src/hid/disp/display.h ****         do
 337:libDaisy/src/hid/disp/display.h ****         {
 338:libDaisy/src/hid/disp/display.h ****             if(!circle)
 339:libDaisy/src/hid/disp/display.h ****             {
 340:libDaisy/src/hid/disp/display.h ****                 t_sxy  = start_x * t_y;
 341:libDaisy/src/hid/disp/display.h ****                 t_syx  = start_y * t_x;
 342:libDaisy/src/hid/disp/display.h ****                 t_sxny = start_x * -t_y;
 343:libDaisy/src/hid/disp/display.h ****                 t_synx = start_y * -t_x;
 344:libDaisy/src/hid/disp/display.h ****                 t_exy  = end_x * t_y;
 345:libDaisy/src/hid/disp/display.h ****                 t_eyx  = end_y * t_x;
 346:libDaisy/src/hid/disp/display.h ****                 t_exny = end_x * -t_y;
 347:libDaisy/src/hid/disp/display.h ****                 t_eynx = end_y * -t_x;
 348:libDaisy/src/hid/disp/display.h **** 
 349:libDaisy/src/hid/disp/display.h ****                 if(sweep > 180)
 350:libDaisy/src/hid/disp/display.h ****                 {
 351:libDaisy/src/hid/disp/display.h ****                     d1 = (t_sxy - t_synx < 0 || t_exy - t_eynx > 0);
 352:libDaisy/src/hid/disp/display.h ****                     d2 = (t_sxy - t_syx < 0 || t_exy - t_eyx > 0);
 353:libDaisy/src/hid/disp/display.h ****                     d3 = (t_sxny - t_syx < 0 || t_exny - t_eyx > 0);
 354:libDaisy/src/hid/disp/display.h ****                     d4 = (t_sxny - t_synx < 0 || t_exny - t_eynx > 0);
 355:libDaisy/src/hid/disp/display.h ****                 }
 356:libDaisy/src/hid/disp/display.h ****                 else
 357:libDaisy/src/hid/disp/display.h ****                 {
 358:libDaisy/src/hid/disp/display.h ****                     d1 = (t_sxy - t_synx < 0 && t_exy - t_eynx > 0);
 359:libDaisy/src/hid/disp/display.h ****                     d2 = (t_sxy - t_syx < 0 && t_exy - t_eyx > 0);
 360:libDaisy/src/hid/disp/display.h ****                     d3 = (t_sxny - t_syx < 0 && t_exny - t_eyx > 0);
 361:libDaisy/src/hid/disp/display.h ****                     d4 = (t_sxny - t_synx < 0 && t_exny - t_eynx > 0);
 362:libDaisy/src/hid/disp/display.h ****                 }
 363:libDaisy/src/hid/disp/display.h ****             }
ARM GAS  C:\Users\yaman\AppData\Local\Temp\ccCu6FW5.s 			page 64


 364:libDaisy/src/hid/disp/display.h **** 
 365:libDaisy/src/hid/disp/display.h ****             if(d1)
 366:libDaisy/src/hid/disp/display.h ****                 ((ChildType*)(this))
 367:libDaisy/src/hid/disp/display.h ****                     ->ChildType::DrawPixel(x - t_x, y + t_y, on);
 368:libDaisy/src/hid/disp/display.h ****             if(d2)
 369:libDaisy/src/hid/disp/display.h ****                 ((ChildType*)(this))
 370:libDaisy/src/hid/disp/display.h ****                     ->ChildType::DrawPixel(x + t_x, y + t_y, on);
 371:libDaisy/src/hid/disp/display.h ****             if(d3)
 372:libDaisy/src/hid/disp/display.h ****                 ((ChildType*)(this))
 373:libDaisy/src/hid/disp/display.h ****                     ->ChildType::DrawPixel(x + t_x, y - t_y, on);
 374:libDaisy/src/hid/disp/display.h ****             if(d4)
 375:libDaisy/src/hid/disp/display.h ****                 ((ChildType*)(this))
 376:libDaisy/src/hid/disp/display.h ****                     ->ChildType::DrawPixel(x - t_x, y - t_y, on);
 377:libDaisy/src/hid/disp/display.h **** 
 378:libDaisy/src/hid/disp/display.h ****             e2 = err;
 379:libDaisy/src/hid/disp/display.h ****             if(e2 <= t_y)
 380:libDaisy/src/hid/disp/display.h ****             {
 381:libDaisy/src/hid/disp/display.h ****                 t_y++;
 382:libDaisy/src/hid/disp/display.h ****                 err = err + (t_y * 2 + 1);
 383:libDaisy/src/hid/disp/display.h ****                 if(-t_x == t_y && e2 <= t_x)
 384:libDaisy/src/hid/disp/display.h ****                 {
 385:libDaisy/src/hid/disp/display.h ****                     e2 = 0;
 386:libDaisy/src/hid/disp/display.h ****                 }
 387:libDaisy/src/hid/disp/display.h ****             }
 388:libDaisy/src/hid/disp/display.h ****             if(e2 > t_x)
 389:libDaisy/src/hid/disp/display.h ****             {
 390:libDaisy/src/hid/disp/display.h ****                 t_x++;
 391:libDaisy/src/hid/disp/display.h ****                 err = err + (t_x * 2 + 1);
 392:libDaisy/src/hid/disp/display.h ****             }
 393:libDaisy/src/hid/disp/display.h ****         } while(t_x <= 0);
 394:libDaisy/src/hid/disp/display.h ****     }
 395:libDaisy/src/hid/disp/display.h **** 
 396:libDaisy/src/hid/disp/display.h ****     char WriteChar(char ch, FontDef font, bool on) override
 397:libDaisy/src/hid/disp/display.h ****     {
 398:libDaisy/src/hid/disp/display.h ****         uint32_t i, b, j;
 399:libDaisy/src/hid/disp/display.h **** 
 400:libDaisy/src/hid/disp/display.h ****         // Check if character is valid
 401:libDaisy/src/hid/disp/display.h ****         if(ch < 32 || ch > 126)
 402:libDaisy/src/hid/disp/display.h ****             return 0;
 403:libDaisy/src/hid/disp/display.h **** 
 404:libDaisy/src/hid/disp/display.h ****         // Check remaining space on current line
 405:libDaisy/src/hid/disp/display.h ****         if(Width() < (currentX_ + font.FontWidth)
 406:libDaisy/src/hid/disp/display.h ****            || Height() < (currentY_ + font.FontHeight))
 407:libDaisy/src/hid/disp/display.h ****         {
 408:libDaisy/src/hid/disp/display.h ****             // Not enough space on current line
 409:libDaisy/src/hid/disp/display.h ****             return 0;
 410:libDaisy/src/hid/disp/display.h ****         }
 411:libDaisy/src/hid/disp/display.h **** 
 412:libDaisy/src/hid/disp/display.h ****         // Use the font to write
 413:libDaisy/src/hid/disp/display.h ****         for(i = 0; i < font.FontHeight; i++)
 414:libDaisy/src/hid/disp/display.h ****         {
 415:libDaisy/src/hid/disp/display.h ****             b = font.data[(ch - 32) * font.FontHeight + i];
 416:libDaisy/src/hid/disp/display.h ****             for(j = 0; j < font.FontWidth; j++)
 417:libDaisy/src/hid/disp/display.h ****             {
 418:libDaisy/src/hid/disp/display.h ****                 if((b << j) & 0x8000)
 419:libDaisy/src/hid/disp/display.h ****                 {
 420:libDaisy/src/hid/disp/display.h ****                     ((ChildType*)(this))
ARM GAS  C:\Users\yaman\AppData\Local\Temp\ccCu6FW5.s 			page 65


 421:libDaisy/src/hid/disp/display.h ****                         ->ChildType::DrawPixel(
 422:libDaisy/src/hid/disp/display.h ****                             currentX_ + j, (currentY_ + i), on);
 423:libDaisy/src/hid/disp/display.h ****                 }
 424:libDaisy/src/hid/disp/display.h ****                 else
 425:libDaisy/src/hid/disp/display.h ****                 {
 426:libDaisy/src/hid/disp/display.h ****                     ((ChildType*)(this))
 427:libDaisy/src/hid/disp/display.h ****                         ->ChildType::DrawPixel(
 428:libDaisy/src/hid/disp/display.h ****                             currentX_ + j, (currentY_ + i), !on);
 429:libDaisy/src/hid/disp/display.h ****                 }
 430:libDaisy/src/hid/disp/display.h ****             }
 431:libDaisy/src/hid/disp/display.h ****         }
 432:libDaisy/src/hid/disp/display.h **** 
 433:libDaisy/src/hid/disp/display.h ****         // The current space is now taken
 434:libDaisy/src/hid/disp/display.h ****         SetCursor(currentX_ + font.FontWidth, currentY_);
 435:libDaisy/src/hid/disp/display.h **** 
 436:libDaisy/src/hid/disp/display.h ****         // Return written char for validation
 437:libDaisy/src/hid/disp/display.h ****         return ch;
 438:libDaisy/src/hid/disp/display.h ****     }
 439:libDaisy/src/hid/disp/display.h **** 
 440:libDaisy/src/hid/disp/display.h ****     char WriteString(const char* str, FontDef font, bool on) override
 1595              		.loc 3 440 10 is_stmt 1 view -0
 1596              		.cfi_startproc
 1597              		@ args = 4, pretend = 0, frame = 40
 1598              		@ frame_needed = 0, uses_anonymous_args = 0
 1599              		.loc 3 440 10 is_stmt 0 view .LVU424
 1600 0000 2DE9F04F 		push	{r4, r5, r6, r7, r8, r9, r10, fp, lr}
 1601              		.cfi_def_cfa_offset 36
 1602              		.cfi_offset 4, -36
 1603              		.cfi_offset 5, -32
 1604              		.cfi_offset 6, -28
 1605              		.cfi_offset 7, -24
 1606              		.cfi_offset 8, -20
 1607              		.cfi_offset 9, -16
 1608              		.cfi_offset 10, -12
 1609              		.cfi_offset 11, -8
 1610              		.cfi_offset 14, -4
 1611 0004 8BB0     		sub	sp, sp, #44
 1612              		.cfi_def_cfa_offset 80
 441:libDaisy/src/hid/disp/display.h ****     {
 442:libDaisy/src/hid/disp/display.h ****         // Write until null-byte
 443:libDaisy/src/hid/disp/display.h ****         while(*str)
 1613              		.loc 3 443 9 view .LVU425
 1614 0006 0F78     		ldrb	r7, [r1]	@ zero_extendqisi2
 440:libDaisy/src/hid/disp/display.h ****     {
 1615              		.loc 3 440 10 view .LVU426
 1616 0008 9DF85040 		ldrb	r4, [sp, #80]	@ zero_extendqisi2
 1617 000c 0191     		str	r1, [sp, #4]
 1618 000e 0794     		str	r4, [sp, #28]
 1619 0010 0AAC     		add	r4, sp, #40
 1620 0012 04E90C00 		stmdb	r4, {r2, r3}
 1621              		.loc 3 443 9 is_stmt 1 view .LVU427
 1622 0016 002F     		cmp	r7, #0
 1623 0018 00F0BA80 		beq	.L127
 1624 001c 9DF82130 		ldrb	r3, [sp, #33]	@ zero_extendqisi2
 1625 0020 8246     		mov	r10, r0
 1626 0022 9DF82060 		ldrb	r6, [sp, #32]	@ zero_extendqisi2
 1627 0026 0493     		str	r3, [sp, #16]
ARM GAS  C:\Users\yaman\AppData\Local\Temp\ccCu6FW5.s 			page 66


 1628 0028 099B     		ldr	r3, [sp, #36]
 1629 002a 0693     		str	r3, [sp, #24]
 1630              	.LVL106:
 1631              	.L128:
 1632              	.LBB838:
 1633              	.LBI838:
 396:libDaisy/src/hid/disp/display.h ****     {
 1634              		.loc 3 396 10 view .LVU428
 1635              	.LBB839:
 401:libDaisy/src/hid/disp/display.h ****             return 0;
 1636              		.loc 3 401 20 is_stmt 0 view .LVU429
 1637 002c A7F12004 		sub	r4, r7, #32
 401:libDaisy/src/hid/disp/display.h ****             return 0;
 1638              		.loc 3 401 9 view .LVU430
 1639 0030 E3B2     		uxtb	r3, r4
 1640 0032 5E2B     		cmp	r3, #94
 1641 0034 00F2AD80 		bhi	.L101
 405:libDaisy/src/hid/disp/display.h ****            || Height() < (currentY_ + font.FontHeight))
 1642              		.loc 3 405 17 view .LVU431
 1643 0038 DAF80030 		ldr	r3, [r10]
 1644 003c 794A     		ldr	r2, .L152
 1645 003e DB68     		ldr	r3, [r3, #12]
 1646 0040 9342     		cmp	r3, r2
 1647 0042 40F0CE80 		bne	.L144
 1648 0046 4020     		movs	r0, #64
 1649              	.L103:
 405:libDaisy/src/hid/disp/display.h ****            || Height() < (currentY_ + font.FontHeight))
 1650              		.loc 3 405 23 view .LVU432
 1651 0048 BAF80430 		ldrh	r3, [r10, #4]
 405:libDaisy/src/hid/disp/display.h ****            || Height() < (currentY_ + font.FontHeight))
 1652              		.loc 3 405 33 view .LVU433
 1653 004c 3344     		add	r3, r3, r6
 406:libDaisy/src/hid/disp/display.h ****         {
 1654              		.loc 3 406 12 view .LVU434
 1655 004e 8342     		cmp	r3, r0
 1656 0050 00F3C380 		bgt	.L143
 406:libDaisy/src/hid/disp/display.h ****         {
 1657              		.loc 3 406 21 view .LVU435
 1658 0054 DAF80030 		ldr	r3, [r10]
 1659 0058 734A     		ldr	r2, .L152+4
 1660 005a 9B68     		ldr	r3, [r3, #8]
 1661 005c 9342     		cmp	r3, r2
 1662 005e 40F0C380 		bne	.L145
 1663 0062 2020     		movs	r0, #32
 1664              	.L106:
 406:libDaisy/src/hid/disp/display.h ****         {
 1665              		.loc 3 406 27 view .LVU436
 1666 0064 BAF80630 		ldrh	r3, [r10, #6]
 406:libDaisy/src/hid/disp/display.h ****         {
 1667              		.loc 3 406 37 view .LVU437
 1668 0068 049A     		ldr	r2, [sp, #16]
 406:libDaisy/src/hid/disp/display.h ****         {
 1669              		.loc 3 406 27 view .LVU438
 1670 006a 0393     		str	r3, [sp, #12]
 406:libDaisy/src/hid/disp/display.h ****         {
 1671              		.loc 3 406 37 view .LVU439
 1672 006c 1344     		add	r3, r3, r2
ARM GAS  C:\Users\yaman\AppData\Local\Temp\ccCu6FW5.s 			page 67


 406:libDaisy/src/hid/disp/display.h ****         {
 1673              		.loc 3 406 12 view .LVU440
 1674 006e 8342     		cmp	r3, r0
 1675 0070 00F3B380 		bgt	.L143
 1676              	.LVL107:
 413:libDaisy/src/hid/disp/display.h ****         {
 1677              		.loc 3 413 22 is_stmt 1 view .LVU441
 1678 0074 002A     		cmp	r2, #0
 1679 0076 00F0C280 		beq	.L108
 415:libDaisy/src/hid/disp/display.h ****             for(j = 0; j < font.FontWidth; j++)
 1680              		.loc 3 415 37 is_stmt 0 view .LVU442
 1681 007a 02FB04F4 		mul	r4, r2, r4
 1682 007e 6FF0004E 		mvn	lr, #-2147483648
 1683 0082 069B     		ldr	r3, [sp, #24]
 1684 0084 A644     		add	lr, lr, r4
 1685 0086 1444     		add	r4, r4, r2
 434:libDaisy/src/hid/disp/display.h **** 
 1686              		.loc 3 434 19 view .LVU443
 1687 0088 BAF80480 		ldrh	r8, [r10, #4]
 1688 008c 03EB4E0E 		add	lr, r3, lr, lsl #1
 1689 0090 023B     		subs	r3, r3, #2
 1690 0092 DDF80CC0 		ldr	ip, [sp, #12]
 1691 0096 03EB4403 		add	r3, r3, r4, lsl #1
 1692 009a DDF81C90 		ldr	r9, [sp, #28]
 1693 009e 0597     		str	r7, [sp, #20]
 1694 00a0 0293     		str	r3, [sp, #8]
 1695              	.LVL108:
 1696              	.L111:
 415:libDaisy/src/hid/disp/display.h ****             for(j = 0; j < font.FontWidth; j++)
 1697              		.loc 3 415 15 view .LVU444
 1698 00a2 3EF8020F 		ldrh	r0, [lr, #2]!
 1699              	.LVL109:
 416:libDaisy/src/hid/disp/display.h ****             {
 1700              		.loc 3 416 26 is_stmt 1 view .LVU445
 1701 00a6 002E     		cmp	r6, #0
 1702 00a8 3BD0     		beq	.L115
 1703              	.LBB840:
 1704              	.LBB841:
 1705              	.LBB842:
 1706              	.LBB843:
 1707              	.LBB844:
 246:libDaisy/src/dev/oled_ssd130x.h ****     }
 1708              		.loc 13 246 55 is_stmt 0 view .LVU446
 1709 00aa 0CF00703 		and	r3, ip, #7
 246:libDaisy/src/dev/oled_ssd130x.h ****     }
 1710              		.loc 13 246 49 view .LVU447
 1711 00ae 0125     		movs	r5, #1
 246:libDaisy/src/dev/oled_ssd130x.h ****     }
 1712              		.loc 13 246 28 view .LVU448
 1713 00b0 4FEADC02 		lsr	r2, ip, #3
 1714 00b4 08F11001 		add	r1, r8, #16
 246:libDaisy/src/dev/oled_ssd130x.h ****     }
 1715              		.loc 13 246 49 view .LVU449
 1716 00b8 9D40     		lsls	r5, r5, r3
 1717              	.LBE844:
 1718              	.LBE843:
 1719              	.LBE842:
ARM GAS  C:\Users\yaman\AppData\Local\Temp\ccCu6FW5.s 			page 68


 1720              	.LBE841:
 1721              	.LBE840:
 1722              	.LBB866:
 1723              	.LBB867:
 1724              	.LBB868:
 241:libDaisy/src/dev/oled_ssd130x.h ****             return;
 1725              		.loc 13 241 28 view .LVU450
 1726 00ba BCF11F0F 		cmp	ip, #31
 1727              	.LBE868:
 1728              	.LBE867:
 1729              	.LBE866:
 1730              	.LBB888:
 1731              	.LBB859:
 1732              	.LBB854:
 1733              	.LBB849:
 1734              	.LBB845:
 246:libDaisy/src/dev/oled_ssd130x.h ****     }
 1735              		.loc 13 246 42 view .LVU451
 1736 00be 4FEA8212 		lsl	r2, r2, #6
 1737              	.LBE845:
 1738              	.LBE849:
 1739              	.LBE854:
 1740              	.LBE859:
 1741              	.LBE888:
 422:libDaisy/src/hid/disp/display.h ****                 }
 1742              		.loc 3 422 29 view .LVU452
 1743 00c2 4346     		mov	r3, r8
 1744              	.LBB889:
 1745              	.LBB860:
 1746              	.LBB855:
 1747              	.LBB850:
 1748              	.LBB846:
 246:libDaisy/src/dev/oled_ssd130x.h ****     }
 1749              		.loc 13 246 42 view .LVU453
 1750 00c4 6DB2     		sxtb	r5, r5
 1751              	.LBE846:
 1752              	.LBE850:
 1753              	.LBE855:
 1754              	.LBE860:
 1755              	.LBE889:
 1756              	.LBB890:
 1757              	.LBB881:
 1758              	.LBB876:
 241:libDaisy/src/dev/oled_ssd130x.h ****             return;
 1759              		.loc 13 241 28 view .LVU454
 1760 00c6 98BF     		it	ls
 1761 00c8 0024     		movls	r4, #0
 1762 00ca 1144     		add	r1, r1, r2
 1763 00cc 88BF     		it	hi
 1764 00ce 0124     		movhi	r4, #1
 1765              	.LBE876:
 1766              	.LBE881:
 1767              	.LBE890:
 1768              	.LBB891:
 1769              	.LBB861:
 1770              	.LBB856:
 1771              	.LBB851:
ARM GAS  C:\Users\yaman\AppData\Local\Temp\ccCu6FW5.s 			page 69


 1772              	.LBB847:
 246:libDaisy/src/dev/oled_ssd130x.h ****     }
 1773              		.loc 13 246 42 view .LVU455
 1774 00d0 EF43     		mvns	r7, r5
 1775 00d2 5144     		add	r1, r1, r10
 1776 00d4 B9F1000F 		cmp	r9, #0
 1777 00d8 5FD1     		bne	.L112
 1778              	.LBE847:
 1779              	.LBE851:
 1780              	.LBE856:
 1781              	.LBE861:
 1782              	.LBE891:
 416:libDaisy/src/hid/disp/display.h ****             {
 1783              		.loc 3 416 19 view .LVU456
 1784 00da 4A46     		mov	r2, r9
 1785 00dc 0DE0     		b	.L116
 1786              	.LVL110:
 1787              	.L146:
 1788              	.LBB892:
 1789              	.LBB862:
 1790              	.LBB857:
 241:libDaisy/src/dev/oled_ssd130x.h ****             return;
 1791              		.loc 13 241 9 view .LVU457
 1792 00de 3F2B     		cmp	r3, #63
 1793 00e0 06D8     		bhi	.L114
 1794 00e2 2CB9     		cbnz	r4, .L114
 244:libDaisy/src/dev/oled_ssd130x.h ****         else
 1795              		.loc 13 244 42 view .LVU458
 1796 00e4 91F800B0 		ldrb	fp, [r1]	@ zero_extendqisi2
 1797 00e8 45EA0B0B 		orr	fp, r5, fp
 1798 00ec 81F800B0 		strb	fp, [r1]
 1799              	.L114:
 1800              	.LVL111:
 244:libDaisy/src/dev/oled_ssd130x.h ****         else
 1801              		.loc 13 244 42 view .LVU459
 1802              	.LBE857:
 1803              	.LBE862:
 1804              	.LBE892:
 416:libDaisy/src/hid/disp/display.h ****             {
 1805              		.loc 3 416 13 is_stmt 1 view .LVU460
 1806 00f0 0132     		adds	r2, r2, #1
 1807              	.LVL112:
 416:libDaisy/src/hid/disp/display.h ****             {
 1808              		.loc 3 416 26 view .LVU461
 1809 00f2 0131     		adds	r1, r1, #1
 1810 00f4 0133     		adds	r3, r3, #1
 1811 00f6 B242     		cmp	r2, r6
 1812 00f8 13D0     		beq	.L115
 1813              	.LVL113:
 1814              	.L116:
 1815              	.LBB893:
 1816              	.LBI840:
  42:libDaisy/src/hid/disp/oled_display.h ****     {
 1817              		.loc 2 42 10 view .LVU462
 1818              	.LBB863:
 1819              	.LBI841:
 239:libDaisy/src/dev/oled_ssd130x.h ****     {
ARM GAS  C:\Users\yaman\AppData\Local\Temp\ccCu6FW5.s 			page 70


 1820              		.loc 13 239 10 view .LVU463
 239:libDaisy/src/dev/oled_ssd130x.h ****     {
 1821              		.loc 13 239 10 is_stmt 0 view .LVU464
 1822              	.LBE863:
 1823              	.LBE893:
 1824              	.LBB894:
 1825              	.LBI866:
  42:libDaisy/src/hid/disp/oled_display.h ****     {
 1826              		.loc 2 42 10 is_stmt 1 view .LVU465
 1827              	.LBB882:
 1828              	.LBI867:
 239:libDaisy/src/dev/oled_ssd130x.h ****     {
 1829              		.loc 13 239 10 view .LVU466
 1830              	.LBE882:
 1831              	.LBE894:
 418:libDaisy/src/hid/disp/display.h ****                 {
 1832              		.loc 3 418 23 is_stmt 0 view .LVU467
 1833 00fa 00FA02FB 		lsl	fp, r0, r2
 418:libDaisy/src/hid/disp/display.h ****                 {
 1834              		.loc 3 418 17 view .LVU468
 1835 00fe 1BF4004F 		tst	fp, #32768
 1836 0102 ECD0     		beq	.L146
 1837              	.LVL114:
 1838              	.LBB895:
 1839              	.LBB883:
 1840              	.LBB877:
 1841              	.LBB869:
 1842              	.LBI869:
 239:libDaisy/src/dev/oled_ssd130x.h ****     {
 1843              		.loc 13 239 10 is_stmt 1 view .LVU469
 239:libDaisy/src/dev/oled_ssd130x.h ****     {
 1844              		.loc 13 239 10 is_stmt 0 view .LVU470
 1845              	.LBE869:
 241:libDaisy/src/dev/oled_ssd130x.h ****             return;
 1846              		.loc 13 241 9 view .LVU471
 1847 0104 3F2B     		cmp	r3, #63
 1848 0106 F3D8     		bhi	.L114
 1849 0108 002C     		cmp	r4, #0
 1850 010a F1D1     		bne	.L114
 1851              	.LBB873:
 1852              	.LBB870:
 246:libDaisy/src/dev/oled_ssd130x.h ****     }
 1853              		.loc 13 246 42 view .LVU472
 1854 010c 91F800B0 		ldrb	fp, [r1]	@ zero_extendqisi2
 1855              	.LBE870:
 1856              	.LBE873:
 1857              	.LBE877:
 1858              	.LBE883:
 1859              	.LBE895:
 416:libDaisy/src/hid/disp/display.h ****             {
 1860              		.loc 3 416 13 view .LVU473
 1861 0110 0132     		adds	r2, r2, #1
 1862              	.LVL115:
 416:libDaisy/src/hid/disp/display.h ****             {
 1863              		.loc 3 416 26 view .LVU474
 1864 0112 0131     		adds	r1, r1, #1
 1865 0114 0133     		adds	r3, r3, #1
ARM GAS  C:\Users\yaman\AppData\Local\Temp\ccCu6FW5.s 			page 71


 1866              	.LBB896:
 1867              	.LBB884:
 1868              	.LBB878:
 1869              	.LBB874:
 1870              	.LBB871:
 246:libDaisy/src/dev/oled_ssd130x.h ****     }
 1871              		.loc 13 246 42 view .LVU475
 1872 0116 07EA0B0B 		and	fp, r7, fp
 1873              	.LBE871:
 1874              	.LBE874:
 1875              	.LBE878:
 1876              	.LBE884:
 1877              	.LBE896:
 416:libDaisy/src/hid/disp/display.h ****             {
 1878              		.loc 3 416 26 view .LVU476
 1879 011a B242     		cmp	r2, r6
 1880              	.LBB897:
 1881              	.LBB885:
 1882              	.LBB879:
 1883              	.LBB875:
 1884              	.LBB872:
 246:libDaisy/src/dev/oled_ssd130x.h ****     }
 1885              		.loc 13 246 42 view .LVU477
 1886 011c 01F801BC 		strb	fp, [r1, #-1]
 1887              	.LVL116:
 246:libDaisy/src/dev/oled_ssd130x.h ****     }
 1888              		.loc 13 246 42 view .LVU478
 1889              	.LBE872:
 1890              	.LBE875:
 1891              	.LBE879:
 1892              	.LBE885:
 1893              	.LBE897:
 416:libDaisy/src/hid/disp/display.h ****             {
 1894              		.loc 3 416 13 is_stmt 1 view .LVU479
 416:libDaisy/src/hid/disp/display.h ****             {
 1895              		.loc 3 416 26 view .LVU480
 1896 0120 EBD1     		bne	.L116
 1897              	.LVL117:
 1898              	.L115:
 413:libDaisy/src/hid/disp/display.h ****         {
 1899              		.loc 3 413 9 view .LVU481
 413:libDaisy/src/hid/disp/display.h ****         {
 1900              		.loc 3 413 22 view .LVU482
 1901 0122 029B     		ldr	r3, [sp, #8]
 1902 0124 0CF1010C 		add	ip, ip, #1
 1903 0128 7345     		cmp	r3, lr
 1904 012a BAD1     		bne	.L111
 1905 012c 059F     		ldr	r7, [sp, #20]
 1906              	.LVL118:
 1907              	.L110:
 1908              	.LBB898:
 1909              	.LBB899:
 173:libDaisy/src/hid/disp/display.h ****         currentY_ = (y >= Height()) ? Height() - 1 : y;
 1910              		.loc 3 173 33 is_stmt 0 view .LVU483
 1911 012e DAF80020 		ldr	r2, [r10]
 1912              	.LBE899:
 1913              	.LBE898:
ARM GAS  C:\Users\yaman\AppData\Local\Temp\ccCu6FW5.s 			page 72


 434:libDaisy/src/hid/disp/display.h **** 
 1914              		.loc 3 434 18 view .LVU484
 1915 0132 08EB0604 		add	r4, r8, r6
 1916 0136 3B49     		ldr	r1, .L152
 1917              	.LBB904:
 1918              	.LBB900:
 173:libDaisy/src/hid/disp/display.h ****         currentY_ = (y >= Height()) ? Height() - 1 : y;
 1919              		.loc 3 173 33 view .LVU485
 1920 0138 D368     		ldr	r3, [r2, #12]
 1921              	.LBE900:
 1922              	.LBE904:
 434:libDaisy/src/hid/disp/display.h **** 
 1923              		.loc 3 434 18 view .LVU486
 1924 013a A4B2     		uxth	r4, r4
 1925              	.LVL119:
 1926              	.LBB905:
 1927              	.LBI898:
 171:libDaisy/src/hid/disp/display.h ****     {
 1928              		.loc 3 171 10 is_stmt 1 view .LVU487
 1929              	.LBB901:
 173:libDaisy/src/hid/disp/display.h ****         currentY_ = (y >= Height()) ? Height() - 1 : y;
 1930              		.loc 3 173 9 view .LVU488
 1931 013c 8B42     		cmp	r3, r1
 1932 013e 59D1     		bne	.L147
 173:libDaisy/src/hid/disp/display.h ****         currentY_ = (y >= Height()) ? Height() - 1 : y;
 1933              		.loc 3 173 33 is_stmt 0 view .LVU489
 1934 0140 4020     		movs	r0, #64
 1935              	.L120:
 173:libDaisy/src/hid/disp/display.h ****         currentY_ = (y >= Height()) ? Height() - 1 : y;
 1936              		.loc 3 173 19 view .LVU490
 1937 0142 8442     		cmp	r4, r0
 1938 0144 04D3     		bcc	.L121
 173:libDaisy/src/hid/disp/display.h ****         currentY_ = (y >= Height()) ? Height() - 1 : y;
 1939              		.loc 3 173 44 view .LVU491
 1940 0146 D368     		ldr	r3, [r2, #12]
 1941 0148 3649     		ldr	r1, .L152
 1942 014a 8B42     		cmp	r3, r1
 1943 014c 60D1     		bne	.L148
 1944 014e 3F24     		movs	r4, #63
 1945              	.LVL120:
 1946              	.L121:
 174:libDaisy/src/hid/disp/display.h ****     }
 1947              		.loc 3 174 34 view .LVU492
 1948 0150 9368     		ldr	r3, [r2, #8]
 1949 0152 354A     		ldr	r2, .L152+4
 173:libDaisy/src/hid/disp/display.h ****         currentY_ = (y >= Height()) ? Height() - 1 : y;
 1950              		.loc 3 173 19 view .LVU493
 1951 0154 AAF80440 		strh	r4, [r10, #4]	@ movhi
 174:libDaisy/src/hid/disp/display.h ****     }
 1952              		.loc 3 174 9 is_stmt 1 view .LVU494
 1953 0158 9342     		cmp	r3, r2
 1954 015a 48D1     		bne	.L149
 174:libDaisy/src/hid/disp/display.h ****     }
 1955              		.loc 3 174 34 is_stmt 0 view .LVU495
 1956 015c 2020     		movs	r0, #32
 1957              	.L123:
 174:libDaisy/src/hid/disp/display.h ****     }
ARM GAS  C:\Users\yaman\AppData\Local\Temp\ccCu6FW5.s 			page 73


 1958              		.loc 3 174 19 view .LVU496
 1959 015e 039B     		ldr	r3, [sp, #12]
 1960 0160 8342     		cmp	r3, r0
 1961 0162 07D3     		bcc	.L124
 174:libDaisy/src/hid/disp/display.h ****     }
 1962              		.loc 3 174 46 view .LVU497
 1963 0164 DAF80030 		ldr	r3, [r10]
 1964 0168 2F4A     		ldr	r2, .L152+4
 1965 016a 9B68     		ldr	r3, [r3, #8]
 1966 016c 9342     		cmp	r3, r2
 1967 016e 49D1     		bne	.L150
 1968 0170 1F23     		movs	r3, #31
 1969 0172 0393     		str	r3, [sp, #12]
 1970              	.LVL121:
 1971              	.L124:
 174:libDaisy/src/hid/disp/display.h ****     }
 1972              		.loc 3 174 19 view .LVU498
 1973 0174 039B     		ldr	r3, [sp, #12]
 1974 0176 AAF80630 		strh	r3, [r10, #6]	@ movhi
 1975              	.LBE901:
 1976              	.LBE905:
 1977              	.LBE839:
 1978              	.LBE838:
 444:libDaisy/src/hid/disp/display.h ****         {
 445:libDaisy/src/hid/disp/display.h ****             if(((ChildType*)(this))->ChildType::WriteChar(*str, font, on)
 446:libDaisy/src/hid/disp/display.h ****                != *str)
 1979              		.loc 3 446 16 view .LVU499
 1980 017a 019B     		ldr	r3, [sp, #4]
 1981 017c 1B78     		ldrb	r3, [r3]	@ zero_extendqisi2
 1982              	.LVL122:
 1983              	.L105:
 445:libDaisy/src/hid/disp/display.h ****                != *str)
 1984              		.loc 3 445 13 view .LVU500
 1985 017e 9F42     		cmp	r7, r3
 1986 0180 4DD1     		bne	.L135
 1987              	.LVL123:
 443:libDaisy/src/hid/disp/display.h ****         {
 1988              		.loc 3 443 9 is_stmt 1 view .LVU501
 1989 0182 019B     		ldr	r3, [sp, #4]
 1990 0184 13F8017F 		ldrb	r7, [r3, #1]!	@ zero_extendqisi2
 1991              	.LVL124:
 443:libDaisy/src/hid/disp/display.h ****         {
 1992              		.loc 3 443 9 is_stmt 0 view .LVU502
 1993 0188 0193     		str	r3, [sp, #4]
 1994 018a 002F     		cmp	r7, #0
 1995 018c 7FF44EAF 		bne	.L128
 1996              	.LVL125:
 1997              	.L127:
 443:libDaisy/src/hid/disp/display.h ****         {
 1998              		.loc 3 443 9 view .LVU503
 1999 0190 0027     		movs	r7, #0
 2000              	.L101:
 447:libDaisy/src/hid/disp/display.h ****             {
 448:libDaisy/src/hid/disp/display.h ****                 // Char could not be written
 449:libDaisy/src/hid/disp/display.h ****                 return *str;
 450:libDaisy/src/hid/disp/display.h ****             }
 451:libDaisy/src/hid/disp/display.h **** 
ARM GAS  C:\Users\yaman\AppData\Local\Temp\ccCu6FW5.s 			page 74


 452:libDaisy/src/hid/disp/display.h ****             // Next char
 453:libDaisy/src/hid/disp/display.h ****             str++;
 454:libDaisy/src/hid/disp/display.h ****         }
 455:libDaisy/src/hid/disp/display.h **** 
 456:libDaisy/src/hid/disp/display.h ****         // Everything ok
 457:libDaisy/src/hid/disp/display.h ****         return *str;
 458:libDaisy/src/hid/disp/display.h ****     }
 2001              		.loc 3 458 5 view .LVU504
 2002 0192 3846     		mov	r0, r7
 2003 0194 0BB0     		add	sp, sp, #44
 2004              		.cfi_remember_state
 2005              		.cfi_def_cfa_offset 36
 2006              		@ sp needed
 2007 0196 BDE8F08F 		pop	{r4, r5, r6, r7, r8, r9, r10, fp, pc}
 2008              	.LVL126:
 2009              	.L112:
 2010              		.cfi_restore_state
 2011              	.LBB915:
 2012              	.LBB912:
 416:libDaisy/src/hid/disp/display.h ****             {
 2013              		.loc 3 416 19 view .LVU505
 2014 019a 0022     		movs	r2, #0
 2015 019c 0DE0     		b	.L119
 2016              	.LVL127:
 2017              	.L151:
 2018              	.LBB906:
 2019              	.LBB886:
 2020              	.LBB880:
 241:libDaisy/src/dev/oled_ssd130x.h ****             return;
 2021              		.loc 13 241 9 view .LVU506
 2022 019e 3F2B     		cmp	r3, #63
 2023 01a0 06D8     		bhi	.L118
 2024 01a2 2CB9     		cbnz	r4, .L118
 244:libDaisy/src/dev/oled_ssd130x.h ****         else
 2025              		.loc 13 244 42 view .LVU507
 2026 01a4 91F800B0 		ldrb	fp, [r1]	@ zero_extendqisi2
 2027 01a8 45EA0B0B 		orr	fp, r5, fp
 2028 01ac 81F800B0 		strb	fp, [r1]
 2029              	.L118:
 2030              	.LVL128:
 244:libDaisy/src/dev/oled_ssd130x.h ****         else
 2031              		.loc 13 244 42 view .LVU508
 2032              	.LBE880:
 2033              	.LBE886:
 2034              	.LBE906:
 416:libDaisy/src/hid/disp/display.h ****             {
 2035              		.loc 3 416 13 is_stmt 1 view .LVU509
 2036 01b0 0132     		adds	r2, r2, #1
 2037              	.LVL129:
 416:libDaisy/src/hid/disp/display.h ****             {
 2038              		.loc 3 416 26 view .LVU510
 2039 01b2 0131     		adds	r1, r1, #1
 2040 01b4 0133     		adds	r3, r3, #1
 2041 01b6 B242     		cmp	r2, r6
 2042 01b8 B3D0     		beq	.L115
 2043              	.LVL130:
 2044              	.L119:
ARM GAS  C:\Users\yaman\AppData\Local\Temp\ccCu6FW5.s 			page 75


 2045              	.LBB907:
  42:libDaisy/src/hid/disp/oled_display.h ****     {
 2046              		.loc 2 42 10 view .LVU511
 2047              	.LBB887:
 239:libDaisy/src/dev/oled_ssd130x.h ****     {
 2048              		.loc 13 239 10 view .LVU512
 239:libDaisy/src/dev/oled_ssd130x.h ****     {
 2049              		.loc 13 239 10 is_stmt 0 view .LVU513
 2050              	.LBE887:
 2051              	.LBE907:
 2052              	.LBB908:
  42:libDaisy/src/hid/disp/oled_display.h ****     {
 2053              		.loc 2 42 10 is_stmt 1 view .LVU514
 2054              	.LBB864:
 239:libDaisy/src/dev/oled_ssd130x.h ****     {
 2055              		.loc 13 239 10 view .LVU515
 2056              	.LBE864:
 2057              	.LBE908:
 418:libDaisy/src/hid/disp/display.h ****                 {
 2058              		.loc 3 418 23 is_stmt 0 view .LVU516
 2059 01ba 00FA02FB 		lsl	fp, r0, r2
 418:libDaisy/src/hid/disp/display.h ****                 {
 2060              		.loc 3 418 17 view .LVU517
 2061 01be 1BF4004F 		tst	fp, #32768
 2062 01c2 ECD1     		bne	.L151
 2063              	.LVL131:
 2064              	.LBB909:
 2065              	.LBB865:
 2066              	.LBB858:
 2067              	.LBB852:
 2068              	.LBI843:
 239:libDaisy/src/dev/oled_ssd130x.h ****     {
 2069              		.loc 13 239 10 is_stmt 1 view .LVU518
 239:libDaisy/src/dev/oled_ssd130x.h ****     {
 2070              		.loc 13 239 10 is_stmt 0 view .LVU519
 2071              	.LBE852:
 241:libDaisy/src/dev/oled_ssd130x.h ****             return;
 2072              		.loc 13 241 9 view .LVU520
 2073 01c4 3F2B     		cmp	r3, #63
 2074 01c6 F3D8     		bhi	.L118
 2075 01c8 002C     		cmp	r4, #0
 2076 01ca F1D1     		bne	.L118
 2077              	.LBB853:
 2078              	.LBB848:
 246:libDaisy/src/dev/oled_ssd130x.h ****     }
 2079              		.loc 13 246 42 view .LVU521
 2080 01cc 91F800B0 		ldrb	fp, [r1]	@ zero_extendqisi2
 2081 01d0 07EA0B0B 		and	fp, r7, fp
 2082 01d4 81F800B0 		strb	fp, [r1]
 2083 01d8 EAE7     		b	.L118
 2084              	.LVL132:
 2085              	.L143:
 246:libDaisy/src/dev/oled_ssd130x.h ****     }
 2086              		.loc 13 246 42 view .LVU522
 2087              	.LBE848:
 2088              	.LBE853:
 2089              	.LBE858:
ARM GAS  C:\Users\yaman\AppData\Local\Temp\ccCu6FW5.s 			page 76


 2090              	.LBE865:
 2091              	.LBE909:
 2092              	.LBE912:
 2093              	.LBE915:
 446:libDaisy/src/hid/disp/display.h ****             {
 2094              		.loc 3 446 16 view .LVU523
 2095 01da 019B     		ldr	r3, [sp, #4]
 2096              	.LBB916:
 2097              	.LBB913:
 409:libDaisy/src/hid/disp/display.h ****         }
 2098              		.loc 3 409 20 view .LVU524
 2099 01dc 0027     		movs	r7, #0
 2100              	.LVL133:
 409:libDaisy/src/hid/disp/display.h ****         }
 2101              		.loc 3 409 20 view .LVU525
 2102              	.LBE913:
 2103              	.LBE916:
 446:libDaisy/src/hid/disp/display.h ****             {
 2104              		.loc 3 446 16 view .LVU526
 2105 01de 1B78     		ldrb	r3, [r3]	@ zero_extendqisi2
 2106 01e0 CDE7     		b	.L105
 2107              	.LVL134:
 2108              	.L144:
 2109              	.LBB917:
 2110              	.LBB914:
 405:libDaisy/src/hid/disp/display.h ****            || Height() < (currentY_ + font.FontHeight))
 2111              		.loc 3 405 17 view .LVU527
 2112 01e2 5046     		mov	r0, r10
 2113 01e4 9847     		blx	r3
 2114              	.LVL135:
 2115 01e6 2FE7     		b	.L103
 2116              	.L145:
 406:libDaisy/src/hid/disp/display.h ****         {
 2117              		.loc 3 406 21 view .LVU528
 2118 01e8 5046     		mov	r0, r10
 2119 01ea 9847     		blx	r3
 2120              	.LVL136:
 2121 01ec 3AE7     		b	.L106
 2122              	.LVL137:
 2123              	.L149:
 2124              	.LBB910:
 2125              	.LBB902:
 174:libDaisy/src/hid/disp/display.h ****     }
 2126              		.loc 3 174 33 view .LVU529
 2127 01ee 5046     		mov	r0, r10
 2128 01f0 9847     		blx	r3
 2129              	.LVL138:
 2130 01f2 B4E7     		b	.L123
 2131              	.LVL139:
 2132              	.L147:
 173:libDaisy/src/hid/disp/display.h ****         currentY_ = (y >= Height()) ? Height() - 1 : y;
 2133              		.loc 3 173 32 view .LVU530
 2134 01f4 5046     		mov	r0, r10
 2135 01f6 9847     		blx	r3
 2136              	.LVL140:
 173:libDaisy/src/hid/disp/display.h ****         currentY_ = (y >= Height()) ? Height() - 1 : y;
 2137              		.loc 3 173 44 view .LVU531
ARM GAS  C:\Users\yaman\AppData\Local\Temp\ccCu6FW5.s 			page 77


 2138 01f8 DAF80020 		ldr	r2, [r10]
 2139 01fc A1E7     		b	.L120
 2140              	.LVL141:
 2141              	.L108:
 173:libDaisy/src/hid/disp/display.h ****         currentY_ = (y >= Height()) ? Height() - 1 : y;
 2142              		.loc 3 173 44 view .LVU532
 2143              	.LBE902:
 2144              	.LBE910:
 434:libDaisy/src/hid/disp/display.h **** 
 2145              		.loc 3 434 19 view .LVU533
 2146 01fe BAF80480 		ldrh	r8, [r10, #4]
 2147 0202 94E7     		b	.L110
 2148              	.LVL142:
 2149              	.L150:
 2150              	.LBB911:
 2151              	.LBB903:
 174:libDaisy/src/hid/disp/display.h ****     }
 2152              		.loc 3 174 45 view .LVU534
 2153 0204 5046     		mov	r0, r10
 2154 0206 9847     		blx	r3
 2155              	.LVL143:
 174:libDaisy/src/hid/disp/display.h ****     }
 2156              		.loc 3 174 19 view .LVU535
 2157 0208 0138     		subs	r0, r0, #1
 2158 020a 83B2     		uxth	r3, r0
 2159 020c 0393     		str	r3, [sp, #12]
 2160              	.LVL144:
 174:libDaisy/src/hid/disp/display.h ****     }
 2161              		.loc 3 174 19 view .LVU536
 2162 020e B1E7     		b	.L124
 2163              	.LVL145:
 2164              	.L148:
 173:libDaisy/src/hid/disp/display.h ****         currentY_ = (y >= Height()) ? Height() - 1 : y;
 2165              		.loc 3 173 43 view .LVU537
 2166 0210 5046     		mov	r0, r10
 2167 0212 9847     		blx	r3
 2168              	.LVL146:
 173:libDaisy/src/hid/disp/display.h ****         currentY_ = (y >= Height()) ? Height() - 1 : y;
 2169              		.loc 3 173 19 view .LVU538
 2170 0214 0138     		subs	r0, r0, #1
 174:libDaisy/src/hid/disp/display.h ****     }
 2171              		.loc 3 174 34 view .LVU539
 2172 0216 DAF80020 		ldr	r2, [r10]
 173:libDaisy/src/hid/disp/display.h ****         currentY_ = (y >= Height()) ? Height() - 1 : y;
 2173              		.loc 3 173 19 view .LVU540
 2174 021a 84B2     		uxth	r4, r0
 2175              	.LVL147:
 173:libDaisy/src/hid/disp/display.h ****         currentY_ = (y >= Height()) ? Height() - 1 : y;
 2176              		.loc 3 173 19 view .LVU541
 2177 021c 98E7     		b	.L121
 2178              	.LVL148:
 2179              	.L135:
 173:libDaisy/src/hid/disp/display.h ****         currentY_ = (y >= Height()) ? Height() - 1 : y;
 2180              		.loc 3 173 19 view .LVU542
 2181              	.LBE903:
 2182              	.LBE911:
 2183              	.LBE914:
ARM GAS  C:\Users\yaman\AppData\Local\Temp\ccCu6FW5.s 			page 78


 2184              	.LBE917:
 2185 021e 1F46     		mov	r7, r3
 2186 0220 B7E7     		b	.L101
 2187              	.L153:
 2188 0222 00BF     		.align	2
 2189              	.L152:
 2190 0224 00000000 		.word	_ZNK5daisy11OledDisplayINS_13SSD130xDriverILj64ELj32ENS_19SSD130xI2CTransportEEEE5WidthEv
 2191 0228 00000000 		.word	_ZNK5daisy11OledDisplayINS_13SSD130xDriverILj64ELj32ENS_19SSD130xI2CTransportEEEE6HeightEv
 2192              		.cfi_endproc
 2193              	.LFE5108:
 2195              		.section	.text._ZN5daisy11OledDisplayINS_13SSD130xDriverILj64ELj32ENS_19SSD130xI2CTransportEEEE9Dr
 2196              		.align	1
 2197              		.p2align 2,,3
 2198              		.weak	_ZN5daisy11OledDisplayINS_13SSD130xDriverILj64ELj32ENS_19SSD130xI2CTransportEEEE9DrawPixelEj
 2199              		.syntax unified
 2200              		.thumb
 2201              		.thumb_func
 2202              		.fpu fpv5-d16
 2204              	_ZN5daisy11OledDisplayINS_13SSD130xDriverILj64ELj32ENS_19SSD130xI2CTransportEEEE9DrawPixelEjjb:
 2205              	.LVL149:
 2206              	.LFB5239:
  42:libDaisy/src/hid/disp/oled_display.h ****     {
 2207              		.loc 2 42 10 is_stmt 1 view -0
 2208              		.cfi_startproc
 2209              		@ args = 0, pretend = 0, frame = 0
 2210              		@ frame_needed = 0, uses_anonymous_args = 0
 2211              		@ link register save eliminated.
 2212              	.LBB922:
 2213              	.LBI922:
 239:libDaisy/src/dev/oled_ssd130x.h ****     {
 2214              		.loc 13 239 10 view .LVU544
 2215              	.LBB923:
 241:libDaisy/src/dev/oled_ssd130x.h ****             return;
 2216              		.loc 13 241 9 is_stmt 0 view .LVU545
 2217 0000 3F29     		cmp	r1, #63
 2218 0002 1ED8     		bhi	.L154
 2219 0004 1F2A     		cmp	r2, #31
 2220 0006 1CD8     		bhi	.L154
 243:libDaisy/src/dev/oled_ssd130x.h ****             buffer_[x + (y / 8) * width] |= (1 << (y % 8));
 2221              		.loc 13 243 9 view .LVU546
 2222 0008 6BB1     		cbz	r3, .L156
 244:libDaisy/src/dev/oled_ssd130x.h ****         else
 2223              		.loc 13 244 28 view .LVU547
 2224 000a D308     		lsrs	r3, r2, #3
 2225              	.LVL150:
 244:libDaisy/src/dev/oled_ssd130x.h ****         else
 2226              		.loc 13 244 48 view .LVU548
 2227 000c 4FF0010C 		mov	ip, #1
 244:libDaisy/src/dev/oled_ssd130x.h ****         else
 2228              		.loc 13 244 54 view .LVU549
 2229 0010 02F00702 		and	r2, r2, #7
 2230              	.LVL151:
 244:libDaisy/src/dev/oled_ssd130x.h ****         else
 2231              		.loc 13 244 42 view .LVU550
 2232 0014 01EB8313 		add	r3, r1, r3, lsl #6
 244:libDaisy/src/dev/oled_ssd130x.h ****         else
 2233              		.loc 13 244 48 view .LVU551
ARM GAS  C:\Users\yaman\AppData\Local\Temp\ccCu6FW5.s 			page 79


 2234 0018 0CFA02F2 		lsl	r2, ip, r2
 244:libDaisy/src/dev/oled_ssd130x.h ****         else
 2235              		.loc 13 244 42 view .LVU552
 2236 001c C118     		adds	r1, r0, r3
 2237              	.LVL152:
 244:libDaisy/src/dev/oled_ssd130x.h ****         else
 2238              		.loc 13 244 42 view .LVU553
 2239 001e 0B7C     		ldrb	r3, [r1, #16]	@ zero_extendqisi2
 2240 0020 1A43     		orrs	r2, r2, r3
 2241 0022 0A74     		strb	r2, [r1, #16]
 2242 0024 7047     		bx	lr
 2243              	.LVL153:
 2244              	.L156:
 2245              	.LBB924:
 2246              	.LBI924:
 239:libDaisy/src/dev/oled_ssd130x.h ****     {
 2247              		.loc 13 239 10 is_stmt 1 view .LVU554
 2248              	.LBB925:
 246:libDaisy/src/dev/oled_ssd130x.h ****     }
 2249              		.loc 13 246 28 is_stmt 0 view .LVU555
 2250 0026 D308     		lsrs	r3, r2, #3
 2251              	.LVL154:
 246:libDaisy/src/dev/oled_ssd130x.h ****     }
 2252              		.loc 13 246 49 view .LVU556
 2253 0028 4FF0010C 		mov	ip, #1
 246:libDaisy/src/dev/oled_ssd130x.h ****     }
 2254              		.loc 13 246 55 view .LVU557
 2255 002c 02F00702 		and	r2, r2, #7
 2256              	.LVL155:
 246:libDaisy/src/dev/oled_ssd130x.h ****     }
 2257              		.loc 13 246 42 view .LVU558
 2258 0030 01EB8313 		add	r3, r1, r3, lsl #6
 246:libDaisy/src/dev/oled_ssd130x.h ****     }
 2259              		.loc 13 246 49 view .LVU559
 2260 0034 0CFA02FC 		lsl	ip, ip, r2
 246:libDaisy/src/dev/oled_ssd130x.h ****     }
 2261              		.loc 13 246 42 view .LVU560
 2262 0038 C118     		adds	r1, r0, r3
 2263              	.LVL156:
 246:libDaisy/src/dev/oled_ssd130x.h ****     }
 2264              		.loc 13 246 42 view .LVU561
 2265 003a 0A7C     		ldrb	r2, [r1, #16]	@ zero_extendqisi2
 2266 003c 22EA0C02 		bic	r2, r2, ip
 2267 0040 0A74     		strb	r2, [r1, #16]
 2268              	.LVL157:
 2269              	.L154:
 246:libDaisy/src/dev/oled_ssd130x.h ****     }
 2270              		.loc 13 246 42 view .LVU562
 2271              	.LBE925:
 2272              	.LBE924:
 2273              	.LBE923:
 2274              	.LBE922:
  45:libDaisy/src/hid/disp/oled_display.h **** 
 2275              		.loc 2 45 5 view .LVU563
 2276 0042 7047     		bx	lr
 2277              		.cfi_endproc
 2278              	.LFE5239:
ARM GAS  C:\Users\yaman\AppData\Local\Temp\ccCu6FW5.s 			page 80


 2280              		.section	.text._ZN5daisy25OneBitGraphicsDisplayImplINS_11OledDisplayINS_13SSD130xDriverILj64ELj32E
 2281              		.align	1
 2282              		.p2align 2,,3
 2283              		.weak	_ZN5daisy25OneBitGraphicsDisplayImplINS_11OledDisplayINS_13SSD130xDriverILj64ELj32ENS_19SSD1
 2284              		.syntax unified
 2285              		.thumb
 2286              		.thumb_func
 2287              		.fpu fpv5-d16
 2289              	_ZN5daisy25OneBitGraphicsDisplayImplINS_11OledDisplayINS_13SSD130xDriverILj64ELj32ENS_19SSD130xI2CT
 2290              	.LVL158:
 2291              	.LFB5385:
 459:libDaisy/src/hid/disp/display.h **** 
 460:libDaisy/src/hid/disp/display.h ****     Rectangle WriteStringAligned(const char*    str,
 2292              		.loc 3 460 15 is_stmt 1 view -0
 2293              		.cfi_startproc
 2294              		@ args = 12, pretend = 0, frame = 40
 2295              		@ frame_needed = 0, uses_anonymous_args = 0
 2296              		.loc 3 460 15 is_stmt 0 view .LVU565
 2297 0000 2DE9F04F 		push	{r4, r5, r6, r7, r8, r9, r10, fp, lr}
 2298              		.cfi_def_cfa_offset 36
 2299              		.cfi_offset 4, -36
 2300              		.cfi_offset 5, -32
 2301              		.cfi_offset 6, -28
 2302              		.cfi_offset 7, -24
 2303              		.cfi_offset 8, -20
 2304              		.cfi_offset 9, -16
 2305              		.cfi_offset 10, -12
 2306              		.cfi_offset 11, -8
 2307              		.cfi_offset 14, -4
 2308 0004 8BB0     		sub	sp, sp, #44
 2309              		.cfi_def_cfa_offset 80
 2310              		.loc 3 460 15 view .LVU566
 2311 0006 1D46     		mov	r5, r3
 2312 0008 0F46     		mov	r7, r1
 2313              	.LVL159:
 2314              	.LBB1064:
 2315              	.LBI1064:
 461:libDaisy/src/hid/disp/display.h ****                                  const FontDef& font,
 462:libDaisy/src/hid/disp/display.h ****                                  Rectangle      boundingBox,
 463:libDaisy/src/hid/disp/display.h ****                                  Alignment      alignment,
 464:libDaisy/src/hid/disp/display.h ****                                  bool           on) override
 465:libDaisy/src/hid/disp/display.h ****     {
 466:libDaisy/src/hid/disp/display.h ****         const auto alignedRect
 467:libDaisy/src/hid/disp/display.h ****             = GetTextRect(str, font).AlignedWithin(boundingBox, alignment);
 468:libDaisy/src/hid/disp/display.h ****         SetCursor(alignedRect.GetX(), alignedRect.GetY());
 469:libDaisy/src/hid/disp/display.h ****         ((ChildType*)(this))->ChildType::WriteString(str, font, on);
 470:libDaisy/src/hid/disp/display.h ****         return alignedRect;
 471:libDaisy/src/hid/disp/display.h ****     }
 472:libDaisy/src/hid/disp/display.h **** 
 473:libDaisy/src/hid/disp/display.h ****   private:
 474:libDaisy/src/hid/disp/display.h ****     uint32_t strlen(const char* string)
 475:libDaisy/src/hid/disp/display.h ****     {
 476:libDaisy/src/hid/disp/display.h ****         uint32_t result = 0;
 477:libDaisy/src/hid/disp/display.h ****         while(*string++ != '\0')
 478:libDaisy/src/hid/disp/display.h ****             result++;
 479:libDaisy/src/hid/disp/display.h ****         return result;
 480:libDaisy/src/hid/disp/display.h ****     }
ARM GAS  C:\Users\yaman\AppData\Local\Temp\ccCu6FW5.s 			page 81


 481:libDaisy/src/hid/disp/display.h **** 
 482:libDaisy/src/hid/disp/display.h ****     Rectangle GetTextRect(const char* text, const FontDef& font)
 2316              		.loc 3 482 15 is_stmt 1 view .LVU567
 2317              	.LBB1065:
 2318              	.LBB1066:
 2319              	.LBI1066:
 474:libDaisy/src/hid/disp/display.h ****     {
 2320              		.loc 3 474 14 view .LVU568
 2321              	.LBB1067:
 477:libDaisy/src/hid/disp/display.h ****             result++;
 2322              		.loc 3 477 25 view .LVU569
 2323              	.LBE1067:
 2324              	.LBE1066:
 2325              	.LBE1065:
 2326              	.LBE1064:
 460:libDaisy/src/hid/disp/display.h ****                                  const FontDef& font,
 2327              		.loc 3 460 15 is_stmt 0 view .LVU570
 2328 000a 9DF85830 		ldrb	r3, [sp, #88]	@ zero_extendqisi2
 2329              	.LVL160:
 460:libDaisy/src/hid/disp/display.h ****                                  const FontDef& font,
 2330              		.loc 3 460 15 view .LVU571
 2331 000e 0790     		str	r0, [sp, #28]
 2332              	.LBB1082:
 2333              	.LBB1078:
 2334              	.LBB1071:
 2335              	.LBB1068:
 477:libDaisy/src/hid/disp/display.h ****             result++;
 2336              		.loc 3 477 25 view .LVU572
 2337 0010 1046     		mov	r0, r2
 2338              	.LVL161:
 477:libDaisy/src/hid/disp/display.h ****             result++;
 2339              		.loc 3 477 25 view .LVU573
 2340              	.LBE1068:
 2341              	.LBE1071:
 2342              	.LBE1078:
 2343              	.LBE1082:
 460:libDaisy/src/hid/disp/display.h ****                                  const FontDef& font,
 2344              		.loc 3 460 15 view .LVU574
 2345 0012 0993     		str	r3, [sp, #36]
 2346              	.LBB1083:
 2347              	.LBB1079:
 2348              	.LBB1072:
 2349              	.LBB1069:
 477:libDaisy/src/hid/disp/display.h ****             result++;
 2350              		.loc 3 477 25 view .LVU575
 2351 0014 10F8013B 		ldrb	r3, [r0], #1	@ zero_extendqisi2
 2352              	.LVL162:
 477:libDaisy/src/hid/disp/display.h ****             result++;
 2353              		.loc 3 477 25 view .LVU576
 2354              	.LBE1069:
 2355              	.LBE1072:
 2356              	.LBE1079:
 2357              	.LBE1083:
 460:libDaisy/src/hid/disp/display.h ****                                  const FontDef& font,
 2358              		.loc 3 460 15 view .LVU577
 2359 0018 DDF850C0 		ldr	ip, [sp, #80]
 2360 001c 1599     		ldr	r1, [sp, #84]
ARM GAS  C:\Users\yaman\AppData\Local\Temp\ccCu6FW5.s 			page 82


 2361              	.LVL163:
 460:libDaisy/src/hid/disp/display.h ****                                  const FontDef& font,
 2362              		.loc 3 460 15 view .LVU578
 2363 001e 0092     		str	r2, [sp]
 2364              	.LBB1084:
 2365              	.LBB1080:
 2366              	.LBB1073:
 2367              	.LBB1070:
 477:libDaisy/src/hid/disp/display.h ****             result++;
 2368              		.loc 3 477 25 view .LVU579
 2369 0020 33B1     		cbz	r3, .L158
 476:libDaisy/src/hid/disp/display.h ****         while(*string++ != '\0')
 2370              		.loc 3 476 18 view .LVU580
 2371 0022 0022     		movs	r2, #0
 2372              	.LVL164:
 2373              	.L159:
 477:libDaisy/src/hid/disp/display.h ****             result++;
 2374              		.loc 3 477 25 view .LVU581
 2375 0024 10F8013B 		ldrb	r3, [r0], #1	@ zero_extendqisi2
 2376              	.LVL165:
 478:libDaisy/src/hid/disp/display.h ****         return result;
 2377              		.loc 3 478 13 view .LVU582
 2378 0028 0132     		adds	r2, r2, #1
 2379              	.LVL166:
 477:libDaisy/src/hid/disp/display.h ****             result++;
 2380              		.loc 3 477 25 is_stmt 1 view .LVU583
 2381 002a 002B     		cmp	r3, #0
 2382 002c FAD1     		bne	.L159
 2383              	.LBE1070:
 2384              	.LBE1073:
 483:libDaisy/src/hid/disp/display.h ****     {
 484:libDaisy/src/hid/disp/display.h ****         const auto numChars = strlen(text);
 485:libDaisy/src/hid/disp/display.h ****         return {int16_t(numChars * font.FontWidth), font.FontHeight};
 2385              		.loc 3 485 68 is_stmt 0 view .LVU584
 2386 002e 93B2     		uxth	r3, r2
 2387              	.LVL167:
 2388              	.L158:
 2389              		.loc 3 485 68 view .LVU585
 2390 0030 2A78     		ldrb	r2, [r5]	@ zero_extendqisi2
 2391              		.loc 3 485 58 view .LVU586
 2392 0032 6878     		ldrb	r0, [r5, #1]	@ zero_extendqisi2
 2393              		.loc 3 485 68 view .LVU587
 2394 0034 12FB03F3 		smulbb	r3, r2, r3
 2395 0038 02B2     		sxth	r2, r0
 2396              	.LVL168:
 2397              	.LBB1074:
 2398              	.LBI1074:
 2399              		.file 16 "libDaisy/src/hid/disp/graphics_common.h"
   1:libDaisy/src/hid/disp/graphics_common.h **** #pragma once
   2:libDaisy/src/hid/disp/graphics_common.h **** 
   3:libDaisy/src/hid/disp/graphics_common.h **** #include <cstdint>
   4:libDaisy/src/hid/disp/graphics_common.h **** 
   5:libDaisy/src/hid/disp/graphics_common.h **** namespace daisy
   6:libDaisy/src/hid/disp/graphics_common.h **** {
   7:libDaisy/src/hid/disp/graphics_common.h **** /** Justifications */
   8:libDaisy/src/hid/disp/graphics_common.h **** enum class Alignment
   9:libDaisy/src/hid/disp/graphics_common.h **** {
ARM GAS  C:\Users\yaman\AppData\Local\Temp\ccCu6FW5.s 			page 83


  10:libDaisy/src/hid/disp/graphics_common.h ****     centered,
  11:libDaisy/src/hid/disp/graphics_common.h ****     topLeft,
  12:libDaisy/src/hid/disp/graphics_common.h ****     topCentered,
  13:libDaisy/src/hid/disp/graphics_common.h ****     topRight,
  14:libDaisy/src/hid/disp/graphics_common.h ****     bottomLeft,
  15:libDaisy/src/hid/disp/graphics_common.h ****     bottomCentered,
  16:libDaisy/src/hid/disp/graphics_common.h ****     bottomRight,
  17:libDaisy/src/hid/disp/graphics_common.h ****     centeredLeft,
  18:libDaisy/src/hid/disp/graphics_common.h ****     centeredRight
  19:libDaisy/src/hid/disp/graphics_common.h **** };
  20:libDaisy/src/hid/disp/graphics_common.h **** 
  21:libDaisy/src/hid/disp/graphics_common.h **** class Rectangle
  22:libDaisy/src/hid/disp/graphics_common.h **** {
  23:libDaisy/src/hid/disp/graphics_common.h ****   public:
  24:libDaisy/src/hid/disp/graphics_common.h ****     Rectangle() : x_(0), y_(0), width_(0), height_(0) {}
  25:libDaisy/src/hid/disp/graphics_common.h **** 
  26:libDaisy/src/hid/disp/graphics_common.h ****     Rectangle(int16_t width, int16_t height)
 2400              		.loc 16 26 5 is_stmt 1 view .LVU588
 2401              	.LBB1075:
 2402              	.LBI1075:
  27:libDaisy/src/hid/disp/graphics_common.h ****     : x_(0), y_(0), width_(max(0, width)), height_(max(0, height))
  28:libDaisy/src/hid/disp/graphics_common.h ****     {
  29:libDaisy/src/hid/disp/graphics_common.h ****     }
  30:libDaisy/src/hid/disp/graphics_common.h **** 
  31:libDaisy/src/hid/disp/graphics_common.h ****     Rectangle(int16_t x, int16_t y, int16_t width, int16_t height)
  32:libDaisy/src/hid/disp/graphics_common.h ****     : x_(x), y_(y), width_(max(0, width)), height_(max(0, height))
  33:libDaisy/src/hid/disp/graphics_common.h ****     {
  34:libDaisy/src/hid/disp/graphics_common.h ****     }
  35:libDaisy/src/hid/disp/graphics_common.h **** 
  36:libDaisy/src/hid/disp/graphics_common.h ****     Rectangle(const Rectangle& other) { *this = other; }
  37:libDaisy/src/hid/disp/graphics_common.h **** 
  38:libDaisy/src/hid/disp/graphics_common.h ****     Rectangle& operator=(const Rectangle& other)
  39:libDaisy/src/hid/disp/graphics_common.h ****     {
  40:libDaisy/src/hid/disp/graphics_common.h ****         x_      = other.x_;
  41:libDaisy/src/hid/disp/graphics_common.h ****         y_      = other.y_;
  42:libDaisy/src/hid/disp/graphics_common.h ****         width_  = other.width_;
  43:libDaisy/src/hid/disp/graphics_common.h ****         height_ = other.height_;
  44:libDaisy/src/hid/disp/graphics_common.h ****         return *this;
  45:libDaisy/src/hid/disp/graphics_common.h ****     }
  46:libDaisy/src/hid/disp/graphics_common.h **** 
  47:libDaisy/src/hid/disp/graphics_common.h ****     bool operator==(const Rectangle& other) const
  48:libDaisy/src/hid/disp/graphics_common.h ****     {
  49:libDaisy/src/hid/disp/graphics_common.h ****         return (x_ == other.x_) && (y_ == other.y_) && (width_ == other.width_)
  50:libDaisy/src/hid/disp/graphics_common.h ****                && (height_ == other.height_);
  51:libDaisy/src/hid/disp/graphics_common.h ****     }
  52:libDaisy/src/hid/disp/graphics_common.h ****     bool operator!=(const Rectangle& other) const { return !(*this == other); }
  53:libDaisy/src/hid/disp/graphics_common.h **** 
  54:libDaisy/src/hid/disp/graphics_common.h ****     bool IsEmpty() const { return (width_ <= 0) || (height_ <= 0); }
  55:libDaisy/src/hid/disp/graphics_common.h **** 
  56:libDaisy/src/hid/disp/graphics_common.h ****     int16_t GetX() const { return x_; }
  57:libDaisy/src/hid/disp/graphics_common.h ****     int16_t GetY() const { return y_; }
  58:libDaisy/src/hid/disp/graphics_common.h ****     int16_t GetWidth() const { return width_; }
  59:libDaisy/src/hid/disp/graphics_common.h ****     int16_t GetHeight() const { return height_; }
  60:libDaisy/src/hid/disp/graphics_common.h ****     int16_t GetRight() const { return x_ + width_; }
  61:libDaisy/src/hid/disp/graphics_common.h ****     int16_t GetBottom() const { return y_ + height_; }
  62:libDaisy/src/hid/disp/graphics_common.h ****     int16_t GetCenterX() const { return x_ + width_ / 2; }
  63:libDaisy/src/hid/disp/graphics_common.h ****     int16_t GetCenterY() const { return y_ + height_ / 2; }
ARM GAS  C:\Users\yaman\AppData\Local\Temp\ccCu6FW5.s 			page 84


  64:libDaisy/src/hid/disp/graphics_common.h **** 
  65:libDaisy/src/hid/disp/graphics_common.h ****     Rectangle WithX(int16_t x) const { return {x, y_, width_, height_}; }
  66:libDaisy/src/hid/disp/graphics_common.h ****     Rectangle WithY(int16_t y) const { return {x_, y, width_, height_}; }
  67:libDaisy/src/hid/disp/graphics_common.h ****     Rectangle WithWidth(int16_t width) const
  68:libDaisy/src/hid/disp/graphics_common.h ****     {
  69:libDaisy/src/hid/disp/graphics_common.h ****         return {x_, y_, width, height_};
  70:libDaisy/src/hid/disp/graphics_common.h ****     }
  71:libDaisy/src/hid/disp/graphics_common.h ****     Rectangle WithHeight(int16_t height) const
  72:libDaisy/src/hid/disp/graphics_common.h ****     {
  73:libDaisy/src/hid/disp/graphics_common.h ****         return {x_, y_, width_, height};
  74:libDaisy/src/hid/disp/graphics_common.h ****     }
  75:libDaisy/src/hid/disp/graphics_common.h ****     Rectangle WithSize(int16_t width, int16_t height) const
  76:libDaisy/src/hid/disp/graphics_common.h ****     {
  77:libDaisy/src/hid/disp/graphics_common.h ****         return {x_, y_, width, height};
  78:libDaisy/src/hid/disp/graphics_common.h ****     }
  79:libDaisy/src/hid/disp/graphics_common.h ****     Rectangle WithWidthKeepingCenter(int16_t width) const
  80:libDaisy/src/hid/disp/graphics_common.h ****     {
  81:libDaisy/src/hid/disp/graphics_common.h ****         return Rectangle(x_, y_, width, height_)
  82:libDaisy/src/hid/disp/graphics_common.h ****             .WithCenter(GetCenterX(), GetCenterY());
  83:libDaisy/src/hid/disp/graphics_common.h ****     }
  84:libDaisy/src/hid/disp/graphics_common.h ****     Rectangle WithHeightKeepingCenter(int16_t height) const
  85:libDaisy/src/hid/disp/graphics_common.h ****     {
  86:libDaisy/src/hid/disp/graphics_common.h ****         return Rectangle(x_, y_, width_, height)
  87:libDaisy/src/hid/disp/graphics_common.h ****             .WithCenter(GetCenterX(), GetCenterY());
  88:libDaisy/src/hid/disp/graphics_common.h ****     }
  89:libDaisy/src/hid/disp/graphics_common.h ****     Rectangle WithSizeKeepingCenter(int16_t width, int16_t height) const
  90:libDaisy/src/hid/disp/graphics_common.h ****     {
  91:libDaisy/src/hid/disp/graphics_common.h ****         return Rectangle(x_, y_, width, height)
  92:libDaisy/src/hid/disp/graphics_common.h ****             .WithCenter(GetCenterX(), GetCenterY());
  93:libDaisy/src/hid/disp/graphics_common.h ****     }
  94:libDaisy/src/hid/disp/graphics_common.h **** 
  95:libDaisy/src/hid/disp/graphics_common.h ****     Rectangle Reduced(int16_t sizeToReduce) const
  96:libDaisy/src/hid/disp/graphics_common.h ****     {
  97:libDaisy/src/hid/disp/graphics_common.h ****         return {int16_t(x_ + sizeToReduce),
  98:libDaisy/src/hid/disp/graphics_common.h ****                 int16_t(y_ + sizeToReduce),
  99:libDaisy/src/hid/disp/graphics_common.h ****                 int16_t(width_ - 2 * sizeToReduce),
 100:libDaisy/src/hid/disp/graphics_common.h ****                 int16_t(height_ - 2 * sizeToReduce)};
 101:libDaisy/src/hid/disp/graphics_common.h ****     }
 102:libDaisy/src/hid/disp/graphics_common.h ****     Rectangle Reduced(int16_t xToReduce, int16_t yToReduce) const
 103:libDaisy/src/hid/disp/graphics_common.h ****     {
 104:libDaisy/src/hid/disp/graphics_common.h ****         return {int16_t(x_ + xToReduce),
 105:libDaisy/src/hid/disp/graphics_common.h ****                 int16_t(y_ + yToReduce),
 106:libDaisy/src/hid/disp/graphics_common.h ****                 int16_t(width_ - 2 * xToReduce),
 107:libDaisy/src/hid/disp/graphics_common.h ****                 int16_t(height_ - 2 * yToReduce)};
 108:libDaisy/src/hid/disp/graphics_common.h ****     }
 109:libDaisy/src/hid/disp/graphics_common.h **** 
 110:libDaisy/src/hid/disp/graphics_common.h ****     Rectangle Translated(int16_t x, int16_t y) const
 111:libDaisy/src/hid/disp/graphics_common.h ****     {
 112:libDaisy/src/hid/disp/graphics_common.h ****         return {int16_t(x_ + x), int16_t(y_ + y), width_, height_};
 113:libDaisy/src/hid/disp/graphics_common.h ****     }
 114:libDaisy/src/hid/disp/graphics_common.h **** 
 115:libDaisy/src/hid/disp/graphics_common.h ****     Rectangle WithLeft(int16_t left) const
 116:libDaisy/src/hid/disp/graphics_common.h ****     {
 117:libDaisy/src/hid/disp/graphics_common.h ****         const auto newWidth = int16_t((x_ - left) + width_);
 118:libDaisy/src/hid/disp/graphics_common.h ****         return {left, y_, newWidth, height_};
 119:libDaisy/src/hid/disp/graphics_common.h ****     }
 120:libDaisy/src/hid/disp/graphics_common.h **** 
ARM GAS  C:\Users\yaman\AppData\Local\Temp\ccCu6FW5.s 			page 85


 121:libDaisy/src/hid/disp/graphics_common.h ****     Rectangle WithRight(int16_t right) const
 122:libDaisy/src/hid/disp/graphics_common.h ****     {
 123:libDaisy/src/hid/disp/graphics_common.h ****         const auto newWidth = int16_t(right - x_);
 124:libDaisy/src/hid/disp/graphics_common.h ****         return {x_, y_, newWidth, height_};
 125:libDaisy/src/hid/disp/graphics_common.h ****     }
 126:libDaisy/src/hid/disp/graphics_common.h **** 
 127:libDaisy/src/hid/disp/graphics_common.h ****     Rectangle WithTop(int16_t top) const
 128:libDaisy/src/hid/disp/graphics_common.h ****     {
 129:libDaisy/src/hid/disp/graphics_common.h ****         const auto newHeight = int16_t((y_ - top) + height_);
 130:libDaisy/src/hid/disp/graphics_common.h ****         return {x_, top, width_, newHeight};
 131:libDaisy/src/hid/disp/graphics_common.h ****     }
 132:libDaisy/src/hid/disp/graphics_common.h **** 
 133:libDaisy/src/hid/disp/graphics_common.h ****     Rectangle WithBottom(int16_t bottom) const
 134:libDaisy/src/hid/disp/graphics_common.h ****     {
 135:libDaisy/src/hid/disp/graphics_common.h ****         const auto newHeight = int16_t(bottom - y_);
 136:libDaisy/src/hid/disp/graphics_common.h ****         return {x_, y_, width_, newHeight};
 137:libDaisy/src/hid/disp/graphics_common.h ****     }
 138:libDaisy/src/hid/disp/graphics_common.h **** 
 139:libDaisy/src/hid/disp/graphics_common.h ****     Rectangle WithTrimmedLeft(int16_t pxToTrim) const
 140:libDaisy/src/hid/disp/graphics_common.h ****     {
 141:libDaisy/src/hid/disp/graphics_common.h ****         return {
 142:libDaisy/src/hid/disp/graphics_common.h ****             int16_t(x_ + pxToTrim), y_, int16_t(width_ - pxToTrim), height_};
 143:libDaisy/src/hid/disp/graphics_common.h ****     }
 144:libDaisy/src/hid/disp/graphics_common.h **** 
 145:libDaisy/src/hid/disp/graphics_common.h ****     Rectangle WithTrimmedRight(int16_t pxToTrim) const
 146:libDaisy/src/hid/disp/graphics_common.h ****     {
 147:libDaisy/src/hid/disp/graphics_common.h ****         return {x_, y_, int16_t(width_ - pxToTrim), height_};
 148:libDaisy/src/hid/disp/graphics_common.h ****     }
 149:libDaisy/src/hid/disp/graphics_common.h **** 
 150:libDaisy/src/hid/disp/graphics_common.h ****     Rectangle WithTrimmedTop(int16_t pxToTrim) const
 151:libDaisy/src/hid/disp/graphics_common.h ****     {
 152:libDaisy/src/hid/disp/graphics_common.h ****         return {
 153:libDaisy/src/hid/disp/graphics_common.h ****             x_, int16_t(y_ + pxToTrim), width_, int16_t(height_ - pxToTrim)};
 154:libDaisy/src/hid/disp/graphics_common.h ****     }
 155:libDaisy/src/hid/disp/graphics_common.h **** 
 156:libDaisy/src/hid/disp/graphics_common.h ****     Rectangle WithTrimmedBottom(int16_t pxToTrim) const
 157:libDaisy/src/hid/disp/graphics_common.h ****     {
 158:libDaisy/src/hid/disp/graphics_common.h ****         return {x_, y_, width_, int16_t(height_ - pxToTrim)};
 159:libDaisy/src/hid/disp/graphics_common.h ****     }
 160:libDaisy/src/hid/disp/graphics_common.h **** 
 161:libDaisy/src/hid/disp/graphics_common.h ****     Rectangle WithCenterX(int16_t centerX) const
 162:libDaisy/src/hid/disp/graphics_common.h ****     {
 163:libDaisy/src/hid/disp/graphics_common.h ****         return {int16_t(x_ + centerX - GetCenterX()), y_, width_, height_};
 164:libDaisy/src/hid/disp/graphics_common.h ****     }
 165:libDaisy/src/hid/disp/graphics_common.h **** 
 166:libDaisy/src/hid/disp/graphics_common.h ****     Rectangle WithCenterY(int16_t centerY) const
 167:libDaisy/src/hid/disp/graphics_common.h ****     {
 168:libDaisy/src/hid/disp/graphics_common.h ****         return {x_, int16_t(y_ + centerY - GetCenterY()), width_, height_};
 169:libDaisy/src/hid/disp/graphics_common.h ****     }
 170:libDaisy/src/hid/disp/graphics_common.h **** 
 171:libDaisy/src/hid/disp/graphics_common.h ****     Rectangle WithCenter(int16_t centerX, int16_t centerY) const
 172:libDaisy/src/hid/disp/graphics_common.h ****     {
 173:libDaisy/src/hid/disp/graphics_common.h ****         return {int16_t(x_ + centerX - GetCenterX()),
 174:libDaisy/src/hid/disp/graphics_common.h ****                 int16_t(y_ + centerY - GetCenterY()),
 175:libDaisy/src/hid/disp/graphics_common.h ****                 width_,
 176:libDaisy/src/hid/disp/graphics_common.h ****                 height_};
 177:libDaisy/src/hid/disp/graphics_common.h ****     }
ARM GAS  C:\Users\yaman\AppData\Local\Temp\ccCu6FW5.s 			page 86


 178:libDaisy/src/hid/disp/graphics_common.h **** 
 179:libDaisy/src/hid/disp/graphics_common.h ****     Rectangle RemoveFromLeft(int16_t pxToRemove)
 180:libDaisy/src/hid/disp/graphics_common.h ****     {
 181:libDaisy/src/hid/disp/graphics_common.h ****         const auto result = this->WithWidth(min(pxToRemove, width_));
 182:libDaisy/src/hid/disp/graphics_common.h ****         x_ += min(pxToRemove, width_);
 183:libDaisy/src/hid/disp/graphics_common.h ****         width_ = max(int16_t(width_ - pxToRemove), 0);
 184:libDaisy/src/hid/disp/graphics_common.h ****         return result;
 185:libDaisy/src/hid/disp/graphics_common.h ****     }
 186:libDaisy/src/hid/disp/graphics_common.h **** 
 187:libDaisy/src/hid/disp/graphics_common.h ****     Rectangle RemoveFromRight(int16_t pxToRemove)
 188:libDaisy/src/hid/disp/graphics_common.h ****     {
 189:libDaisy/src/hid/disp/graphics_common.h ****         const auto canRemove = min(pxToRemove, width_);
 190:libDaisy/src/hid/disp/graphics_common.h ****         width_ -= canRemove;
 191:libDaisy/src/hid/disp/graphics_common.h ****         return {int16_t(x_ + width_), y_, canRemove, height_};
 192:libDaisy/src/hid/disp/graphics_common.h ****     }
 193:libDaisy/src/hid/disp/graphics_common.h **** 
 194:libDaisy/src/hid/disp/graphics_common.h ****     Rectangle RemoveFromTop(int16_t pxToRemove)
 195:libDaisy/src/hid/disp/graphics_common.h ****     {
 196:libDaisy/src/hid/disp/graphics_common.h ****         const auto result = this->WithHeight(min(pxToRemove, height_));
 197:libDaisy/src/hid/disp/graphics_common.h ****         y_ += min(pxToRemove, height_);
 198:libDaisy/src/hid/disp/graphics_common.h ****         height_ = max(height_ - pxToRemove, 0);
 199:libDaisy/src/hid/disp/graphics_common.h ****         return result;
 200:libDaisy/src/hid/disp/graphics_common.h ****     }
 201:libDaisy/src/hid/disp/graphics_common.h **** 
 202:libDaisy/src/hid/disp/graphics_common.h ****     Rectangle RemoveFromBottom(int16_t pxToRemove)
 203:libDaisy/src/hid/disp/graphics_common.h ****     {
 204:libDaisy/src/hid/disp/graphics_common.h ****         const auto canRemove = min(pxToRemove, height_);
 205:libDaisy/src/hid/disp/graphics_common.h ****         height_ -= canRemove;
 206:libDaisy/src/hid/disp/graphics_common.h ****         return {x_, int16_t(y_ + height_), width_, canRemove};
 207:libDaisy/src/hid/disp/graphics_common.h ****     }
 208:libDaisy/src/hid/disp/graphics_common.h **** 
 209:libDaisy/src/hid/disp/graphics_common.h ****     Rectangle AlignedWithin(const Rectangle& other, Alignment alignment) const
 210:libDaisy/src/hid/disp/graphics_common.h ****     {
 211:libDaisy/src/hid/disp/graphics_common.h ****         switch(alignment)
 212:libDaisy/src/hid/disp/graphics_common.h ****         {
 213:libDaisy/src/hid/disp/graphics_common.h ****             case Alignment::topLeft:
 214:libDaisy/src/hid/disp/graphics_common.h ****                 return {other.x_, other.y_, width_, height_};
 215:libDaisy/src/hid/disp/graphics_common.h ****             case Alignment::topRight:
 216:libDaisy/src/hid/disp/graphics_common.h ****                 return {int16_t(other.GetRight() - width_),
 217:libDaisy/src/hid/disp/graphics_common.h ****                         other.y_,
 218:libDaisy/src/hid/disp/graphics_common.h ****                         width_,
 219:libDaisy/src/hid/disp/graphics_common.h ****                         height_};
 220:libDaisy/src/hid/disp/graphics_common.h ****             case Alignment::topCentered:
 221:libDaisy/src/hid/disp/graphics_common.h ****                 return {int16_t(x_ + (other.GetCenterX() - GetCenterX())),
 222:libDaisy/src/hid/disp/graphics_common.h ****                         other.y_,
 223:libDaisy/src/hid/disp/graphics_common.h ****                         width_,
 224:libDaisy/src/hid/disp/graphics_common.h ****                         height_};
 225:libDaisy/src/hid/disp/graphics_common.h ****             case Alignment::bottomLeft:
 226:libDaisy/src/hid/disp/graphics_common.h ****                 return {other.x_,
 227:libDaisy/src/hid/disp/graphics_common.h ****                         int16_t(other.GetBottom() - height_),
 228:libDaisy/src/hid/disp/graphics_common.h ****                         width_,
 229:libDaisy/src/hid/disp/graphics_common.h ****                         height_};
 230:libDaisy/src/hid/disp/graphics_common.h ****             case Alignment::bottomRight:
 231:libDaisy/src/hid/disp/graphics_common.h ****                 return {int16_t(other.GetRight() - width_),
 232:libDaisy/src/hid/disp/graphics_common.h ****                         int16_t(other.GetBottom() - height_),
 233:libDaisy/src/hid/disp/graphics_common.h ****                         width_,
 234:libDaisy/src/hid/disp/graphics_common.h ****                         height_};
ARM GAS  C:\Users\yaman\AppData\Local\Temp\ccCu6FW5.s 			page 87


 235:libDaisy/src/hid/disp/graphics_common.h ****             case Alignment::bottomCentered:
 236:libDaisy/src/hid/disp/graphics_common.h ****                 return {int16_t(x_ + (other.GetCenterX() - GetCenterX())),
 237:libDaisy/src/hid/disp/graphics_common.h ****                         int16_t(other.GetBottom() - height_),
 238:libDaisy/src/hid/disp/graphics_common.h ****                         width_,
 239:libDaisy/src/hid/disp/graphics_common.h ****                         height_};
 240:libDaisy/src/hid/disp/graphics_common.h ****             case Alignment::centeredLeft:
 241:libDaisy/src/hid/disp/graphics_common.h ****                 return {other.x_,
 242:libDaisy/src/hid/disp/graphics_common.h ****                         int16_t(y_ + (other.GetCenterY() - GetCenterY())),
 243:libDaisy/src/hid/disp/graphics_common.h ****                         width_,
 244:libDaisy/src/hid/disp/graphics_common.h ****                         height_};
 245:libDaisy/src/hid/disp/graphics_common.h ****             case Alignment::centeredRight:
 246:libDaisy/src/hid/disp/graphics_common.h ****                 return {int16_t(other.GetRight() - width_),
 247:libDaisy/src/hid/disp/graphics_common.h ****                         int16_t(y_ + (other.GetCenterY() - GetCenterY())),
 248:libDaisy/src/hid/disp/graphics_common.h ****                         width_,
 249:libDaisy/src/hid/disp/graphics_common.h ****                         height_};
 250:libDaisy/src/hid/disp/graphics_common.h ****             case Alignment::centered:
 251:libDaisy/src/hid/disp/graphics_common.h ****                 return {int16_t(x_ + (other.GetCenterX() - GetCenterX())),
 252:libDaisy/src/hid/disp/graphics_common.h ****                         int16_t(y_ + (other.GetCenterY() - GetCenterY())),
 253:libDaisy/src/hid/disp/graphics_common.h ****                         width_,
 254:libDaisy/src/hid/disp/graphics_common.h ****                         height_};
 255:libDaisy/src/hid/disp/graphics_common.h ****             default: return {};
 256:libDaisy/src/hid/disp/graphics_common.h ****         }
 257:libDaisy/src/hid/disp/graphics_common.h ****     }
 258:libDaisy/src/hid/disp/graphics_common.h **** 
 259:libDaisy/src/hid/disp/graphics_common.h ****   private:
 260:libDaisy/src/hid/disp/graphics_common.h ****     int16_t x_, y_, width_, height_;
 261:libDaisy/src/hid/disp/graphics_common.h ****     int16_t max(int16_t a, int16_t b) { return (a > b) ? a : b; }
 2403              		.loc 16 261 13 view .LVU589
 2404              	.LBE1075:
 2405              	.LBE1074:
 2406              	.LBE1080:
 2407              	.LBE1084:
 2408              		.loc 16 261 41 view .LVU590
 2409              	.LBB1085:
 2410              	.LBB1081:
 2411              	.LBB1077:
 2412              	.LBB1076:
 2413              	.LBI1076:
 2414              		.loc 16 261 13 view .LVU591
 2415              	.LBE1076:
 2416              	.LBE1077:
 2417              	.LBE1081:
 2418              	.LBE1085:
 2419              		.loc 16 261 41 view .LVU592
 2420              	.LBB1086:
 2421              	.LBI1086:
 209:libDaisy/src/hid/disp/graphics_common.h ****     {
 2422              		.loc 16 209 15 view .LVU593
 2423              	.LBB1087:
 211:libDaisy/src/hid/disp/graphics_common.h ****         {
 2424              		.loc 16 211 9 view .LVU594
 2425 003a 1BB2     		sxth	r3, r3
 2426 003c 23EAE373 		bic	r3, r3, r3, asr #31
 2427 0040 0829     		cmp	r1, #8
 2428 0042 00F2D981 		bhi	.L160
 2429 0046 DFE811F0 		tbh	[pc, r1, lsl #1]
 2430              	.L162:
ARM GAS  C:\Users\yaman\AppData\Local\Temp\ccCu6FW5.s 			page 88


 2431 004a 0701     		.2byte	(.L170-.L162)/2
 2432 004c 1A01     		.2byte	(.L169-.L162)/2
 2433 004e 6B01     		.2byte	(.L168-.L162)/2
 2434 0050 8501     		.2byte	(.L167-.L162)/2
 2435 0052 2601     		.2byte	(.L166-.L162)/2
 2436 0054 3601     		.2byte	(.L165-.L162)/2
 2437 0056 4F01     		.2byte	(.L164-.L162)/2
 2438 0058 5601     		.2byte	(.L163-.L162)/2
 2439 005a 0900     		.2byte	(.L161-.L162)/2
 2440              		.p2align 1
 2441              	.L161:
 245:libDaisy/src/hid/disp/graphics_common.h ****                 return {int16_t(other.GetRight() - width_),
 2442              		.loc 16 245 13 view .LVU595
 246:libDaisy/src/hid/disp/graphics_common.h ****                         int16_t(y_ + (other.GetCenterY() - GetCenterY())),
 2443              		.loc 16 246 17 view .LVU596
 2444              	.LVL169:
 2445              	.LBB1088:
 2446              	.LBI1088:
  60:libDaisy/src/hid/disp/graphics_common.h ****     int16_t GetBottom() const { return y_ + height_; }
 2447              		.loc 16 60 13 view .LVU597
 2448              	.LBB1089:
  60:libDaisy/src/hid/disp/graphics_common.h ****     int16_t GetBottom() const { return y_ + height_; }
 2449              		.loc 16 60 32 view .LVU598
  60:libDaisy/src/hid/disp/graphics_common.h ****     int16_t GetBottom() const { return y_ + height_; }
 2450              		.loc 16 60 42 is_stmt 0 view .LVU599
 2451 005c BCF80410 		ldrh	r1, [ip, #4]
 2452              	.LVL170:
  60:libDaisy/src/hid/disp/graphics_common.h ****     int16_t GetBottom() const { return y_ + height_; }
 2453              		.loc 16 60 42 view .LVU600
 2454 0060 BCF80040 		ldrh	r4, [ip]
 2455 0064 0C44     		add	r4, r4, r1
 2456              	.LBE1089:
 2457              	.LBE1088:
 2458              	.LBB1090:
 2459              	.LBB1091:
  63:libDaisy/src/hid/disp/graphics_common.h **** 
 2460              		.loc 16 63 54 view .LVU601
 2461 0066 BCF90610 		ldrsh	r1, [ip, #6]
 2462              	.LBE1091:
 2463              	.LBE1090:
 246:libDaisy/src/hid/disp/graphics_common.h ****                         int16_t(y_ + (other.GetCenterY() - GetCenterY())),
 2464              		.loc 16 246 50 view .LVU602
 2465 006a E41A     		subs	r4, r4, r3
 2466              	.LBB1095:
 2467              	.LBB1092:
  63:libDaisy/src/hid/disp/graphics_common.h **** 
 2468              		.loc 16 63 54 view .LVU603
 2469 006c 0029     		cmp	r1, #0
 2470              	.LBE1092:
 2471              	.LBE1095:
 246:libDaisy/src/hid/disp/graphics_common.h ****                         int16_t(y_ + (other.GetCenterY() - GetCenterY())),
 2472              		.loc 16 246 50 view .LVU604
 2473 006e A4B2     		uxth	r4, r4
 2474              	.LVL171:
 2475              	.LBB1096:
 2476              	.LBI1090:
  63:libDaisy/src/hid/disp/graphics_common.h **** 
ARM GAS  C:\Users\yaman\AppData\Local\Temp\ccCu6FW5.s 			page 89


 2477              		.loc 16 63 13 is_stmt 1 view .LVU605
 2478              	.LBB1093:
  63:libDaisy/src/hid/disp/graphics_common.h **** 
 2479              		.loc 16 63 34 view .LVU606
  63:libDaisy/src/hid/disp/graphics_common.h **** 
 2480              		.loc 16 63 34 is_stmt 0 view .LVU607
 2481              	.LBE1093:
 2482              	.LBE1096:
 2483              	.LBB1097:
 2484              	.LBI1097:
  63:libDaisy/src/hid/disp/graphics_common.h **** 
 2485              		.loc 16 63 13 is_stmt 1 view .LVU608
 2486              	.LBB1098:
  63:libDaisy/src/hid/disp/graphics_common.h **** 
 2487              		.loc 16 63 34 view .LVU609
  63:libDaisy/src/hid/disp/graphics_common.h **** 
 2488              		.loc 16 63 34 is_stmt 0 view .LVU610
 2489              	.LBE1098:
 2490              	.LBE1097:
 2491              	.LBB1099:
 2492              	.LBB1094:
  63:libDaisy/src/hid/disp/graphics_common.h **** 
 2493              		.loc 16 63 54 view .LVU611
 2494 0070 C0F20381 		blt	.L237
 2495              	.L177:
  63:libDaisy/src/hid/disp/graphics_common.h **** 
 2496              		.loc 16 63 54 view .LVU612
 2497              	.LBE1094:
 2498              	.LBE1099:
 2499              	.LBB1100:
 2500              	.LBB1101:
  63:libDaisy/src/hid/disp/graphics_common.h **** 
 2501              		.loc 16 63 44 view .LVU613
 2502 0074 BCF802C0 		ldrh	ip, [ip, #2]
 2503              	.LVL172:
  63:libDaisy/src/hid/disp/graphics_common.h **** 
 2504              		.loc 16 63 44 view .LVU614
 2505              	.LBE1101:
 2506              	.LBE1100:
 2507              	.LBB1107:
 2508              	.LBB1108:
 2509              	.LBB1109:
  32:libDaisy/src/hid/disp/graphics_common.h ****     {
 2510              		.loc 16 32 66 view .LVU615
 2511 0078 0798     		ldr	r0, [sp, #28]
 2512              	.LBE1109:
 2513              	.LBE1108:
 2514              	.LBE1107:
 2515              	.LBB1120:
 2516              	.LBB1102:
  63:libDaisy/src/hid/disp/graphics_common.h **** 
 2517              		.loc 16 63 44 view .LVU616
 2518 007a 0CEB6106 		add	r6, ip, r1, asr #1
 2519              	.LBE1102:
 2520              	.LBE1120:
 2521              	.LBB1121:
 2522              	.LBB1116:
ARM GAS  C:\Users\yaman\AppData\Local\Temp\ccCu6FW5.s 			page 90


 2523              	.LBB1112:
  32:libDaisy/src/hid/disp/graphics_common.h ****     {
 2524              		.loc 16 32 66 view .LVU617
 2525 007e C280     		strh	r2, [r0, #6]	@ movhi
 2526              	.LBE1112:
 2527              	.LBE1116:
 2528              	.LBE1121:
 252:libDaisy/src/hid/disp/graphics_common.h ****                         width_,
 2529              		.loc 16 252 58 view .LVU618
 2530 0080 A6EB5202 		sub	r2, r6, r2, lsr #1
 2531              	.LBB1122:
 2532              	.LBB1117:
 2533              	.LBB1113:
  32:libDaisy/src/hid/disp/graphics_common.h ****     {
 2534              		.loc 16 32 66 view .LVU619
 2535 0084 8380     		strh	r3, [r0, #4]	@ movhi
 2536 0086 0480     		strh	r4, [r0]	@ movhi
 2537              	.LBE1113:
 2538              	.LBE1117:
 2539              	.LBE1122:
 252:libDaisy/src/hid/disp/graphics_common.h ****                         width_,
 2540              		.loc 16 252 58 view .LVU620
 2541 0088 96B2     		uxth	r6, r2
 2542              	.LVL173:
 2543              	.LBB1123:
 2544              	.LBI1107:
  31:libDaisy/src/hid/disp/graphics_common.h ****     : x_(x), y_(y), width_(max(0, width)), height_(max(0, height))
 2545              		.loc 16 31 5 is_stmt 1 view .LVU621
 2546              	.LBB1118:
 2547              	.LBB1114:
  32:libDaisy/src/hid/disp/graphics_common.h ****     {
 2548              		.loc 16 32 66 is_stmt 0 view .LVU622
 2549 008a 4680     		strh	r6, [r0, #2]	@ movhi
 2550              	.LVL174:
 2551              	.LBB1110:
 2552              	.LBI1110:
 2553              		.loc 16 261 13 is_stmt 1 view .LVU623
 2554              	.LBE1110:
 2555              	.LBE1114:
 2556              	.LBE1118:
 2557              	.LBE1123:
 2558              	.LBE1087:
 2559              	.LBE1086:
 2560              		.loc 16 261 41 view .LVU624
 2561              	.LBB1311:
 2562              	.LBB1289:
 2563              	.LBB1124:
 2564              	.LBB1119:
 2565              	.LBB1115:
 2566              	.LBB1111:
 2567              	.LBI1111:
 2568              		.loc 16 261 13 view .LVU625
 2569              	.LBE1111:
 2570              	.LBE1115:
 2571              	.LBE1119:
 2572              	.LBE1124:
 2573              	.LBE1289:
ARM GAS  C:\Users\yaman\AppData\Local\Temp\ccCu6FW5.s 			page 91


 2574              	.LBE1311:
 2575              		.loc 16 261 41 view .LVU626
 2576              	.L171:
  56:libDaisy/src/hid/disp/graphics_common.h ****     int16_t GetY() const { return y_; }
 2577              		.loc 16 56 28 view .LVU627
  57:libDaisy/src/hid/disp/graphics_common.h ****     int16_t GetWidth() const { return width_; }
 2578              		.loc 16 57 28 view .LVU628
 2579              	.LBB1312:
 2580              	.LBI1312:
 171:libDaisy/src/hid/disp/display.h ****     {
 2581              		.loc 3 171 10 view .LVU629
 2582              	.LBB1313:
 173:libDaisy/src/hid/disp/display.h ****         currentY_ = (y >= Height()) ? Height() - 1 : y;
 2583              		.loc 3 173 9 view .LVU630
 2584 008c AF4A     		ldr	r2, .L249
 173:libDaisy/src/hid/disp/display.h ****         currentY_ = (y >= Height()) ? Height() - 1 : y;
 2585              		.loc 3 173 33 is_stmt 0 view .LVU631
 2586 008e 3B68     		ldr	r3, [r7]
 2587 0090 1146     		mov	r1, r2
 2588 0092 0392     		str	r2, [sp, #12]
 2589 0094 DA68     		ldr	r2, [r3, #12]
 2590 0096 8A42     		cmp	r2, r1
 2591 0098 40F0C381 		bne	.L179
 2592 009c 4020     		movs	r0, #64
 2593              	.LVL175:
 2594              	.L180:
 173:libDaisy/src/hid/disp/display.h ****         currentY_ = (y >= Height()) ? Height() - 1 : y;
 2595              		.loc 3 173 19 view .LVU632
 2596 009e A042     		cmp	r0, r4
 2597 00a0 05D8     		bhi	.L181
 173:libDaisy/src/hid/disp/display.h ****         currentY_ = (y >= Height()) ? Height() - 1 : y;
 2598              		.loc 3 173 44 view .LVU633
 2599 00a2 DA68     		ldr	r2, [r3, #12]
 2600 00a4 0399     		ldr	r1, [sp, #12]
 2601 00a6 8A42     		cmp	r2, r1
 2602 00a8 40F0C481 		bne	.L238
 2603 00ac 3F24     		movs	r4, #63
 2604              	.L181:
 2605 00ae A84A     		ldr	r2, .L249+4
 174:libDaisy/src/hid/disp/display.h ****     }
 2606              		.loc 3 174 34 view .LVU634
 2607 00b0 9B68     		ldr	r3, [r3, #8]
 173:libDaisy/src/hid/disp/display.h ****         currentY_ = (y >= Height()) ? Height() - 1 : y;
 2608              		.loc 3 173 19 view .LVU635
 2609 00b2 BC80     		strh	r4, [r7, #4]	@ movhi
 174:libDaisy/src/hid/disp/display.h ****     }
 2610              		.loc 3 174 9 is_stmt 1 view .LVU636
 2611 00b4 9342     		cmp	r3, r2
 2612 00b6 0492     		str	r2, [sp, #16]
 2613 00b8 40F0AF81 		bne	.L215
 174:libDaisy/src/hid/disp/display.h ****     }
 2614              		.loc 3 174 34 is_stmt 0 view .LVU637
 2615 00bc 2020     		movs	r0, #32
 2616              	.L183:
 174:libDaisy/src/hid/disp/display.h ****     }
 2617              		.loc 3 174 19 view .LVU638
 2618 00be B042     		cmp	r0, r6
ARM GAS  C:\Users\yaman\AppData\Local\Temp\ccCu6FW5.s 			page 92


 2619 00c0 06D8     		bhi	.L185
 174:libDaisy/src/hid/disp/display.h ****     }
 2620              		.loc 3 174 46 view .LVU639
 2621 00c2 3B68     		ldr	r3, [r7]
 2622 00c4 049A     		ldr	r2, [sp, #16]
 2623 00c6 9B68     		ldr	r3, [r3, #8]
 2624 00c8 9342     		cmp	r3, r2
 2625 00ca 40F0AE81 		bne	.L239
 2626 00ce 1F26     		movs	r6, #31
 2627              	.L185:
 174:libDaisy/src/hid/disp/display.h ****     }
 2628              		.loc 3 174 46 view .LVU640
 2629              	.LBE1313:
 2630              	.LBE1312:
 2631              	.LBB1317:
 2632              	.LBB1318:
 443:libDaisy/src/hid/disp/display.h ****         {
 2633              		.loc 3 443 9 view .LVU641
 2634 00d0 009B     		ldr	r3, [sp]
 2635              	.LBE1318:
 2636              	.LBE1317:
 2637              	.LBB1402:
 2638              	.LBB1314:
 174:libDaisy/src/hid/disp/display.h ****     }
 2639              		.loc 3 174 19 view .LVU642
 2640 00d2 FE80     		strh	r6, [r7, #6]	@ movhi
 2641              	.LVL176:
 174:libDaisy/src/hid/disp/display.h ****     }
 2642              		.loc 3 174 19 view .LVU643
 2643              	.LBE1314:
 2644              	.LBE1402:
 2645              	.LBB1403:
 2646              	.LBB1399:
 443:libDaisy/src/hid/disp/display.h ****         {
 2647              		.loc 3 443 9 view .LVU644
 2648 00d4 93F800A0 		ldrb	r10, [r3]	@ zero_extendqisi2
 2649 00d8 6B78     		ldrb	r3, [r5, #1]	@ zero_extendqisi2
 2650              	.LVL177:
 443:libDaisy/src/hid/disp/display.h ****         {
 2651              		.loc 3 443 9 view .LVU645
 2652 00da 2C78     		ldrb	r4, [r5]	@ zero_extendqisi2
 2653              	.LVL178:
 443:libDaisy/src/hid/disp/display.h ****         {
 2654              		.loc 3 443 9 view .LVU646
 2655 00dc 0593     		str	r3, [sp, #20]
 2656              	.LVL179:
 443:libDaisy/src/hid/disp/display.h ****         {
 2657              		.loc 3 443 9 view .LVU647
 2658 00de 6B68     		ldr	r3, [r5, #4]
 2659 00e0 0893     		str	r3, [sp, #32]
 2660              	.LVL180:
 443:libDaisy/src/hid/disp/display.h ****         {
 2661              		.loc 3 443 9 view .LVU648
 2662              	.LBE1399:
 2663              	.LBI1317:
 440:libDaisy/src/hid/disp/display.h ****     {
 2664              		.loc 3 440 10 is_stmt 1 view .LVU649
ARM GAS  C:\Users\yaman\AppData\Local\Temp\ccCu6FW5.s 			page 93


 2665              	.LBB1400:
 443:libDaisy/src/hid/disp/display.h ****         {
 2666              		.loc 3 443 9 view .LVU650
 2667 00e2 BAF1000F 		cmp	r10, #0
 2668 00e6 00F0B380 		beq	.L157
 2669              	.LVL181:
 2670              	.L213:
 2671              	.LBB1319:
 2672              	.LBI1319:
 396:libDaisy/src/hid/disp/display.h ****     {
 2673              		.loc 3 396 10 view .LVU651
 2674              	.LBB1320:
 401:libDaisy/src/hid/disp/display.h ****             return 0;
 2675              		.loc 3 401 20 is_stmt 0 view .LVU652
 2676 00ea AAF12005 		sub	r5, r10, #32
 401:libDaisy/src/hid/disp/display.h ****             return 0;
 2677              		.loc 3 401 9 view .LVU653
 2678 00ee EBB2     		uxtb	r3, r5
 2679 00f0 5E2B     		cmp	r3, #94
 2680 00f2 00F2AD80 		bhi	.L157
 405:libDaisy/src/hid/disp/display.h ****            || Height() < (currentY_ + font.FontHeight))
 2681              		.loc 3 405 17 view .LVU654
 2682 00f6 3B68     		ldr	r3, [r7]
 2683 00f8 039A     		ldr	r2, [sp, #12]
 2684 00fa DB68     		ldr	r3, [r3, #12]
 2685 00fc 9342     		cmp	r3, r2
 2686 00fe 40F05F81 		bne	.L240
 2687 0102 4020     		movs	r0, #64
 2688              	.L189:
 405:libDaisy/src/hid/disp/display.h ****            || Height() < (currentY_ + font.FontHeight))
 2689              		.loc 3 405 23 view .LVU655
 2690 0104 BB88     		ldrh	r3, [r7, #4]
 405:libDaisy/src/hid/disp/display.h ****            || Height() < (currentY_ + font.FontHeight))
 2691              		.loc 3 405 33 view .LVU656
 2692 0106 2344     		add	r3, r3, r4
 406:libDaisy/src/hid/disp/display.h ****         {
 2693              		.loc 3 406 12 view .LVU657
 2694 0108 8342     		cmp	r3, r0
 2695 010a 00F35481 		bgt	.L236
 406:libDaisy/src/hid/disp/display.h ****         {
 2696              		.loc 3 406 21 view .LVU658
 2697 010e 3B68     		ldr	r3, [r7]
 2698 0110 049A     		ldr	r2, [sp, #16]
 2699 0112 9B68     		ldr	r3, [r3, #8]
 2700 0114 9342     		cmp	r3, r2
 2701 0116 40F05681 		bne	.L241
 2702 011a 2020     		movs	r0, #32
 2703              	.L192:
 406:libDaisy/src/hid/disp/display.h ****         {
 2704              		.loc 3 406 27 view .LVU659
 2705 011c FB88     		ldrh	r3, [r7, #6]
 406:libDaisy/src/hid/disp/display.h ****         {
 2706              		.loc 3 406 37 view .LVU660
 2707 011e 059A     		ldr	r2, [sp, #20]
 406:libDaisy/src/hid/disp/display.h ****         {
 2708              		.loc 3 406 27 view .LVU661
 2709 0120 0293     		str	r3, [sp, #8]
ARM GAS  C:\Users\yaman\AppData\Local\Temp\ccCu6FW5.s 			page 94


 406:libDaisy/src/hid/disp/display.h ****         {
 2710              		.loc 3 406 37 view .LVU662
 2711 0122 1344     		add	r3, r3, r2
 406:libDaisy/src/hid/disp/display.h ****         {
 2712              		.loc 3 406 12 view .LVU663
 2713 0124 9842     		cmp	r0, r3
 2714 0126 C0F24681 		blt	.L236
 2715              	.LVL182:
 413:libDaisy/src/hid/disp/display.h ****         {
 2716              		.loc 3 413 22 is_stmt 1 view .LVU664
 2717 012a 002A     		cmp	r2, #0
 2718 012c 00F05581 		beq	.L194
 415:libDaisy/src/hid/disp/display.h ****             for(j = 0; j < font.FontWidth; j++)
 2719              		.loc 3 415 37 is_stmt 0 view .LVU665
 2720 0130 02FB05F5 		mul	r5, r2, r5
 2721 0134 6FF0004E 		mvn	lr, #-2147483648
 2722 0138 089B     		ldr	r3, [sp, #32]
 2723 013a AE44     		add	lr, lr, r5
 2724 013c 1544     		add	r5, r5, r2
 434:libDaisy/src/hid/disp/display.h **** 
 2725              		.loc 3 434 19 view .LVU666
 2726 013e B7F80480 		ldrh	r8, [r7, #4]
 2727 0142 03EB4E0E 		add	lr, r3, lr, lsl #1
 2728 0146 023B     		subs	r3, r3, #2
 2729 0148 CDF818A0 		str	r10, [sp, #24]
 2730 014c BA46     		mov	r10, r7
 2731              	.LVL183:
 434:libDaisy/src/hid/disp/display.h **** 
 2732              		.loc 3 434 19 view .LVU667
 2733 014e 03EB4503 		add	r3, r3, r5, lsl #1
 2734 0152 DDF808C0 		ldr	ip, [sp, #8]
 2735 0156 099F     		ldr	r7, [sp, #36]
 2736              	.LVL184:
 434:libDaisy/src/hid/disp/display.h **** 
 2737              		.loc 3 434 19 view .LVU668
 2738 0158 0193     		str	r3, [sp, #4]
 2739              	.LVL185:
 2740              	.L197:
 415:libDaisy/src/hid/disp/display.h ****             for(j = 0; j < font.FontWidth; j++)
 2741              		.loc 3 415 15 view .LVU669
 2742 015a 3EF8020F 		ldrh	r0, [lr, #2]!
 2743              	.LVL186:
 416:libDaisy/src/hid/disp/display.h ****             {
 2744              		.loc 3 416 26 is_stmt 1 view .LVU670
 2745 015e 002C     		cmp	r4, #0
 2746 0160 3CD0     		beq	.L201
 2747              	.LBB1321:
 2748              	.LBB1322:
 2749              	.LBB1323:
 2750              	.LBB1324:
 2751              	.LBB1325:
 246:libDaisy/src/dev/oled_ssd130x.h ****     }
 2752              		.loc 13 246 55 is_stmt 0 view .LVU671
 2753 0162 0CF00703 		and	r3, ip, #7
 246:libDaisy/src/dev/oled_ssd130x.h ****     }
 2754              		.loc 13 246 49 view .LVU672
 2755 0166 0126     		movs	r6, #1
ARM GAS  C:\Users\yaman\AppData\Local\Temp\ccCu6FW5.s 			page 95


 246:libDaisy/src/dev/oled_ssd130x.h ****     }
 2756              		.loc 13 246 28 view .LVU673
 2757 0168 4FEADC02 		lsr	r2, ip, #3
 2758 016c 08F11001 		add	r1, r8, #16
 246:libDaisy/src/dev/oled_ssd130x.h ****     }
 2759              		.loc 13 246 49 view .LVU674
 2760 0170 9E40     		lsls	r6, r6, r3
 2761              	.LBE1325:
 2762              	.LBE1324:
 2763              	.LBE1323:
 2764              	.LBE1322:
 2765              	.LBE1321:
 2766              	.LBB1347:
 2767              	.LBB1348:
 2768              	.LBB1349:
 241:libDaisy/src/dev/oled_ssd130x.h ****             return;
 2769              		.loc 13 241 28 view .LVU675
 2770 0172 BCF11F0F 		cmp	ip, #31
 2771              	.LBE1349:
 2772              	.LBE1348:
 2773              	.LBE1347:
 2774              	.LBB1369:
 2775              	.LBB1340:
 2776              	.LBB1335:
 2777              	.LBB1330:
 2778              	.LBB1326:
 246:libDaisy/src/dev/oled_ssd130x.h ****     }
 2779              		.loc 13 246 42 view .LVU676
 2780 0176 4FEA8212 		lsl	r2, r2, #6
 2781              	.LBE1326:
 2782              	.LBE1330:
 2783              	.LBE1335:
 2784              	.LBE1340:
 2785              	.LBE1369:
 422:libDaisy/src/hid/disp/display.h ****                 }
 2786              		.loc 3 422 29 view .LVU677
 2787 017a 4346     		mov	r3, r8
 2788              	.LBB1370:
 2789              	.LBB1341:
 2790              	.LBB1336:
 2791              	.LBB1331:
 2792              	.LBB1327:
 246:libDaisy/src/dev/oled_ssd130x.h ****     }
 2793              		.loc 13 246 42 view .LVU678
 2794 017c 76B2     		sxtb	r6, r6
 2795              	.LBE1327:
 2796              	.LBE1331:
 2797              	.LBE1336:
 2798              	.LBE1341:
 2799              	.LBE1370:
 2800              	.LBB1371:
 2801              	.LBB1362:
 2802              	.LBB1357:
 241:libDaisy/src/dev/oled_ssd130x.h ****             return;
 2803              		.loc 13 241 28 view .LVU679
 2804 017e 98BF     		it	ls
 2805 0180 0025     		movls	r5, #0
ARM GAS  C:\Users\yaman\AppData\Local\Temp\ccCu6FW5.s 			page 96


 2806 0182 1144     		add	r1, r1, r2
 2807 0184 88BF     		it	hi
 2808 0186 0125     		movhi	r5, #1
 2809              	.LBE1357:
 2810              	.LBE1362:
 2811              	.LBE1371:
 2812              	.LBB1372:
 2813              	.LBB1342:
 2814              	.LBB1337:
 2815              	.LBB1332:
 2816              	.LBB1328:
 246:libDaisy/src/dev/oled_ssd130x.h ****     }
 2817              		.loc 13 246 42 view .LVU680
 2818 0188 6FEA0609 		mvn	r9, r6
 2819 018c 5144     		add	r1, r1, r10
 2820 018e 002F     		cmp	r7, #0
 2821 0190 40F0F080 		bne	.L198
 2822              	.LBE1328:
 2823              	.LBE1332:
 2824              	.LBE1337:
 2825              	.LBE1342:
 2826              	.LBE1372:
 416:libDaisy/src/hid/disp/display.h ****             {
 2827              		.loc 3 416 19 view .LVU681
 2828 0194 3A46     		mov	r2, r7
 2829 0196 0DE0     		b	.L202
 2830              	.LVL187:
 2831              	.L242:
 2832              	.LBB1373:
 2833              	.LBB1343:
 2834              	.LBB1338:
 241:libDaisy/src/dev/oled_ssd130x.h ****             return;
 2835              		.loc 13 241 9 view .LVU682
 2836 0198 3F2B     		cmp	r3, #63
 2837 019a 06D8     		bhi	.L200
 2838 019c 2DB9     		cbnz	r5, .L200
 244:libDaisy/src/dev/oled_ssd130x.h ****         else
 2839              		.loc 13 244 42 view .LVU683
 2840 019e 91F800B0 		ldrb	fp, [r1]	@ zero_extendqisi2
 2841 01a2 46EA0B0B 		orr	fp, r6, fp
 2842 01a6 81F800B0 		strb	fp, [r1]
 2843              	.L200:
 2844              	.LVL188:
 244:libDaisy/src/dev/oled_ssd130x.h ****         else
 2845              		.loc 13 244 42 view .LVU684
 2846              	.LBE1338:
 2847              	.LBE1343:
 2848              	.LBE1373:
 416:libDaisy/src/hid/disp/display.h ****             {
 2849              		.loc 3 416 13 is_stmt 1 view .LVU685
 2850 01aa 0132     		adds	r2, r2, #1
 2851              	.LVL189:
 416:libDaisy/src/hid/disp/display.h ****             {
 2852              		.loc 3 416 26 view .LVU686
 2853 01ac 0131     		adds	r1, r1, #1
 2854 01ae 0133     		adds	r3, r3, #1
 2855 01b0 9442     		cmp	r4, r2
ARM GAS  C:\Users\yaman\AppData\Local\Temp\ccCu6FW5.s 			page 97


 2856 01b2 13D0     		beq	.L201
 2857              	.LVL190:
 2858              	.L202:
 2859              	.LBB1374:
 2860              	.LBI1321:
  42:libDaisy/src/hid/disp/oled_display.h ****     {
 2861              		.loc 2 42 10 view .LVU687
 2862              	.LBB1344:
 2863              	.LBI1322:
 239:libDaisy/src/dev/oled_ssd130x.h ****     {
 2864              		.loc 13 239 10 view .LVU688
 239:libDaisy/src/dev/oled_ssd130x.h ****     {
 2865              		.loc 13 239 10 is_stmt 0 view .LVU689
 2866              	.LBE1344:
 2867              	.LBE1374:
 2868              	.LBB1375:
 2869              	.LBI1347:
  42:libDaisy/src/hid/disp/oled_display.h ****     {
 2870              		.loc 2 42 10 is_stmt 1 view .LVU690
 2871              	.LBB1363:
 2872              	.LBI1348:
 239:libDaisy/src/dev/oled_ssd130x.h ****     {
 2873              		.loc 13 239 10 view .LVU691
 2874              	.LBE1363:
 2875              	.LBE1375:
 418:libDaisy/src/hid/disp/display.h ****                 {
 2876              		.loc 3 418 23 is_stmt 0 view .LVU692
 2877 01b4 00FA02FB 		lsl	fp, r0, r2
 418:libDaisy/src/hid/disp/display.h ****                 {
 2878              		.loc 3 418 17 view .LVU693
 2879 01b8 1BF4004F 		tst	fp, #32768
 2880 01bc ECD0     		beq	.L242
 2881              	.LVL191:
 2882              	.LBB1376:
 2883              	.LBB1364:
 2884              	.LBB1358:
 2885              	.LBB1350:
 2886              	.LBI1350:
 239:libDaisy/src/dev/oled_ssd130x.h ****     {
 2887              		.loc 13 239 10 is_stmt 1 view .LVU694
 239:libDaisy/src/dev/oled_ssd130x.h ****     {
 2888              		.loc 13 239 10 is_stmt 0 view .LVU695
 2889              	.LBE1350:
 241:libDaisy/src/dev/oled_ssd130x.h ****             return;
 2890              		.loc 13 241 9 view .LVU696
 2891 01be 3F2B     		cmp	r3, #63
 2892 01c0 F3D8     		bhi	.L200
 2893 01c2 002D     		cmp	r5, #0
 2894 01c4 F1D1     		bne	.L200
 2895              	.LBB1354:
 2896              	.LBB1351:
 246:libDaisy/src/dev/oled_ssd130x.h ****     }
 2897              		.loc 13 246 42 view .LVU697
 2898 01c6 91F800B0 		ldrb	fp, [r1]	@ zero_extendqisi2
 2899              	.LBE1351:
 2900              	.LBE1354:
 2901              	.LBE1358:
ARM GAS  C:\Users\yaman\AppData\Local\Temp\ccCu6FW5.s 			page 98


 2902              	.LBE1364:
 2903              	.LBE1376:
 416:libDaisy/src/hid/disp/display.h ****             {
 2904              		.loc 3 416 13 view .LVU698
 2905 01ca 0132     		adds	r2, r2, #1
 2906              	.LVL192:
 416:libDaisy/src/hid/disp/display.h ****             {
 2907              		.loc 3 416 26 view .LVU699
 2908 01cc 0131     		adds	r1, r1, #1
 2909 01ce 0133     		adds	r3, r3, #1
 2910              	.LBB1377:
 2911              	.LBB1365:
 2912              	.LBB1359:
 2913              	.LBB1355:
 2914              	.LBB1352:
 246:libDaisy/src/dev/oled_ssd130x.h ****     }
 2915              		.loc 13 246 42 view .LVU700
 2916 01d0 09EA0B0B 		and	fp, r9, fp
 2917              	.LBE1352:
 2918              	.LBE1355:
 2919              	.LBE1359:
 2920              	.LBE1365:
 2921              	.LBE1377:
 416:libDaisy/src/hid/disp/display.h ****             {
 2922              		.loc 3 416 26 view .LVU701
 2923 01d4 9442     		cmp	r4, r2
 2924              	.LBB1378:
 2925              	.LBB1366:
 2926              	.LBB1360:
 2927              	.LBB1356:
 2928              	.LBB1353:
 246:libDaisy/src/dev/oled_ssd130x.h ****     }
 2929              		.loc 13 246 42 view .LVU702
 2930 01d6 01F801BC 		strb	fp, [r1, #-1]
 2931              	.LVL193:
 246:libDaisy/src/dev/oled_ssd130x.h ****     }
 2932              		.loc 13 246 42 view .LVU703
 2933              	.LBE1353:
 2934              	.LBE1356:
 2935              	.LBE1360:
 2936              	.LBE1366:
 2937              	.LBE1378:
 416:libDaisy/src/hid/disp/display.h ****             {
 2938              		.loc 3 416 13 is_stmt 1 view .LVU704
 416:libDaisy/src/hid/disp/display.h ****             {
 2939              		.loc 3 416 26 view .LVU705
 2940 01da EBD1     		bne	.L202
 2941              	.LVL194:
 2942              	.L201:
 413:libDaisy/src/hid/disp/display.h ****         {
 2943              		.loc 3 413 9 view .LVU706
 413:libDaisy/src/hid/disp/display.h ****         {
 2944              		.loc 3 413 22 view .LVU707
 2945 01dc 019B     		ldr	r3, [sp, #4]
 2946 01de 0CF1010C 		add	ip, ip, #1
 2947 01e2 9E45     		cmp	lr, r3
 2948 01e4 B9D1     		bne	.L197
ARM GAS  C:\Users\yaman\AppData\Local\Temp\ccCu6FW5.s 			page 99


 2949 01e6 5746     		mov	r7, r10
 2950 01e8 DDF818A0 		ldr	r10, [sp, #24]
 2951              	.LVL195:
 2952              	.L196:
 2953              	.LBB1379:
 2954              	.LBB1380:
 173:libDaisy/src/hid/disp/display.h ****         currentY_ = (y >= Height()) ? Height() - 1 : y;
 2955              		.loc 3 173 33 is_stmt 0 view .LVU708
 2956 01ec 3A68     		ldr	r2, [r7]
 2957              	.LBE1380:
 2958              	.LBE1379:
 434:libDaisy/src/hid/disp/display.h **** 
 2959              		.loc 3 434 18 view .LVU709
 2960 01ee 08EB0405 		add	r5, r8, r4
 2961 01f2 0399     		ldr	r1, [sp, #12]
 2962              	.LBB1385:
 2963              	.LBB1381:
 173:libDaisy/src/hid/disp/display.h ****         currentY_ = (y >= Height()) ? Height() - 1 : y;
 2964              		.loc 3 173 33 view .LVU710
 2965 01f4 D368     		ldr	r3, [r2, #12]
 2966              	.LBE1381:
 2967              	.LBE1385:
 434:libDaisy/src/hid/disp/display.h **** 
 2968              		.loc 3 434 18 view .LVU711
 2969 01f6 ADB2     		uxth	r5, r5
 2970              	.LVL196:
 2971              	.LBB1386:
 2972              	.LBI1379:
 171:libDaisy/src/hid/disp/display.h ****     {
 2973              		.loc 3 171 10 is_stmt 1 view .LVU712
 2974              	.LBB1382:
 173:libDaisy/src/hid/disp/display.h ****         currentY_ = (y >= Height()) ? Height() - 1 : y;
 2975              		.loc 3 173 9 view .LVU713
 2976 01f8 8B42     		cmp	r3, r1
 2977 01fa 40F0EA80 		bne	.L243
 173:libDaisy/src/hid/disp/display.h ****         currentY_ = (y >= Height()) ? Height() - 1 : y;
 2978              		.loc 3 173 33 is_stmt 0 view .LVU714
 2979 01fe 4020     		movs	r0, #64
 2980              	.L206:
 173:libDaisy/src/hid/disp/display.h ****         currentY_ = (y >= Height()) ? Height() - 1 : y;
 2981              		.loc 3 173 19 view .LVU715
 2982 0200 8542     		cmp	r5, r0
 2983 0202 05D3     		bcc	.L207
 173:libDaisy/src/hid/disp/display.h ****         currentY_ = (y >= Height()) ? Height() - 1 : y;
 2984              		.loc 3 173 44 view .LVU716
 2985 0204 D368     		ldr	r3, [r2, #12]
 2986 0206 0399     		ldr	r1, [sp, #12]
 2987 0208 8B42     		cmp	r3, r1
 2988 020a 40F0E980 		bne	.L244
 2989 020e 3F25     		movs	r5, #63
 2990              	.LVL197:
 2991              	.L207:
 174:libDaisy/src/hid/disp/display.h ****     }
 2992              		.loc 3 174 34 view .LVU717
 2993 0210 9368     		ldr	r3, [r2, #8]
 2994 0212 049A     		ldr	r2, [sp, #16]
 173:libDaisy/src/hid/disp/display.h ****         currentY_ = (y >= Height()) ? Height() - 1 : y;
ARM GAS  C:\Users\yaman\AppData\Local\Temp\ccCu6FW5.s 			page 100


 2995              		.loc 3 173 19 view .LVU718
 2996 0214 BD80     		strh	r5, [r7, #4]	@ movhi
 174:libDaisy/src/hid/disp/display.h ****     }
 2997              		.loc 3 174 9 is_stmt 1 view .LVU719
 2998 0216 9342     		cmp	r3, r2
 2999 0218 40F0D880 		bne	.L245
 174:libDaisy/src/hid/disp/display.h ****     }
 3000              		.loc 3 174 34 is_stmt 0 view .LVU720
 3001 021c 2020     		movs	r0, #32
 3002              	.L209:
 174:libDaisy/src/hid/disp/display.h ****     }
 3003              		.loc 3 174 19 view .LVU721
 3004 021e 029B     		ldr	r3, [sp, #8]
 3005 0220 8342     		cmp	r3, r0
 3006 0222 07D3     		bcc	.L210
 174:libDaisy/src/hid/disp/display.h ****     }
 3007              		.loc 3 174 46 view .LVU722
 3008 0224 3B68     		ldr	r3, [r7]
 3009 0226 049A     		ldr	r2, [sp, #16]
 3010 0228 9B68     		ldr	r3, [r3, #8]
 3011 022a 9342     		cmp	r3, r2
 3012 022c 40F0DE80 		bne	.L246
 3013 0230 1F23     		movs	r3, #31
 3014 0232 0293     		str	r3, [sp, #8]
 3015              	.LVL198:
 3016              	.L210:
 174:libDaisy/src/hid/disp/display.h ****     }
 3017              		.loc 3 174 19 view .LVU723
 3018 0234 029B     		ldr	r3, [sp, #8]
 3019 0236 FB80     		strh	r3, [r7, #6]	@ movhi
 3020              	.LBE1382:
 3021              	.LBE1386:
 3022              	.LBE1320:
 3023              	.LBE1319:
 446:libDaisy/src/hid/disp/display.h ****             {
 3024              		.loc 3 446 16 view .LVU724
 3025 0238 009B     		ldr	r3, [sp]
 3026 023a 1B78     		ldrb	r3, [r3]	@ zero_extendqisi2
 3027              	.LVL199:
 3028              	.L191:
 445:libDaisy/src/hid/disp/display.h ****                != *str)
 3029              		.loc 3 445 13 view .LVU725
 3030 023c 9A45     		cmp	r10, r3
 3031 023e 07D1     		bne	.L157
 3032              	.LVL200:
 443:libDaisy/src/hid/disp/display.h ****         {
 3033              		.loc 3 443 9 is_stmt 1 view .LVU726
 3034 0240 009B     		ldr	r3, [sp]
 3035 0242 13F801AF 		ldrb	r10, [r3, #1]!	@ zero_extendqisi2
 3036              	.LVL201:
 443:libDaisy/src/hid/disp/display.h ****         {
 3037              		.loc 3 443 9 is_stmt 0 view .LVU727
 3038 0246 0093     		str	r3, [sp]
 3039 0248 BAF1000F 		cmp	r10, #0
 3040 024c 7FF44DAF 		bne	.L213
 3041              	.LVL202:
 3042              	.L157:
ARM GAS  C:\Users\yaman\AppData\Local\Temp\ccCu6FW5.s 			page 101


 443:libDaisy/src/hid/disp/display.h ****         {
 3043              		.loc 3 443 9 view .LVU728
 3044              	.LBE1400:
 3045              	.LBE1403:
 471:libDaisy/src/hid/disp/display.h **** 
 3046              		.loc 3 471 5 view .LVU729
 3047 0250 0798     		ldr	r0, [sp, #28]
 3048 0252 0BB0     		add	sp, sp, #44
 3049              		.cfi_remember_state
 3050              		.cfi_def_cfa_offset 36
 3051              		@ sp needed
 3052 0254 BDE8F08F 		pop	{r4, r5, r6, r7, r8, r9, r10, fp, pc}
 3053              	.LVL203:
 3054              	.L170:
 3055              		.cfi_restore_state
 3056              	.LBB1404:
 3057              	.LBB1290:
 250:libDaisy/src/hid/disp/graphics_common.h ****                 return {int16_t(x_ + (other.GetCenterX() - GetCenterX())),
 3058              		.loc 16 250 13 is_stmt 1 view .LVU730
 251:libDaisy/src/hid/disp/graphics_common.h ****                         int16_t(y_ + (other.GetCenterY() - GetCenterY())),
 3059              		.loc 16 251 17 view .LVU731
 3060              	.LBB1125:
 3061              	.LBI1125:
  62:libDaisy/src/hid/disp/graphics_common.h ****     int16_t GetCenterY() const { return y_ + height_ / 2; }
 3062              		.loc 16 62 13 view .LVU732
 3063              	.LBB1126:
  62:libDaisy/src/hid/disp/graphics_common.h ****     int16_t GetCenterY() const { return y_ + height_ / 2; }
 3064              		.loc 16 62 34 view .LVU733
  62:libDaisy/src/hid/disp/graphics_common.h ****     int16_t GetCenterY() const { return y_ + height_ / 2; }
 3065              		.loc 16 62 34 is_stmt 0 view .LVU734
 3066              	.LBE1126:
 3067              	.LBE1125:
 3068              	.LBB1128:
 3069              	.LBI1128:
  62:libDaisy/src/hid/disp/graphics_common.h ****     int16_t GetCenterY() const { return y_ + height_ / 2; }
 3070              		.loc 16 62 13 is_stmt 1 view .LVU735
 3071              	.LBB1129:
  62:libDaisy/src/hid/disp/graphics_common.h ****     int16_t GetCenterY() const { return y_ + height_ / 2; }
 3072              		.loc 16 62 34 view .LVU736
  62:libDaisy/src/hid/disp/graphics_common.h ****     int16_t GetCenterY() const { return y_ + height_ / 2; }
 3073              		.loc 16 62 34 is_stmt 0 view .LVU737
 3074              	.LBE1129:
 3075              	.LBE1128:
 3076              	.LBB1130:
 3077              	.LBB1127:
  62:libDaisy/src/hid/disp/graphics_common.h ****     int16_t GetCenterY() const { return y_ + height_ / 2; }
 3078              		.loc 16 62 53 view .LVU738
 3079 0258 BCF90410 		ldrsh	r1, [ip, #4]
 3080              	.LVL204:
  62:libDaisy/src/hid/disp/graphics_common.h ****     int16_t GetCenterY() const { return y_ + height_ / 2; }
 3081              		.loc 16 62 44 view .LVU739
 3082 025c BCF80040 		ldrh	r4, [ip]
  62:libDaisy/src/hid/disp/graphics_common.h ****     int16_t GetCenterY() const { return y_ + height_ / 2; }
 3083              		.loc 16 62 53 view .LVU740
 3084 0260 0029     		cmp	r1, #0
 3085 0262 B8BF     		it	lt
 3086 0264 0131     		addlt	r1, r1, #1
ARM GAS  C:\Users\yaman\AppData\Local\Temp\ccCu6FW5.s 			page 102


  62:libDaisy/src/hid/disp/graphics_common.h ****     int16_t GetCenterY() const { return y_ + height_ / 2; }
 3087              		.loc 16 62 44 view .LVU741
 3088 0266 04EB6104 		add	r4, r4, r1, asr #1
 3089              	.LBE1127:
 3090              	.LBE1130:
 3091              	.LBB1131:
 3092              	.LBB1103:
  63:libDaisy/src/hid/disp/graphics_common.h **** 
 3093              		.loc 16 63 54 view .LVU742
 3094 026a BCF90610 		ldrsh	r1, [ip, #6]
 3095              	.LBE1103:
 3096              	.LBE1131:
 251:libDaisy/src/hid/disp/graphics_common.h ****                         int16_t(y_ + (other.GetCenterY() - GetCenterY())),
 3097              		.loc 16 251 58 view .LVU743
 3098 026e A4EB6304 		sub	r4, r4, r3, asr #1
 3099              	.LBB1132:
 3100              	.LBB1104:
  63:libDaisy/src/hid/disp/graphics_common.h **** 
 3101              		.loc 16 63 54 view .LVU744
 3102 0272 0029     		cmp	r1, #0
 3103              	.LBE1104:
 3104              	.LBE1132:
 251:libDaisy/src/hid/disp/graphics_common.h ****                         int16_t(y_ + (other.GetCenterY() - GetCenterY())),
 3105              		.loc 16 251 58 view .LVU745
 3106 0274 A4B2     		uxth	r4, r4
 3107              	.LVL205:
 3108              	.LBB1133:
 3109              	.LBI1100:
  63:libDaisy/src/hid/disp/graphics_common.h **** 
 3110              		.loc 16 63 13 is_stmt 1 view .LVU746
 3111              	.LBB1105:
  63:libDaisy/src/hid/disp/graphics_common.h **** 
 3112              		.loc 16 63 34 view .LVU747
  63:libDaisy/src/hid/disp/graphics_common.h **** 
 3113              		.loc 16 63 34 is_stmt 0 view .LVU748
 3114              	.LBE1105:
 3115              	.LBE1133:
 3116              	.LBB1134:
 3117              	.LBI1134:
  63:libDaisy/src/hid/disp/graphics_common.h **** 
 3118              		.loc 16 63 13 is_stmt 1 view .LVU749
 3119              	.LBB1135:
  63:libDaisy/src/hid/disp/graphics_common.h **** 
 3120              		.loc 16 63 34 view .LVU750
  63:libDaisy/src/hid/disp/graphics_common.h **** 
 3121              		.loc 16 63 34 is_stmt 0 view .LVU751
 3122              	.LBE1135:
 3123              	.LBE1134:
 3124              	.LBB1136:
 3125              	.LBB1106:
  63:libDaisy/src/hid/disp/graphics_common.h **** 
 3126              		.loc 16 63 54 view .LVU752
 3127 0276 BFF6FDAE 		bge	.L177
 3128              	.L237:
  63:libDaisy/src/hid/disp/graphics_common.h **** 
 3129              		.loc 16 63 54 view .LVU753
 3130 027a 0131     		adds	r1, r1, #1
ARM GAS  C:\Users\yaman\AppData\Local\Temp\ccCu6FW5.s 			page 103


 3131 027c FAE6     		b	.L177
 3132              	.LVL206:
 3133              	.L169:
  63:libDaisy/src/hid/disp/graphics_common.h **** 
 3134              		.loc 16 63 54 view .LVU754
 3135              	.LBE1106:
 3136              	.LBE1136:
 213:libDaisy/src/hid/disp/graphics_common.h ****                 return {other.x_, other.y_, width_, height_};
 3137              		.loc 16 213 13 is_stmt 1 view .LVU755
 214:libDaisy/src/hid/disp/graphics_common.h ****             case Alignment::topRight:
 3138              		.loc 16 214 17 view .LVU756
 214:libDaisy/src/hid/disp/graphics_common.h ****             case Alignment::topRight:
 3139              		.loc 16 214 31 is_stmt 0 view .LVU757
 3140 027e BCF90040 		ldrsh	r4, [ip]
 214:libDaisy/src/hid/disp/graphics_common.h ****             case Alignment::topRight:
 3141              		.loc 16 214 41 view .LVU758
 3142 0282 BCF90260 		ldrsh	r6, [ip, #2]
 3143              	.LVL207:
 3144              	.LBB1137:
 3145              	.LBI1137:
  31:libDaisy/src/hid/disp/graphics_common.h ****     : x_(x), y_(y), width_(max(0, width)), height_(max(0, height))
 3146              		.loc 16 31 5 is_stmt 1 view .LVU759
 3147              	.LBB1138:
 3148              	.LBB1139:
  32:libDaisy/src/hid/disp/graphics_common.h ****     {
 3149              		.loc 16 32 66 is_stmt 0 view .LVU760
 3150 0286 0799     		ldr	r1, [sp, #28]
 3151              	.LVL208:
  32:libDaisy/src/hid/disp/graphics_common.h ****     {
 3152              		.loc 16 32 66 view .LVU761
 3153 0288 0C80     		strh	r4, [r1]	@ movhi
 3154              	.LBE1139:
 3155              	.LBE1138:
 3156              	.LBE1137:
 3157              	.LBE1290:
 3158              	.LBE1404:
 468:libDaisy/src/hid/disp/display.h ****         ((ChildType*)(this))->ChildType::WriteString(str, font, on);
 3159              		.loc 3 468 18 view .LVU762
 3160 028a A4B2     		uxth	r4, r4
 3161              	.LVL209:
 3162              	.LBB1405:
 3163              	.LBB1291:
 3164              	.LBB1150:
 3165              	.LBB1146:
 3166              	.LBB1142:
  32:libDaisy/src/hid/disp/graphics_common.h ****     {
 3167              		.loc 16 32 66 view .LVU763
 3168 028c 4E80     		strh	r6, [r1, #2]	@ movhi
 3169              	.LBE1142:
 3170              	.LBE1146:
 3171              	.LBE1150:
 3172              	.LBE1291:
 3173              	.LBE1405:
 468:libDaisy/src/hid/disp/display.h ****         ((ChildType*)(this))->ChildType::WriteString(str, font, on);
 3174              		.loc 3 468 18 view .LVU764
 3175 028e B6B2     		uxth	r6, r6
 3176              	.LVL210:
ARM GAS  C:\Users\yaman\AppData\Local\Temp\ccCu6FW5.s 			page 104


 3177              	.LBB1406:
 3178              	.LBB1292:
 3179              	.LBB1151:
 3180              	.LBB1147:
 3181              	.LBB1143:
  32:libDaisy/src/hid/disp/graphics_common.h ****     {
 3182              		.loc 16 32 66 view .LVU765
 3183 0290 8B80     		strh	r3, [r1, #4]	@ movhi
 3184              	.LVL211:
 3185              	.LBB1140:
 3186              	.LBI1140:
 3187              		.loc 16 261 13 is_stmt 1 view .LVU766
 3188              	.LBE1140:
 3189              	.LBE1143:
 3190              	.LBE1147:
 3191              	.LBE1151:
 3192              	.LBE1292:
 3193              	.LBE1406:
 3194              		.loc 16 261 41 view .LVU767
 3195              	.LBB1407:
 3196              	.LBB1293:
 3197              	.LBB1152:
 3198              	.LBB1148:
 3199              	.LBB1144:
 3200              	.LBB1141:
 3201              	.LBI1141:
 3202              		.loc 16 261 13 view .LVU768
 3203              	.LBE1141:
 3204              	.LBE1144:
 3205              	.LBE1148:
 3206              	.LBE1152:
 3207              	.LBE1293:
 3208              	.LBE1407:
 3209              		.loc 16 261 41 view .LVU769
 3210              	.LBB1408:
 3211              	.LBB1294:
 3212              	.LBB1153:
 3213              	.LBB1149:
 3214              	.LBB1145:
  32:libDaisy/src/hid/disp/graphics_common.h ****     {
 3215              		.loc 16 32 66 is_stmt 0 view .LVU770
 3216 0292 CA80     		strh	r2, [r1, #6]	@ movhi
 3217              	.LBE1145:
  34:libDaisy/src/hid/disp/graphics_common.h **** 
 3218              		.loc 16 34 5 view .LVU771
 3219 0294 FAE6     		b	.L171
 3220              	.LVL212:
 3221              	.L166:
  34:libDaisy/src/hid/disp/graphics_common.h **** 
 3222              		.loc 16 34 5 view .LVU772
 3223              	.LBE1149:
 3224              	.LBE1153:
 225:libDaisy/src/hid/disp/graphics_common.h ****                 return {other.x_,
 3225              		.loc 16 225 13 is_stmt 1 view .LVU773
 226:libDaisy/src/hid/disp/graphics_common.h ****                         int16_t(other.GetBottom() - height_),
 3226              		.loc 16 226 17 view .LVU774
 3227              	.LBB1154:
ARM GAS  C:\Users\yaman\AppData\Local\Temp\ccCu6FW5.s 			page 105


 3228              	.LBB1155:
  61:libDaisy/src/hid/disp/graphics_common.h ****     int16_t GetCenterX() const { return x_ + width_ / 2; }
 3229              		.loc 16 61 43 is_stmt 0 view .LVU775
 3230 0296 BCF80610 		ldrh	r1, [ip, #6]
 3231              	.LVL213:
  61:libDaisy/src/hid/disp/graphics_common.h ****     int16_t GetCenterX() const { return x_ + width_ / 2; }
 3232              		.loc 16 61 43 view .LVU776
 3233 029a BCF80260 		ldrh	r6, [ip, #2]
 3234              	.LBE1155:
 3235              	.LBE1154:
 226:libDaisy/src/hid/disp/graphics_common.h ****                         int16_t(other.GetBottom() - height_),
 3236              		.loc 16 226 31 view .LVU777
 3237 029e BCF90040 		ldrsh	r4, [ip]
 3238              	.LBB1158:
 3239              	.LBB1156:
  61:libDaisy/src/hid/disp/graphics_common.h ****     int16_t GetCenterX() const { return x_ + width_ / 2; }
 3240              		.loc 16 61 43 view .LVU778
 3241 02a2 0E44     		add	r6, r6, r1
 3242              	.LBE1156:
 3243              	.LBE1158:
 3244              	.LBB1159:
 3245              	.LBB1160:
 3246              	.LBB1161:
  32:libDaisy/src/hid/disp/graphics_common.h ****     {
 3247              		.loc 16 32 66 view .LVU779
 3248 02a4 0799     		ldr	r1, [sp, #28]
 3249              	.LBE1161:
 3250              	.LBE1160:
 3251              	.LBE1159:
 227:libDaisy/src/hid/disp/graphics_common.h ****                         width_,
 3252              		.loc 16 227 51 view .LVU780
 3253 02a6 301A     		subs	r0, r6, r0
 3254              	.LVL214:
 3255              	.LBB1171:
 3256              	.LBI1154:
  61:libDaisy/src/hid/disp/graphics_common.h ****     int16_t GetCenterX() const { return x_ + width_ / 2; }
 3257              		.loc 16 61 13 is_stmt 1 view .LVU781
 3258              	.LBB1157:
  61:libDaisy/src/hid/disp/graphics_common.h ****     int16_t GetCenterX() const { return x_ + width_ / 2; }
 3259              		.loc 16 61 33 view .LVU782
  61:libDaisy/src/hid/disp/graphics_common.h ****     int16_t GetCenterX() const { return x_ + width_ / 2; }
 3260              		.loc 16 61 33 is_stmt 0 view .LVU783
 3261              	.LBE1157:
 3262              	.LBE1171:
 3263              	.LBB1172:
 3264              	.LBB1167:
 3265              	.LBB1164:
  32:libDaisy/src/hid/disp/graphics_common.h ****     {
 3266              		.loc 16 32 66 view .LVU784
 3267 02a8 0C80     		strh	r4, [r1]	@ movhi
 3268 02aa 8B80     		strh	r3, [r1, #4]	@ movhi
 3269              	.LBE1164:
 3270              	.LBE1167:
 3271              	.LBE1172:
 3272              	.LBE1294:
 3273              	.LBE1408:
 468:libDaisy/src/hid/disp/display.h ****         ((ChildType*)(this))->ChildType::WriteString(str, font, on);
ARM GAS  C:\Users\yaman\AppData\Local\Temp\ccCu6FW5.s 			page 106


 3274              		.loc 3 468 18 view .LVU785
 3275 02ac A4B2     		uxth	r4, r4
 3276              	.LBB1409:
 3277              	.LBB1295:
 227:libDaisy/src/hid/disp/graphics_common.h ****                         width_,
 3278              		.loc 16 227 51 view .LVU786
 3279 02ae 86B2     		uxth	r6, r0
 3280              	.LVL215:
 3281              	.LBB1173:
 3282              	.LBI1159:
  31:libDaisy/src/hid/disp/graphics_common.h ****     : x_(x), y_(y), width_(max(0, width)), height_(max(0, height))
 3283              		.loc 16 31 5 is_stmt 1 view .LVU787
 3284              	.LBB1168:
 3285              	.LBB1165:
  32:libDaisy/src/hid/disp/graphics_common.h ****     {
 3286              		.loc 16 32 66 is_stmt 0 view .LVU788
 3287 02b0 CA80     		strh	r2, [r1, #6]	@ movhi
 3288 02b2 4E80     		strh	r6, [r1, #2]	@ movhi
 3289              	.LVL216:
 3290              	.LBB1162:
 3291              	.LBI1162:
 3292              		.loc 16 261 13 is_stmt 1 view .LVU789
 3293              	.LBE1162:
 3294              	.LBE1165:
 3295              	.LBE1168:
 3296              	.LBE1173:
 3297              	.LBE1295:
 3298              	.LBE1409:
 3299              		.loc 16 261 41 view .LVU790
 3300              	.LBB1410:
 3301              	.LBB1296:
 3302              	.LBB1174:
 3303              	.LBB1169:
 3304              	.LBB1166:
 3305              	.LBB1163:
 3306              	.LBI1163:
 3307              		.loc 16 261 13 view .LVU791
 3308              	.LBE1163:
 3309              	.LBE1166:
 3310              	.LBE1169:
 3311              	.LBE1174:
 3312              	.LBE1296:
 3313              	.LBE1410:
 3314              		.loc 16 261 41 view .LVU792
 3315              	.LBB1411:
 3316              	.LBB1297:
 3317              	.LBB1175:
 3318              	.LBB1170:
  34:libDaisy/src/hid/disp/graphics_common.h **** 
 3319              		.loc 16 34 5 is_stmt 0 view .LVU793
 3320 02b4 EAE6     		b	.L171
 3321              	.LVL217:
 3322              	.L165:
  34:libDaisy/src/hid/disp/graphics_common.h **** 
 3323              		.loc 16 34 5 view .LVU794
 3324              	.LBE1170:
 3325              	.LBE1175:
ARM GAS  C:\Users\yaman\AppData\Local\Temp\ccCu6FW5.s 			page 107


 235:libDaisy/src/hid/disp/graphics_common.h ****                 return {int16_t(x_ + (other.GetCenterX() - GetCenterX())),
 3326              		.loc 16 235 13 is_stmt 1 view .LVU795
 236:libDaisy/src/hid/disp/graphics_common.h ****                         int16_t(other.GetBottom() - height_),
 3327              		.loc 16 236 17 view .LVU796
 3328              	.LBB1176:
 3329              	.LBI1176:
  62:libDaisy/src/hid/disp/graphics_common.h ****     int16_t GetCenterY() const { return y_ + height_ / 2; }
 3330              		.loc 16 62 13 view .LVU797
 3331              	.LBB1177:
  62:libDaisy/src/hid/disp/graphics_common.h ****     int16_t GetCenterY() const { return y_ + height_ / 2; }
 3332              		.loc 16 62 34 view .LVU798
  62:libDaisy/src/hid/disp/graphics_common.h ****     int16_t GetCenterY() const { return y_ + height_ / 2; }
 3333              		.loc 16 62 34 is_stmt 0 view .LVU799
 3334              	.LBE1177:
 3335              	.LBE1176:
 3336              	.LBB1179:
 3337              	.LBI1179:
  62:libDaisy/src/hid/disp/graphics_common.h ****     int16_t GetCenterY() const { return y_ + height_ / 2; }
 3338              		.loc 16 62 13 is_stmt 1 view .LVU800
 3339              	.LBB1180:
  62:libDaisy/src/hid/disp/graphics_common.h ****     int16_t GetCenterY() const { return y_ + height_ / 2; }
 3340              		.loc 16 62 34 view .LVU801
  62:libDaisy/src/hid/disp/graphics_common.h ****     int16_t GetCenterY() const { return y_ + height_ / 2; }
 3341              		.loc 16 62 34 is_stmt 0 view .LVU802
 3342              	.LBE1180:
 3343              	.LBE1179:
 3344              	.LBB1181:
 3345              	.LBB1178:
  62:libDaisy/src/hid/disp/graphics_common.h ****     int16_t GetCenterY() const { return y_ + height_ / 2; }
 3346              		.loc 16 62 53 view .LVU803
 3347 02b6 BCF90410 		ldrsh	r1, [ip, #4]
 3348              	.LVL218:
  62:libDaisy/src/hid/disp/graphics_common.h ****     int16_t GetCenterY() const { return y_ + height_ / 2; }
 3349              		.loc 16 62 44 view .LVU804
 3350 02ba BCF80040 		ldrh	r4, [ip]
  62:libDaisy/src/hid/disp/graphics_common.h ****     int16_t GetCenterY() const { return y_ + height_ / 2; }
 3351              		.loc 16 62 53 view .LVU805
 3352 02be 0029     		cmp	r1, #0
 3353 02c0 B8BF     		it	lt
 3354 02c2 0131     		addlt	r1, r1, #1
  62:libDaisy/src/hid/disp/graphics_common.h ****     int16_t GetCenterY() const { return y_ + height_ / 2; }
 3355              		.loc 16 62 44 view .LVU806
 3356 02c4 04EB6104 		add	r4, r4, r1, asr #1
 3357              	.LBE1178:
 3358              	.LBE1181:
 236:libDaisy/src/hid/disp/graphics_common.h ****                         int16_t(other.GetBottom() - height_),
 3359              		.loc 16 236 58 view .LVU807
 3360 02c8 A4EB6304 		sub	r4, r4, r3, asr #1
 3361              	.L235:
 3362              	.LBB1182:
 3363              	.LBB1183:
  61:libDaisy/src/hid/disp/graphics_common.h ****     int16_t GetCenterX() const { return x_ + width_ / 2; }
 3364              		.loc 16 61 43 view .LVU808
 3365 02cc BCF80260 		ldrh	r6, [ip, #2]
 3366              	.LBE1183:
 3367              	.LBE1182:
 236:libDaisy/src/hid/disp/graphics_common.h ****                         int16_t(other.GetBottom() - height_),
ARM GAS  C:\Users\yaman\AppData\Local\Temp\ccCu6FW5.s 			page 108


 3368              		.loc 16 236 58 view .LVU809
 3369 02d0 A4B2     		uxth	r4, r4
 3370              	.LVL219:
 3371              	.LBB1186:
 3372              	.LBI1182:
  61:libDaisy/src/hid/disp/graphics_common.h ****     int16_t GetCenterX() const { return x_ + width_ / 2; }
 3373              		.loc 16 61 13 is_stmt 1 view .LVU810
 3374              	.LBB1184:
  61:libDaisy/src/hid/disp/graphics_common.h ****     int16_t GetCenterX() const { return x_ + width_ / 2; }
 3375              		.loc 16 61 33 view .LVU811
  61:libDaisy/src/hid/disp/graphics_common.h ****     int16_t GetCenterX() const { return x_ + width_ / 2; }
 3376              		.loc 16 61 43 is_stmt 0 view .LVU812
 3377 02d2 BCF806C0 		ldrh	ip, [ip, #6]
 3378              	.LVL220:
  61:libDaisy/src/hid/disp/graphics_common.h ****     int16_t GetCenterX() const { return x_ + width_ / 2; }
 3379              		.loc 16 61 43 view .LVU813
 3380              	.LBE1184:
 3381              	.LBE1186:
 3382              	.LBB1187:
 3383              	.LBB1188:
 3384              	.LBB1189:
  32:libDaisy/src/hid/disp/graphics_common.h ****     {
 3385              		.loc 16 32 66 view .LVU814
 3386 02d6 0799     		ldr	r1, [sp, #28]
 3387              	.LBE1189:
 3388              	.LBE1188:
 3389              	.LBE1187:
 3390              	.LBB1201:
 3391              	.LBB1185:
  61:libDaisy/src/hid/disp/graphics_common.h ****     int16_t GetCenterX() const { return x_ + width_ / 2; }
 3392              		.loc 16 61 43 view .LVU815
 3393 02d8 6644     		add	r6, r6, ip
 3394              	.LBE1185:
 3395              	.LBE1201:
 3396              	.LBB1202:
 3397              	.LBB1196:
 3398              	.LBB1192:
  32:libDaisy/src/hid/disp/graphics_common.h ****     {
 3399              		.loc 16 32 66 view .LVU816
 3400 02da 8B80     		strh	r3, [r1, #4]	@ movhi
 3401              	.LBE1192:
 3402              	.LBE1196:
 3403              	.LBE1202:
 237:libDaisy/src/hid/disp/graphics_common.h ****                         width_,
 3404              		.loc 16 237 51 view .LVU817
 3405 02dc 301A     		subs	r0, r6, r0
 3406              	.LBB1203:
 3407              	.LBB1197:
 3408              	.LBB1193:
  32:libDaisy/src/hid/disp/graphics_common.h ****     {
 3409              		.loc 16 32 66 view .LVU818
 3410 02de CA80     		strh	r2, [r1, #6]	@ movhi
 3411 02e0 0C80     		strh	r4, [r1]	@ movhi
 3412              	.LBE1193:
 3413              	.LBE1197:
 3414              	.LBE1203:
 237:libDaisy/src/hid/disp/graphics_common.h ****                         width_,
ARM GAS  C:\Users\yaman\AppData\Local\Temp\ccCu6FW5.s 			page 109


 3415              		.loc 16 237 51 view .LVU819
 3416 02e2 86B2     		uxth	r6, r0
 3417              	.LVL221:
 3418              	.LBB1204:
 3419              	.LBI1187:
  31:libDaisy/src/hid/disp/graphics_common.h ****     : x_(x), y_(y), width_(max(0, width)), height_(max(0, height))
 3420              		.loc 16 31 5 is_stmt 1 view .LVU820
 3421              	.LBB1198:
 3422              	.LBB1194:
  32:libDaisy/src/hid/disp/graphics_common.h ****     {
 3423              		.loc 16 32 66 is_stmt 0 view .LVU821
 3424 02e4 4E80     		strh	r6, [r1, #2]	@ movhi
 3425              	.LVL222:
 3426              	.LBB1190:
 3427              	.LBI1190:
 3428              		.loc 16 261 13 is_stmt 1 view .LVU822
 3429              	.LBE1190:
 3430              	.LBE1194:
 3431              	.LBE1198:
 3432              	.LBE1204:
 3433              	.LBE1297:
 3434              	.LBE1411:
 3435              		.loc 16 261 41 view .LVU823
 3436              	.LBB1412:
 3437              	.LBB1298:
 3438              	.LBB1205:
 3439              	.LBB1199:
 3440              	.LBB1195:
 3441              	.LBB1191:
 3442              	.LBI1191:
 3443              		.loc 16 261 13 view .LVU824
 3444              	.LBE1191:
 3445              	.LBE1195:
 3446              	.LBE1199:
 3447              	.LBE1205:
 3448              	.LBE1298:
 3449              	.LBE1412:
 3450              		.loc 16 261 41 view .LVU825
 3451              	.LBB1413:
 3452              	.LBB1299:
 3453              	.LBB1206:
 3454              	.LBB1200:
  34:libDaisy/src/hid/disp/graphics_common.h **** 
 3455              		.loc 16 34 5 is_stmt 0 view .LVU826
 3456 02e6 D1E6     		b	.L171
 3457              	.LVL223:
 3458              	.L164:
  34:libDaisy/src/hid/disp/graphics_common.h **** 
 3459              		.loc 16 34 5 view .LVU827
 3460              	.LBE1200:
 3461              	.LBE1206:
 230:libDaisy/src/hid/disp/graphics_common.h ****                 return {int16_t(other.GetRight() - width_),
 3462              		.loc 16 230 13 is_stmt 1 view .LVU828
 231:libDaisy/src/hid/disp/graphics_common.h ****                         int16_t(other.GetBottom() - height_),
 3463              		.loc 16 231 17 view .LVU829
 3464              	.LBB1207:
 3465              	.LBI1207:
ARM GAS  C:\Users\yaman\AppData\Local\Temp\ccCu6FW5.s 			page 110


  60:libDaisy/src/hid/disp/graphics_common.h ****     int16_t GetBottom() const { return y_ + height_; }
 3466              		.loc 16 60 13 view .LVU830
 3467              	.LBB1208:
  60:libDaisy/src/hid/disp/graphics_common.h ****     int16_t GetBottom() const { return y_ + height_; }
 3468              		.loc 16 60 32 view .LVU831
  60:libDaisy/src/hid/disp/graphics_common.h ****     int16_t GetBottom() const { return y_ + height_; }
 3469              		.loc 16 60 42 is_stmt 0 view .LVU832
 3470 02e8 BCF80040 		ldrh	r4, [ip]
 3471 02ec BCF80410 		ldrh	r1, [ip, #4]
 3472              	.LVL224:
  60:libDaisy/src/hid/disp/graphics_common.h ****     int16_t GetBottom() const { return y_ + height_; }
 3473              		.loc 16 60 42 view .LVU833
 3474 02f0 0C44     		add	r4, r4, r1
 3475              	.LBE1208:
 3476              	.LBE1207:
 231:libDaisy/src/hid/disp/graphics_common.h ****                         int16_t(other.GetBottom() - height_),
 3477              		.loc 16 231 50 view .LVU834
 3478 02f2 E41A     		subs	r4, r4, r3
 3479 02f4 EAE7     		b	.L235
 3480              	.LVL225:
 3481              	.L163:
 240:libDaisy/src/hid/disp/graphics_common.h ****                 return {other.x_,
 3482              		.loc 16 240 13 is_stmt 1 view .LVU835
 241:libDaisy/src/hid/disp/graphics_common.h ****                         int16_t(y_ + (other.GetCenterY() - GetCenterY())),
 3483              		.loc 16 241 17 view .LVU836
 3484              	.LBB1209:
 3485              	.LBB1210:
  63:libDaisy/src/hid/disp/graphics_common.h **** 
 3486              		.loc 16 63 54 is_stmt 0 view .LVU837
 3487 02f6 BCF90610 		ldrsh	r1, [ip, #6]
 3488              	.LVL226:
  63:libDaisy/src/hid/disp/graphics_common.h **** 
 3489              		.loc 16 63 54 view .LVU838
 3490              	.LBE1210:
 3491              	.LBE1209:
 241:libDaisy/src/hid/disp/graphics_common.h ****                         int16_t(y_ + (other.GetCenterY() - GetCenterY())),
 3492              		.loc 16 241 31 view .LVU839
 3493 02fa BCF90040 		ldrsh	r4, [ip]
 3494              	.LVL227:
 3495              	.LBB1215:
 3496              	.LBI1209:
  63:libDaisy/src/hid/disp/graphics_common.h **** 
 3497              		.loc 16 63 13 is_stmt 1 view .LVU840
 3498              	.LBB1211:
  63:libDaisy/src/hid/disp/graphics_common.h **** 
 3499              		.loc 16 63 34 view .LVU841
  63:libDaisy/src/hid/disp/graphics_common.h **** 
 3500              		.loc 16 63 34 is_stmt 0 view .LVU842
 3501              	.LBE1211:
 3502              	.LBE1215:
 3503              	.LBB1216:
 3504              	.LBI1216:
  63:libDaisy/src/hid/disp/graphics_common.h **** 
 3505              		.loc 16 63 13 is_stmt 1 view .LVU843
 3506              	.LBB1217:
  63:libDaisy/src/hid/disp/graphics_common.h **** 
 3507              		.loc 16 63 34 view .LVU844
ARM GAS  C:\Users\yaman\AppData\Local\Temp\ccCu6FW5.s 			page 111


  63:libDaisy/src/hid/disp/graphics_common.h **** 
 3508              		.loc 16 63 34 is_stmt 0 view .LVU845
 3509              	.LBE1217:
 3510              	.LBE1216:
 3511              	.LBB1218:
 3512              	.LBB1212:
  63:libDaisy/src/hid/disp/graphics_common.h **** 
 3513              		.loc 16 63 54 view .LVU846
 3514 02fe 0029     		cmp	r1, #0
  63:libDaisy/src/hid/disp/graphics_common.h **** 
 3515              		.loc 16 63 44 view .LVU847
 3516 0300 BCF802C0 		ldrh	ip, [ip, #2]
 3517              	.LVL228:
  63:libDaisy/src/hid/disp/graphics_common.h **** 
 3518              		.loc 16 63 44 view .LVU848
 3519              	.LBE1212:
 3520              	.LBE1218:
 3521              	.LBB1219:
 3522              	.LBB1220:
 3523              	.LBB1221:
  32:libDaisy/src/hid/disp/graphics_common.h ****     {
 3524              		.loc 16 32 66 view .LVU849
 3525 0304 0798     		ldr	r0, [sp, #28]
 3526              	.LBE1221:
 3527              	.LBE1220:
 3528              	.LBE1219:
 3529              	.LBB1233:
 3530              	.LBB1213:
  63:libDaisy/src/hid/disp/graphics_common.h **** 
 3531              		.loc 16 63 54 view .LVU850
 3532 0306 B8BF     		it	lt
 3533 0308 0131     		addlt	r1, r1, #1
 3534              	.LBE1213:
 3535              	.LBE1233:
 3536              	.LBB1234:
 3537              	.LBB1228:
 3538              	.LBB1224:
  32:libDaisy/src/hid/disp/graphics_common.h ****     {
 3539              		.loc 16 32 66 view .LVU851
 3540 030a C280     		strh	r2, [r0, #6]	@ movhi
 3541              	.LBE1224:
 3542              	.LBE1228:
 3543              	.LBE1234:
 3544              	.LBB1235:
 3545              	.LBB1214:
  63:libDaisy/src/hid/disp/graphics_common.h **** 
 3546              		.loc 16 63 44 view .LVU852
 3547 030c 0CEB6106 		add	r6, ip, r1, asr #1
 3548              	.LBE1214:
 3549              	.LBE1235:
 3550              	.LBB1236:
 3551              	.LBB1229:
 3552              	.LBB1225:
  32:libDaisy/src/hid/disp/graphics_common.h ****     {
 3553              		.loc 16 32 66 view .LVU853
 3554 0310 0480     		strh	r4, [r0]	@ movhi
 3555 0312 8380     		strh	r3, [r0, #4]	@ movhi
ARM GAS  C:\Users\yaman\AppData\Local\Temp\ccCu6FW5.s 			page 112


 3556              	.LBE1225:
 3557              	.LBE1229:
 3558              	.LBE1236:
 3559              	.LBE1299:
 3560              	.LBE1413:
 468:libDaisy/src/hid/disp/display.h ****         ((ChildType*)(this))->ChildType::WriteString(str, font, on);
 3561              		.loc 3 468 18 view .LVU854
 3562 0314 A4B2     		uxth	r4, r4
 3563              	.LBB1414:
 3564              	.LBB1300:
 242:libDaisy/src/hid/disp/graphics_common.h ****                         width_,
 3565              		.loc 16 242 58 view .LVU855
 3566 0316 A6EB5202 		sub	r2, r6, r2, lsr #1
 3567 031a 96B2     		uxth	r6, r2
 3568              	.LVL229:
 3569              	.LBB1237:
 3570              	.LBI1219:
  31:libDaisy/src/hid/disp/graphics_common.h ****     : x_(x), y_(y), width_(max(0, width)), height_(max(0, height))
 3571              		.loc 16 31 5 is_stmt 1 view .LVU856
 3572              	.LBB1230:
 3573              	.LBB1226:
  32:libDaisy/src/hid/disp/graphics_common.h ****     {
 3574              		.loc 16 32 66 is_stmt 0 view .LVU857
 3575 031c 4680     		strh	r6, [r0, #2]	@ movhi
 3576              	.LVL230:
 3577              	.LBB1222:
 3578              	.LBI1222:
 3579              		.loc 16 261 13 is_stmt 1 view .LVU858
 3580              	.LBE1222:
 3581              	.LBE1226:
 3582              	.LBE1230:
 3583              	.LBE1237:
 3584              	.LBE1300:
 3585              	.LBE1414:
 3586              		.loc 16 261 41 view .LVU859
 3587              	.LBB1415:
 3588              	.LBB1301:
 3589              	.LBB1238:
 3590              	.LBB1231:
 3591              	.LBB1227:
 3592              	.LBB1223:
 3593              	.LBI1223:
 3594              		.loc 16 261 13 view .LVU860
 3595              	.LBE1223:
 3596              	.LBE1227:
 3597              	.LBE1231:
 3598              	.LBE1238:
 3599              	.LBE1301:
 3600              	.LBE1415:
 3601              		.loc 16 261 41 view .LVU861
 3602              	.LBB1416:
 3603              	.LBB1302:
 3604              	.LBB1239:
 3605              	.LBB1232:
  34:libDaisy/src/hid/disp/graphics_common.h **** 
 3606              		.loc 16 34 5 is_stmt 0 view .LVU862
 3607 031e B5E6     		b	.L171
ARM GAS  C:\Users\yaman\AppData\Local\Temp\ccCu6FW5.s 			page 113


 3608              	.LVL231:
 3609              	.L168:
  34:libDaisy/src/hid/disp/graphics_common.h **** 
 3610              		.loc 16 34 5 view .LVU863
 3611              	.LBE1232:
 3612              	.LBE1239:
 220:libDaisy/src/hid/disp/graphics_common.h ****                 return {int16_t(x_ + (other.GetCenterX() - GetCenterX())),
 3613              		.loc 16 220 13 is_stmt 1 view .LVU864
 221:libDaisy/src/hid/disp/graphics_common.h ****                         other.y_,
 3614              		.loc 16 221 17 view .LVU865
 3615              	.LBB1240:
 3616              	.LBI1240:
  62:libDaisy/src/hid/disp/graphics_common.h ****     int16_t GetCenterY() const { return y_ + height_ / 2; }
 3617              		.loc 16 62 13 view .LVU866
 3618              	.LBB1241:
  62:libDaisy/src/hid/disp/graphics_common.h ****     int16_t GetCenterY() const { return y_ + height_ / 2; }
 3619              		.loc 16 62 34 view .LVU867
  62:libDaisy/src/hid/disp/graphics_common.h ****     int16_t GetCenterY() const { return y_ + height_ / 2; }
 3620              		.loc 16 62 34 is_stmt 0 view .LVU868
 3621              	.LBE1241:
 3622              	.LBE1240:
 3623              	.LBB1244:
 3624              	.LBI1244:
  62:libDaisy/src/hid/disp/graphics_common.h ****     int16_t GetCenterY() const { return y_ + height_ / 2; }
 3625              		.loc 16 62 13 is_stmt 1 view .LVU869
 3626              	.LBB1245:
  62:libDaisy/src/hid/disp/graphics_common.h ****     int16_t GetCenterY() const { return y_ + height_ / 2; }
 3627              		.loc 16 62 34 view .LVU870
  62:libDaisy/src/hid/disp/graphics_common.h ****     int16_t GetCenterY() const { return y_ + height_ / 2; }
 3628              		.loc 16 62 34 is_stmt 0 view .LVU871
 3629              	.LBE1245:
 3630              	.LBE1244:
 3631              	.LBB1246:
 3632              	.LBB1242:
  62:libDaisy/src/hid/disp/graphics_common.h ****     int16_t GetCenterY() const { return y_ + height_ / 2; }
 3633              		.loc 16 62 53 view .LVU872
 3634 0320 BCF90410 		ldrsh	r1, [ip, #4]
 3635              	.LVL232:
  62:libDaisy/src/hid/disp/graphics_common.h ****     int16_t GetCenterY() const { return y_ + height_ / 2; }
 3636              		.loc 16 62 44 view .LVU873
 3637 0324 BCF80040 		ldrh	r4, [ip]
  62:libDaisy/src/hid/disp/graphics_common.h ****     int16_t GetCenterY() const { return y_ + height_ / 2; }
 3638              		.loc 16 62 53 view .LVU874
 3639 0328 0029     		cmp	r1, #0
 3640              	.LBE1242:
 3641              	.LBE1246:
 222:libDaisy/src/hid/disp/graphics_common.h ****                         width_,
 3642              		.loc 16 222 31 view .LVU875
 3643 032a BCF90260 		ldrsh	r6, [ip, #2]
 3644              	.LVL233:
 3645              	.LBB1247:
 3646              	.LBB1243:
  62:libDaisy/src/hid/disp/graphics_common.h ****     int16_t GetCenterY() const { return y_ + height_ / 2; }
 3647              		.loc 16 62 53 view .LVU876
 3648 032e B8BF     		it	lt
 3649 0330 0131     		addlt	r1, r1, #1
  62:libDaisy/src/hid/disp/graphics_common.h ****     int16_t GetCenterY() const { return y_ + height_ / 2; }
ARM GAS  C:\Users\yaman\AppData\Local\Temp\ccCu6FW5.s 			page 114


 3650              		.loc 16 62 44 view .LVU877
 3651 0332 04EB6104 		add	r4, r4, r1, asr #1
 3652              	.LBE1243:
 3653              	.LBE1247:
 3654              	.LBB1248:
 3655              	.LBB1249:
 3656              	.LBB1250:
  32:libDaisy/src/hid/disp/graphics_common.h ****     {
 3657              		.loc 16 32 66 view .LVU878
 3658 0336 0799     		ldr	r1, [sp, #28]
 3659 0338 8B80     		strh	r3, [r1, #4]	@ movhi
 3660              	.LBE1250:
 3661              	.LBE1249:
 3662              	.LBE1248:
 221:libDaisy/src/hid/disp/graphics_common.h ****                         other.y_,
 3663              		.loc 16 221 58 view .LVU879
 3664 033a A4EB6303 		sub	r3, r4, r3, asr #1
 3665              	.LBB1261:
 3666              	.LBB1257:
 3667              	.LBB1253:
  32:libDaisy/src/hid/disp/graphics_common.h ****     {
 3668              		.loc 16 32 66 view .LVU880
 3669 033e 4E80     		strh	r6, [r1, #2]	@ movhi
 3670              	.LBE1253:
 3671              	.LBE1257:
 3672              	.LBE1261:
 3673              	.LBE1302:
 3674              	.LBE1416:
 468:libDaisy/src/hid/disp/display.h ****         ((ChildType*)(this))->ChildType::WriteString(str, font, on);
 3675              		.loc 3 468 18 view .LVU881
 3676 0340 B6B2     		uxth	r6, r6
 3677              	.LBB1417:
 3678              	.LBB1303:
 221:libDaisy/src/hid/disp/graphics_common.h ****                         other.y_,
 3679              		.loc 16 221 58 view .LVU882
 3680 0342 9CB2     		uxth	r4, r3
 3681              	.LVL234:
 3682              	.LBB1262:
 3683              	.LBI1248:
  31:libDaisy/src/hid/disp/graphics_common.h ****     : x_(x), y_(y), width_(max(0, width)), height_(max(0, height))
 3684              		.loc 16 31 5 is_stmt 1 view .LVU883
 3685              	.LBB1258:
 3686              	.LBB1254:
 3687              	.LBB1251:
 3688              	.LBI1251:
 3689              		.loc 16 261 13 view .LVU884
 3690              	.LBE1251:
 3691              	.LBE1254:
 3692              	.LBE1258:
 3693              	.LBE1262:
 3694              	.LBE1303:
 3695              	.LBE1417:
 3696              		.loc 16 261 41 view .LVU885
 3697              	.LBB1418:
 3698              	.LBB1304:
 3699              	.LBB1263:
 3700              	.LBB1259:
ARM GAS  C:\Users\yaman\AppData\Local\Temp\ccCu6FW5.s 			page 115


 3701              	.LBB1255:
 3702              	.LBB1252:
 3703              	.LBI1252:
 3704              		.loc 16 261 13 view .LVU886
 3705              	.LBE1252:
 3706              	.LBE1255:
 3707              	.LBE1259:
 3708              	.LBE1263:
 3709              	.LBE1304:
 3710              	.LBE1418:
 3711              		.loc 16 261 41 view .LVU887
 3712              	.LBB1419:
 3713              	.LBB1305:
 3714              	.LBB1264:
 3715              	.LBB1260:
 3716              	.LBB1256:
  32:libDaisy/src/hid/disp/graphics_common.h ****     {
 3717              		.loc 16 32 66 is_stmt 0 view .LVU888
 3718 0344 CA80     		strh	r2, [r1, #6]	@ movhi
 3719 0346 0C80     		strh	r4, [r1]	@ movhi
 3720              	.LBE1256:
  34:libDaisy/src/hid/disp/graphics_common.h **** 
 3721              		.loc 16 34 5 view .LVU889
 3722 0348 A0E6     		b	.L171
 3723              	.L250:
 3724 034a 00BF     		.align	2
 3725              	.L249:
 3726 034c 00000000 		.word	_ZNK5daisy11OledDisplayINS_13SSD130xDriverILj64ELj32ENS_19SSD130xI2CTransportEEEE5WidthEv
 3727 0350 00000000 		.word	_ZNK5daisy11OledDisplayINS_13SSD130xDriverILj64ELj32ENS_19SSD130xI2CTransportEEEE6HeightEv
 3728              	.LVL235:
 3729              	.L167:
  34:libDaisy/src/hid/disp/graphics_common.h **** 
 3730              		.loc 16 34 5 view .LVU890
 3731              	.LBE1260:
 3732              	.LBE1264:
 215:libDaisy/src/hid/disp/graphics_common.h ****                 return {int16_t(other.GetRight() - width_),
 3733              		.loc 16 215 13 is_stmt 1 view .LVU891
 216:libDaisy/src/hid/disp/graphics_common.h ****                         other.y_,
 3734              		.loc 16 216 17 view .LVU892
 3735              	.LBB1265:
 3736              	.LBI1265:
  60:libDaisy/src/hid/disp/graphics_common.h ****     int16_t GetBottom() const { return y_ + height_; }
 3737              		.loc 16 60 13 view .LVU893
 3738              	.LBB1266:
  60:libDaisy/src/hid/disp/graphics_common.h ****     int16_t GetBottom() const { return y_ + height_; }
 3739              		.loc 16 60 32 view .LVU894
  60:libDaisy/src/hid/disp/graphics_common.h ****     int16_t GetBottom() const { return y_ + height_; }
 3740              		.loc 16 60 42 is_stmt 0 view .LVU895
 3741 0354 BCF80410 		ldrh	r1, [ip, #4]
 3742              	.LVL236:
  60:libDaisy/src/hid/disp/graphics_common.h ****     int16_t GetBottom() const { return y_ + height_; }
 3743              		.loc 16 60 42 view .LVU896
 3744 0358 BCF80040 		ldrh	r4, [ip]
 3745              	.LBE1266:
 3746              	.LBE1265:
 217:libDaisy/src/hid/disp/graphics_common.h ****                         width_,
 3747              		.loc 16 217 31 view .LVU897
ARM GAS  C:\Users\yaman\AppData\Local\Temp\ccCu6FW5.s 			page 116


 3748 035c BCF90260 		ldrsh	r6, [ip, #2]
 3749              	.LVL237:
 3750              	.LBB1268:
 3751              	.LBB1267:
  60:libDaisy/src/hid/disp/graphics_common.h ****     int16_t GetBottom() const { return y_ + height_; }
 3752              		.loc 16 60 42 view .LVU898
 3753 0360 0C44     		add	r4, r4, r1
 3754              	.LBE1267:
 3755              	.LBE1268:
 3756              	.LBB1269:
 3757              	.LBB1270:
 3758              	.LBB1271:
  32:libDaisy/src/hid/disp/graphics_common.h ****     {
 3759              		.loc 16 32 66 view .LVU899
 3760 0362 0799     		ldr	r1, [sp, #28]
 3761 0364 8B80     		strh	r3, [r1, #4]	@ movhi
 3762              	.LBE1271:
 3763              	.LBE1270:
 3764              	.LBE1269:
 216:libDaisy/src/hid/disp/graphics_common.h ****                         other.y_,
 3765              		.loc 16 216 50 view .LVU900
 3766 0366 E31A     		subs	r3, r4, r3
 3767              	.LBB1282:
 3768              	.LBB1278:
 3769              	.LBB1274:
  32:libDaisy/src/hid/disp/graphics_common.h ****     {
 3770              		.loc 16 32 66 view .LVU901
 3771 0368 4E80     		strh	r6, [r1, #2]	@ movhi
 3772              	.LBE1274:
 3773              	.LBE1278:
 3774              	.LBE1282:
 3775              	.LBE1305:
 3776              	.LBE1419:
 468:libDaisy/src/hid/disp/display.h ****         ((ChildType*)(this))->ChildType::WriteString(str, font, on);
 3777              		.loc 3 468 18 view .LVU902
 3778 036a B6B2     		uxth	r6, r6
 3779              	.LBB1420:
 3780              	.LBB1306:
 216:libDaisy/src/hid/disp/graphics_common.h ****                         other.y_,
 3781              		.loc 16 216 50 view .LVU903
 3782 036c 9CB2     		uxth	r4, r3
 3783              	.LVL238:
 3784              	.LBB1283:
 3785              	.LBI1269:
  31:libDaisy/src/hid/disp/graphics_common.h ****     : x_(x), y_(y), width_(max(0, width)), height_(max(0, height))
 3786              		.loc 16 31 5 is_stmt 1 view .LVU904
 3787              	.LBB1279:
 3788              	.LBB1275:
 3789              	.LBB1272:
 3790              	.LBI1272:
 3791              		.loc 16 261 13 view .LVU905
 3792              	.LBE1272:
 3793              	.LBE1275:
 3794              	.LBE1279:
 3795              	.LBE1283:
 3796              	.LBE1306:
 3797              	.LBE1420:
ARM GAS  C:\Users\yaman\AppData\Local\Temp\ccCu6FW5.s 			page 117


 3798              		.loc 16 261 41 view .LVU906
 3799              	.LBB1421:
 3800              	.LBB1307:
 3801              	.LBB1284:
 3802              	.LBB1280:
 3803              	.LBB1276:
 3804              	.LBB1273:
 3805              	.LBI1273:
 3806              		.loc 16 261 13 view .LVU907
 3807              	.LBE1273:
 3808              	.LBE1276:
 3809              	.LBE1280:
 3810              	.LBE1284:
 3811              	.LBE1307:
 3812              	.LBE1421:
 3813              		.loc 16 261 41 view .LVU908
 3814              	.LBB1422:
 3815              	.LBB1308:
 3816              	.LBB1285:
 3817              	.LBB1281:
 3818              	.LBB1277:
  32:libDaisy/src/hid/disp/graphics_common.h ****     {
 3819              		.loc 16 32 66 is_stmt 0 view .LVU909
 3820 036e CA80     		strh	r2, [r1, #6]	@ movhi
 3821 0370 0C80     		strh	r4, [r1]	@ movhi
 3822              	.LBE1277:
  34:libDaisy/src/hid/disp/graphics_common.h **** 
 3823              		.loc 16 34 5 view .LVU910
 3824 0372 8BE6     		b	.L171
 3825              	.LVL239:
 3826              	.L198:
  34:libDaisy/src/hid/disp/graphics_common.h **** 
 3827              		.loc 16 34 5 view .LVU911
 3828              	.LBE1281:
 3829              	.LBE1285:
 3830              	.LBE1308:
 3831              	.LBE1422:
 3832              	.LBB1423:
 3833              	.LBB1401:
 3834              	.LBB1396:
 3835              	.LBB1393:
 416:libDaisy/src/hid/disp/display.h ****             {
 3836              		.loc 3 416 19 view .LVU912
 3837 0374 0022     		movs	r2, #0
 3838 0376 0EE0     		b	.L205
 3839              	.LVL240:
 3840              	.L247:
 3841              	.LBB1387:
 3842              	.LBB1367:
 3843              	.LBB1361:
 241:libDaisy/src/dev/oled_ssd130x.h ****             return;
 3844              		.loc 13 241 9 view .LVU913
 3845 0378 3F2B     		cmp	r3, #63
 3846 037a 06D8     		bhi	.L204
 3847 037c 2DB9     		cbnz	r5, .L204
 244:libDaisy/src/dev/oled_ssd130x.h ****         else
 3848              		.loc 13 244 42 view .LVU914
ARM GAS  C:\Users\yaman\AppData\Local\Temp\ccCu6FW5.s 			page 118


 3849 037e 91F800B0 		ldrb	fp, [r1]	@ zero_extendqisi2
 3850 0382 46EA0B0B 		orr	fp, r6, fp
 3851 0386 81F800B0 		strb	fp, [r1]
 3852              	.L204:
 3853              	.LVL241:
 244:libDaisy/src/dev/oled_ssd130x.h ****         else
 3854              		.loc 13 244 42 view .LVU915
 3855              	.LBE1361:
 3856              	.LBE1367:
 3857              	.LBE1387:
 416:libDaisy/src/hid/disp/display.h ****             {
 3858              		.loc 3 416 13 is_stmt 1 view .LVU916
 3859 038a 0132     		adds	r2, r2, #1
 3860              	.LVL242:
 416:libDaisy/src/hid/disp/display.h ****             {
 3861              		.loc 3 416 26 view .LVU917
 3862 038c 0131     		adds	r1, r1, #1
 3863 038e 0133     		adds	r3, r3, #1
 3864 0390 9442     		cmp	r4, r2
 3865 0392 3FF423AF 		beq	.L201
 3866              	.LVL243:
 3867              	.L205:
 3868              	.LBB1388:
  42:libDaisy/src/hid/disp/oled_display.h ****     {
 3869              		.loc 2 42 10 view .LVU918
 3870              	.LBB1368:
 239:libDaisy/src/dev/oled_ssd130x.h ****     {
 3871              		.loc 13 239 10 view .LVU919
 239:libDaisy/src/dev/oled_ssd130x.h ****     {
 3872              		.loc 13 239 10 is_stmt 0 view .LVU920
 3873              	.LBE1368:
 3874              	.LBE1388:
 3875              	.LBB1389:
  42:libDaisy/src/hid/disp/oled_display.h ****     {
 3876              		.loc 2 42 10 is_stmt 1 view .LVU921
 3877              	.LBB1345:
 239:libDaisy/src/dev/oled_ssd130x.h ****     {
 3878              		.loc 13 239 10 view .LVU922
 3879              	.LBE1345:
 3880              	.LBE1389:
 418:libDaisy/src/hid/disp/display.h ****                 {
 3881              		.loc 3 418 23 is_stmt 0 view .LVU923
 3882 0396 00FA02FB 		lsl	fp, r0, r2
 418:libDaisy/src/hid/disp/display.h ****                 {
 3883              		.loc 3 418 17 view .LVU924
 3884 039a 1BF4004F 		tst	fp, #32768
 3885 039e EBD1     		bne	.L247
 3886              	.LVL244:
 3887              	.LBB1390:
 3888              	.LBB1346:
 3889              	.LBB1339:
 3890              	.LBB1333:
 3891              	.LBI1324:
 239:libDaisy/src/dev/oled_ssd130x.h ****     {
 3892              		.loc 13 239 10 is_stmt 1 view .LVU925
 239:libDaisy/src/dev/oled_ssd130x.h ****     {
 3893              		.loc 13 239 10 is_stmt 0 view .LVU926
ARM GAS  C:\Users\yaman\AppData\Local\Temp\ccCu6FW5.s 			page 119


 3894              	.LBE1333:
 241:libDaisy/src/dev/oled_ssd130x.h ****             return;
 3895              		.loc 13 241 9 view .LVU927
 3896 03a0 3F2B     		cmp	r3, #63
 3897 03a2 F2D8     		bhi	.L204
 3898 03a4 002D     		cmp	r5, #0
 3899 03a6 F0D1     		bne	.L204
 3900              	.LBB1334:
 3901              	.LBB1329:
 246:libDaisy/src/dev/oled_ssd130x.h ****     }
 3902              		.loc 13 246 42 view .LVU928
 3903 03a8 91F800B0 		ldrb	fp, [r1]	@ zero_extendqisi2
 3904 03ac 09EA0B0B 		and	fp, r9, fp
 3905 03b0 81F800B0 		strb	fp, [r1]
 3906 03b4 E9E7     		b	.L204
 3907              	.LVL245:
 3908              	.L236:
 246:libDaisy/src/dev/oled_ssd130x.h ****     }
 3909              		.loc 13 246 42 view .LVU929
 3910              	.LBE1329:
 3911              	.LBE1334:
 3912              	.LBE1339:
 3913              	.LBE1346:
 3914              	.LBE1390:
 3915              	.LBE1393:
 3916              	.LBE1396:
 446:libDaisy/src/hid/disp/display.h ****             {
 3917              		.loc 3 446 16 view .LVU930
 3918 03b6 009B     		ldr	r3, [sp]
 3919              	.LBB1397:
 3920              	.LBB1394:
 409:libDaisy/src/hid/disp/display.h ****         }
 3921              		.loc 3 409 20 view .LVU931
 3922 03b8 4FF0000A 		mov	r10, #0
 3923              	.LVL246:
 409:libDaisy/src/hid/disp/display.h ****         }
 3924              		.loc 3 409 20 view .LVU932
 3925              	.LBE1394:
 3926              	.LBE1397:
 446:libDaisy/src/hid/disp/display.h ****             {
 3927              		.loc 3 446 16 view .LVU933
 3928 03bc 1B78     		ldrb	r3, [r3]	@ zero_extendqisi2
 3929 03be 3DE7     		b	.L191
 3930              	.LVL247:
 3931              	.L240:
 3932              	.LBB1398:
 3933              	.LBB1395:
 405:libDaisy/src/hid/disp/display.h ****            || Height() < (currentY_ + font.FontHeight))
 3934              		.loc 3 405 17 view .LVU934
 3935 03c0 3846     		mov	r0, r7
 3936 03c2 9847     		blx	r3
 3937              	.LVL248:
 3938 03c4 9EE6     		b	.L189
 3939              	.L241:
 406:libDaisy/src/hid/disp/display.h ****         {
 3940              		.loc 3 406 21 view .LVU935
 3941 03c6 3846     		mov	r0, r7
ARM GAS  C:\Users\yaman\AppData\Local\Temp\ccCu6FW5.s 			page 120


 3942 03c8 9847     		blx	r3
 3943              	.LVL249:
 3944 03ca A7E6     		b	.L192
 3945              	.LVL250:
 3946              	.L245:
 3947              	.LBB1391:
 3948              	.LBB1383:
 174:libDaisy/src/hid/disp/display.h ****     }
 3949              		.loc 3 174 33 view .LVU936
 3950 03cc 3846     		mov	r0, r7
 3951 03ce 9847     		blx	r3
 3952              	.LVL251:
 3953 03d0 25E7     		b	.L209
 3954              	.LVL252:
 3955              	.L243:
 173:libDaisy/src/hid/disp/display.h ****         currentY_ = (y >= Height()) ? Height() - 1 : y;
 3956              		.loc 3 173 32 view .LVU937
 3957 03d2 3846     		mov	r0, r7
 3958 03d4 9847     		blx	r3
 3959              	.LVL253:
 173:libDaisy/src/hid/disp/display.h ****         currentY_ = (y >= Height()) ? Height() - 1 : y;
 3960              		.loc 3 173 44 view .LVU938
 3961 03d6 3A68     		ldr	r2, [r7]
 3962 03d8 12E7     		b	.L206
 3963              	.LVL254:
 3964              	.L194:
 173:libDaisy/src/hid/disp/display.h ****         currentY_ = (y >= Height()) ? Height() - 1 : y;
 3965              		.loc 3 173 44 view .LVU939
 3966              	.LBE1383:
 3967              	.LBE1391:
 434:libDaisy/src/hid/disp/display.h **** 
 3968              		.loc 3 434 19 view .LVU940
 3969 03da B7F80480 		ldrh	r8, [r7, #4]
 3970 03de 05E7     		b	.L196
 3971              	.LVL255:
 3972              	.L244:
 3973              	.LBB1392:
 3974              	.LBB1384:
 173:libDaisy/src/hid/disp/display.h ****         currentY_ = (y >= Height()) ? Height() - 1 : y;
 3975              		.loc 3 173 43 view .LVU941
 3976 03e0 3846     		mov	r0, r7
 3977 03e2 9847     		blx	r3
 3978              	.LVL256:
 173:libDaisy/src/hid/disp/display.h ****         currentY_ = (y >= Height()) ? Height() - 1 : y;
 3979              		.loc 3 173 19 view .LVU942
 3980 03e4 0138     		subs	r0, r0, #1
 174:libDaisy/src/hid/disp/display.h ****     }
 3981              		.loc 3 174 34 view .LVU943
 3982 03e6 3A68     		ldr	r2, [r7]
 173:libDaisy/src/hid/disp/display.h ****         currentY_ = (y >= Height()) ? Height() - 1 : y;
 3983              		.loc 3 173 19 view .LVU944
 3984 03e8 85B2     		uxth	r5, r0
 3985              	.LVL257:
 173:libDaisy/src/hid/disp/display.h ****         currentY_ = (y >= Height()) ? Height() - 1 : y;
 3986              		.loc 3 173 19 view .LVU945
 3987 03ea 11E7     		b	.L207
 3988              	.L246:
ARM GAS  C:\Users\yaman\AppData\Local\Temp\ccCu6FW5.s 			page 121


 174:libDaisy/src/hid/disp/display.h ****     }
 3989              		.loc 3 174 45 view .LVU946
 3990 03ec 3846     		mov	r0, r7
 3991 03ee 9847     		blx	r3
 3992              	.LVL258:
 174:libDaisy/src/hid/disp/display.h ****     }
 3993              		.loc 3 174 19 view .LVU947
 3994 03f0 0138     		subs	r0, r0, #1
 3995 03f2 83B2     		uxth	r3, r0
 3996 03f4 0293     		str	r3, [sp, #8]
 3997              	.LVL259:
 174:libDaisy/src/hid/disp/display.h ****     }
 3998              		.loc 3 174 19 view .LVU948
 3999 03f6 1DE7     		b	.L210
 4000              	.LVL260:
 4001              	.L160:
 174:libDaisy/src/hid/disp/display.h ****     }
 4002              		.loc 3 174 19 view .LVU949
 4003              	.LBE1384:
 4004              	.LBE1392:
 4005              	.LBE1395:
 4006              	.LBE1398:
 4007              	.LBE1401:
 4008              	.LBE1423:
 4009              	.LBB1424:
 4010              	.LBB1309:
 255:libDaisy/src/hid/disp/graphics_common.h ****         }
 4011              		.loc 16 255 13 is_stmt 1 view .LVU950
 255:libDaisy/src/hid/disp/graphics_common.h ****         }
 4012              		.loc 16 255 22 view .LVU951
 4013              	.LBB1286:
 4014              	.LBI1286:
  24:libDaisy/src/hid/disp/graphics_common.h **** 
 4015              		.loc 16 24 5 view .LVU952
 4016              	.LBE1286:
 4017              	.LBE1309:
 4018              	.LBE1424:
 4019              	.LBB1425:
 4020              	.LBB1315:
 173:libDaisy/src/hid/disp/display.h ****         currentY_ = (y >= Height()) ? Height() - 1 : y;
 4021              		.loc 3 173 33 is_stmt 0 view .LVU953
 4022 03f8 3B68     		ldr	r3, [r7]
 4023              	.LBE1315:
 4024              	.LBE1425:
 4025              	.LBB1426:
 4026              	.LBB1310:
 4027              	.LBB1288:
 4028              	.LBB1287:
  24:libDaisy/src/hid/disp/graphics_common.h **** 
 4029              		.loc 16 24 53 view .LVU954
 4030 03fa 0026     		movs	r6, #0
 4031 03fc 079A     		ldr	r2, [sp, #28]
 4032 03fe 1049     		ldr	r1, .L251
 4033              	.LVL261:
  24:libDaisy/src/hid/disp/graphics_common.h **** 
 4034              		.loc 16 24 53 view .LVU955
 4035 0400 1660     		str	r6, [r2]	@ unaligned
ARM GAS  C:\Users\yaman\AppData\Local\Temp\ccCu6FW5.s 			page 122


 4036 0402 5660     		str	r6, [r2, #4]	@ unaligned
 4037              	.LVL262:
  24:libDaisy/src/hid/disp/graphics_common.h **** 
 4038              		.loc 16 24 53 view .LVU956
 4039              	.LBE1287:
 4040              	.LBE1288:
 4041              	.LBE1310:
 4042              	.LBE1426:
  56:libDaisy/src/hid/disp/graphics_common.h ****     int16_t GetY() const { return y_; }
 4043              		.loc 16 56 28 is_stmt 1 view .LVU957
  57:libDaisy/src/hid/disp/graphics_common.h ****     int16_t GetWidth() const { return width_; }
 4044              		.loc 16 57 28 view .LVU958
 4045              	.LBB1427:
 171:libDaisy/src/hid/disp/display.h ****     {
 4046              		.loc 3 171 10 view .LVU959
 4047              	.LBB1316:
 173:libDaisy/src/hid/disp/display.h ****         currentY_ = (y >= Height()) ? Height() - 1 : y;
 4048              		.loc 3 173 9 view .LVU960
 173:libDaisy/src/hid/disp/display.h ****         currentY_ = (y >= Height()) ? Height() - 1 : y;
 4049              		.loc 3 173 33 is_stmt 0 view .LVU961
 4050 0404 DA68     		ldr	r2, [r3, #12]
 4051 0406 0391     		str	r1, [sp, #12]
 4052 0408 8A42     		cmp	r2, r1
 4053 040a 09D1     		bne	.L248
 174:libDaisy/src/hid/disp/display.h ****     }
 4054              		.loc 3 174 34 view .LVU962
 4055 040c 9B68     		ldr	r3, [r3, #8]
 4056 040e 0D4A     		ldr	r2, .L251+4
 173:libDaisy/src/hid/disp/display.h ****         currentY_ = (y >= Height()) ? Height() - 1 : y;
 4057              		.loc 3 173 19 view .LVU963
 4058 0410 BE80     		strh	r6, [r7, #4]	@ movhi
 174:libDaisy/src/hid/disp/display.h ****     }
 4059              		.loc 3 174 9 is_stmt 1 view .LVU964
 4060 0412 9342     		cmp	r3, r2
 4061 0414 0492     		str	r2, [sp, #16]
 4062 0416 3FF45BAE 		beq	.L185
 4063              	.LVL263:
 4064              	.L215:
 174:libDaisy/src/hid/disp/display.h ****     }
 4065              		.loc 3 174 33 is_stmt 0 view .LVU965
 4066 041a 3846     		mov	r0, r7
 4067 041c 9847     		blx	r3
 4068              	.LVL264:
 4069 041e 4EE6     		b	.L183
 4070              	.LVL265:
 4071              	.L248:
 173:libDaisy/src/hid/disp/display.h ****         currentY_ = (y >= Height()) ? Height() - 1 : y;
 4072              		.loc 3 173 33 view .LVU966
 4073 0420 3446     		mov	r4, r6
 4074              	.LVL266:
 4075              	.L179:
 173:libDaisy/src/hid/disp/display.h ****         currentY_ = (y >= Height()) ? Height() - 1 : y;
 4076              		.loc 3 173 32 view .LVU967
 4077 0422 3846     		mov	r0, r7
 4078 0424 9047     		blx	r2
 4079              	.LVL267:
 173:libDaisy/src/hid/disp/display.h ****         currentY_ = (y >= Height()) ? Height() - 1 : y;
ARM GAS  C:\Users\yaman\AppData\Local\Temp\ccCu6FW5.s 			page 123


 4080              		.loc 3 173 44 view .LVU968
 4081 0426 3B68     		ldr	r3, [r7]
 4082 0428 39E6     		b	.L180
 4083              	.L239:
 174:libDaisy/src/hid/disp/display.h ****     }
 4084              		.loc 3 174 45 view .LVU969
 4085 042a 3846     		mov	r0, r7
 4086 042c 9847     		blx	r3
 4087              	.LVL268:
 174:libDaisy/src/hid/disp/display.h ****     }
 4088              		.loc 3 174 19 view .LVU970
 4089 042e 0138     		subs	r0, r0, #1
 4090 0430 86B2     		uxth	r6, r0
 4091 0432 4DE6     		b	.L185
 4092              	.L238:
 173:libDaisy/src/hid/disp/display.h ****         currentY_ = (y >= Height()) ? Height() - 1 : y;
 4093              		.loc 3 173 43 view .LVU971
 4094 0434 3846     		mov	r0, r7
 4095 0436 9047     		blx	r2
 4096              	.LVL269:
 173:libDaisy/src/hid/disp/display.h ****         currentY_ = (y >= Height()) ? Height() - 1 : y;
 4097              		.loc 3 173 19 view .LVU972
 4098 0438 0138     		subs	r0, r0, #1
 174:libDaisy/src/hid/disp/display.h ****     }
 4099              		.loc 3 174 34 view .LVU973
 4100 043a 3B68     		ldr	r3, [r7]
 173:libDaisy/src/hid/disp/display.h ****         currentY_ = (y >= Height()) ? Height() - 1 : y;
 4101              		.loc 3 173 19 view .LVU974
 4102 043c 84B2     		uxth	r4, r0
 4103 043e 36E6     		b	.L181
 4104              	.L252:
 4105              		.align	2
 4106              	.L251:
 4107 0440 00000000 		.word	_ZNK5daisy11OledDisplayINS_13SSD130xDriverILj64ELj32ENS_19SSD130xI2CTransportEEEE5WidthEv
 4108 0444 00000000 		.word	_ZNK5daisy11OledDisplayINS_13SSD130xDriverILj64ELj32ENS_19SSD130xI2CTransportEEEE6HeightEv
 4109              	.LBE1316:
 4110              	.LBE1427:
 4111              		.cfi_endproc
 4112              	.LFE5385:
 4114              		.section	.text._ZN5daisy25OneBitGraphicsDisplayImplINS_11OledDisplayINS_13SSD130xDriverILj64ELj32E
 4115              		.align	1
 4116              		.p2align 2,,3
 4117              		.weak	_ZN5daisy25OneBitGraphicsDisplayImplINS_11OledDisplayINS_13SSD130xDriverILj64ELj32ENS_19SSD1
 4118              		.syntax unified
 4119              		.thumb
 4120              		.thumb_func
 4121              		.fpu fpv5-d16
 4123              	_ZN5daisy25OneBitGraphicsDisplayImplINS_11OledDisplayINS_13SSD130xDriverILj64ELj32ENS_19SSD130xI2CT
 4124              	.LVL270:
 4125              	.LFB5240:
 396:libDaisy/src/hid/disp/display.h ****     {
 4126              		.loc 3 396 10 is_stmt 1 view -0
 4127              		.cfi_startproc
 4128              		@ args = 4, pretend = 0, frame = 24
 4129              		@ frame_needed = 0, uses_anonymous_args = 0
 396:libDaisy/src/hid/disp/display.h ****     {
 4130              		.loc 3 396 10 is_stmt 0 view .LVU976
ARM GAS  C:\Users\yaman\AppData\Local\Temp\ccCu6FW5.s 			page 124


 4131 0000 2DE9F04F 		push	{r4, r5, r6, r7, r8, r9, r10, fp, lr}
 4132              		.cfi_def_cfa_offset 36
 4133              		.cfi_offset 4, -36
 4134              		.cfi_offset 5, -32
 4135              		.cfi_offset 6, -28
 4136              		.cfi_offset 7, -24
 4137              		.cfi_offset 8, -20
 4138              		.cfi_offset 9, -16
 4139              		.cfi_offset 10, -12
 4140              		.cfi_offset 11, -8
 4141              		.cfi_offset 14, -4
 4142 0004 87B0     		sub	sp, sp, #28
 4143              		.cfi_def_cfa_offset 64
 4144              	.LVL271:
 401:libDaisy/src/hid/disp/display.h ****             return 0;
 4145              		.loc 3 401 20 view .LVU977
 4146 0006 A1F12005 		sub	r5, r1, #32
 396:libDaisy/src/hid/disp/display.h ****     {
 4147              		.loc 3 396 10 view .LVU978
 4148 000a 06AC     		add	r4, sp, #24
 4149 000c 9DF84080 		ldrb	r8, [sp, #64]	@ zero_extendqisi2
 4150 0010 0291     		str	r1, [sp, #8]
 4151 0012 04E90C00 		stmdb	r4, {r2, r3}
 4152              	.LVL272:
 401:libDaisy/src/hid/disp/display.h ****             return 0;
 4153              		.loc 3 401 9 view .LVU979
 4154 0016 EBB2     		uxtb	r3, r5
 4155 0018 5E2B     		cmp	r3, #94
 4156 001a 00F29A80 		bhi	.L257
 405:libDaisy/src/hid/disp/display.h ****            || Height() < (currentY_ + font.FontHeight))
 4157              		.loc 3 405 17 view .LVU980
 4158 001e 0368     		ldr	r3, [r0]
 4159 0020 0746     		mov	r7, r0
 4160 0022 6E4A     		ldr	r2, .L295
 4161 0024 DB68     		ldr	r3, [r3, #12]
 4162 0026 9DF81040 		ldrb	r4, [sp, #16]	@ zero_extendqisi2
 4163 002a 9342     		cmp	r3, r2
 4164 002c 9DF81160 		ldrb	r6, [sp, #17]	@ zero_extendqisi2
 4165 0030 40F0B980 		bne	.L286
 4166 0034 4020     		movs	r0, #64
 4167              	.LVL273:
 4168              	.L256:
 405:libDaisy/src/hid/disp/display.h ****            || Height() < (currentY_ + font.FontHeight))
 4169              		.loc 3 405 23 view .LVU981
 4170 0036 BB88     		ldrh	r3, [r7, #4]
 405:libDaisy/src/hid/disp/display.h ****            || Height() < (currentY_ + font.FontHeight))
 4171              		.loc 3 405 33 view .LVU982
 4172 0038 2344     		add	r3, r3, r4
 406:libDaisy/src/hid/disp/display.h ****         {
 4173              		.loc 3 406 12 view .LVU983
 4174 003a 8342     		cmp	r3, r0
 4175 003c 00F38980 		bgt	.L257
 406:libDaisy/src/hid/disp/display.h ****         {
 4176              		.loc 3 406 21 discriminator 2 view .LVU984
 4177 0040 3B68     		ldr	r3, [r7]
 4178 0042 674A     		ldr	r2, .L295+4
 4179 0044 9B68     		ldr	r3, [r3, #8]
ARM GAS  C:\Users\yaman\AppData\Local\Temp\ccCu6FW5.s 			page 125


 4180 0046 9342     		cmp	r3, r2
 4181 0048 40F0AF80 		bne	.L287
 406:libDaisy/src/hid/disp/display.h ****         {
 4182              		.loc 3 406 21 view .LVU985
 4183 004c 2020     		movs	r0, #32
 4184              	.L258:
 406:libDaisy/src/hid/disp/display.h ****         {
 4185              		.loc 3 406 27 discriminator 2 view .LVU986
 4186 004e FA88     		ldrh	r2, [r7, #6]
 406:libDaisy/src/hid/disp/display.h ****         {
 4187              		.loc 3 406 37 discriminator 2 view .LVU987
 4188 0050 9319     		adds	r3, r2, r6
 406:libDaisy/src/hid/disp/display.h ****         {
 4189              		.loc 3 406 27 discriminator 2 view .LVU988
 4190 0052 0392     		str	r2, [sp, #12]
 406:libDaisy/src/hid/disp/display.h ****         {
 4191              		.loc 3 406 12 discriminator 2 view .LVU989
 4192 0054 8342     		cmp	r3, r0
 4193 0056 7CDC     		bgt	.L257
 4194              	.LVL274:
 413:libDaisy/src/hid/disp/display.h ****         {
 4195              		.loc 3 413 22 is_stmt 1 view .LVU990
 4196 0058 002E     		cmp	r6, #0
 4197 005a 00F0B080 		beq	.L259
 415:libDaisy/src/hid/disp/display.h ****             for(j = 0; j < font.FontWidth; j++)
 4198              		.loc 3 415 37 is_stmt 0 view .LVU991
 4199 005e 06FB05F5 		mul	r5, r6, r5
 4200 0062 6FF00040 		mvn	r0, #-2147483648
 415:libDaisy/src/hid/disp/display.h ****             for(j = 0; j < font.FontWidth; j++)
 4201              		.loc 3 415 22 view .LVU992
 4202 0066 059B     		ldr	r3, [sp, #20]
 4203 0068 2844     		add	r0, r0, r5
 4204 006a 2E44     		add	r6, r6, r5
 434:libDaisy/src/hid/disp/display.h **** 
 4205              		.loc 3 434 19 view .LVU993
 4206 006c B7F80490 		ldrh	r9, [r7, #4]
 4207 0070 03EB4000 		add	r0, r3, r0, lsl #1
 4208 0074 023B     		subs	r3, r3, #2
 4209 0076 03EB4603 		add	r3, r3, r6, lsl #1
 4210 007a 8646     		mov	lr, r0
 4211 007c 1646     		mov	r6, r2
 4212 007e 0193     		str	r3, [sp, #4]
 4213 0080 4346     		mov	r3, r8
 4214 0082 B846     		mov	r8, r7
 4215 0084 1F46     		mov	r7, r3
 4216              	.LVL275:
 4217              	.L262:
 415:libDaisy/src/hid/disp/display.h ****             for(j = 0; j < font.FontWidth; j++)
 4218              		.loc 3 415 15 view .LVU994
 4219 0086 3EF8025F 		ldrh	r5, [lr, #2]!
 4220              	.LVL276:
 416:libDaisy/src/hid/disp/display.h ****             {
 4221              		.loc 3 416 26 is_stmt 1 view .LVU995
 4222 008a 002C     		cmp	r4, #0
 4223 008c 3CD0     		beq	.L266
 4224              	.LBB1454:
 4225              	.LBB1455:
ARM GAS  C:\Users\yaman\AppData\Local\Temp\ccCu6FW5.s 			page 126


 4226              	.LBB1456:
 4227              	.LBB1457:
 4228              	.LBB1458:
 246:libDaisy/src/dev/oled_ssd130x.h ****     }
 4229              		.loc 13 246 55 is_stmt 0 view .LVU996
 4230 008e 06F00703 		and	r3, r6, #7
 246:libDaisy/src/dev/oled_ssd130x.h ****     }
 4231              		.loc 13 246 49 view .LVU997
 4232 0092 4FF0010C 		mov	ip, #1
 246:libDaisy/src/dev/oled_ssd130x.h ****     }
 4233              		.loc 13 246 28 view .LVU998
 4234 0096 F208     		lsrs	r2, r6, #3
 4235 0098 09F11001 		add	r1, r9, #16
 246:libDaisy/src/dev/oled_ssd130x.h ****     }
 4236              		.loc 13 246 49 view .LVU999
 4237 009c 0CFA03FC 		lsl	ip, ip, r3
 4238              	.LBE1458:
 4239              	.LBE1457:
 4240              	.LBE1456:
 4241              	.LBE1455:
 4242              	.LBE1454:
 4243              	.LBB1480:
 4244              	.LBB1481:
 4245              	.LBB1482:
 241:libDaisy/src/dev/oled_ssd130x.h ****             return;
 4246              		.loc 13 241 28 view .LVU1000
 4247 00a0 1F2E     		cmp	r6, #31
 4248              	.LBE1482:
 4249              	.LBE1481:
 4250              	.LBE1480:
 4251              	.LBB1502:
 4252              	.LBB1473:
 4253              	.LBB1468:
 4254              	.LBB1463:
 4255              	.LBB1459:
 246:libDaisy/src/dev/oled_ssd130x.h ****     }
 4256              		.loc 13 246 42 view .LVU1001
 4257 00a2 4FEA8212 		lsl	r2, r2, #6
 4258              	.LBE1459:
 4259              	.LBE1463:
 4260              	.LBE1468:
 4261              	.LBE1473:
 4262              	.LBE1502:
 422:libDaisy/src/hid/disp/display.h ****                 }
 4263              		.loc 3 422 29 view .LVU1002
 4264 00a6 4B46     		mov	r3, r9
 4265              	.LBB1503:
 4266              	.LBB1474:
 4267              	.LBB1469:
 4268              	.LBB1464:
 4269              	.LBB1460:
 246:libDaisy/src/dev/oled_ssd130x.h ****     }
 4270              		.loc 13 246 42 view .LVU1003
 4271 00a8 4FFA8CFC 		sxtb	ip, ip
 4272              	.LBE1460:
 4273              	.LBE1464:
 4274              	.LBE1469:
ARM GAS  C:\Users\yaman\AppData\Local\Temp\ccCu6FW5.s 			page 127


 4275              	.LBE1474:
 4276              	.LBE1503:
 4277              	.LBB1504:
 4278              	.LBB1495:
 4279              	.LBB1490:
 241:libDaisy/src/dev/oled_ssd130x.h ****             return;
 4280              		.loc 13 241 28 view .LVU1004
 4281 00ac 98BF     		it	ls
 4282 00ae 0020     		movls	r0, #0
 4283 00b0 1144     		add	r1, r1, r2
 4284 00b2 88BF     		it	hi
 4285 00b4 0120     		movhi	r0, #1
 4286              	.LBE1490:
 4287              	.LBE1495:
 4288              	.LBE1504:
 4289              	.LBB1505:
 4290              	.LBB1475:
 4291              	.LBB1470:
 4292              	.LBB1465:
 4293              	.LBB1461:
 246:libDaisy/src/dev/oled_ssd130x.h ****     }
 4294              		.loc 13 246 42 view .LVU1005
 4295 00b6 6FEA0C0A 		mvn	r10, ip
 4296 00ba 4144     		add	r1, r1, r8
 4297 00bc 002F     		cmp	r7, #0
 4298 00be 4CD1     		bne	.L263
 4299              	.LBE1461:
 4300              	.LBE1465:
 4301              	.LBE1470:
 4302              	.LBE1475:
 4303              	.LBE1505:
 416:libDaisy/src/hid/disp/display.h ****             {
 4304              		.loc 3 416 19 view .LVU1006
 4305 00c0 3A46     		mov	r2, r7
 4306 00c2 0DE0     		b	.L267
 4307              	.LVL277:
 4308              	.L288:
 4309              	.LBB1506:
 4310              	.LBB1476:
 4311              	.LBB1471:
 241:libDaisy/src/dev/oled_ssd130x.h ****             return;
 4312              		.loc 13 241 9 view .LVU1007
 4313 00c4 3F2B     		cmp	r3, #63
 4314 00c6 06D8     		bhi	.L265
 4315 00c8 28B9     		cbnz	r0, .L265
 244:libDaisy/src/dev/oled_ssd130x.h ****         else
 4316              		.loc 13 244 42 view .LVU1008
 4317 00ca 91F800B0 		ldrb	fp, [r1]	@ zero_extendqisi2
 4318 00ce 4CEA0B0B 		orr	fp, ip, fp
 4319 00d2 81F800B0 		strb	fp, [r1]
 4320              	.L265:
 4321              	.LVL278:
 244:libDaisy/src/dev/oled_ssd130x.h ****         else
 4322              		.loc 13 244 42 view .LVU1009
 4323              	.LBE1471:
 4324              	.LBE1476:
 4325              	.LBE1506:
ARM GAS  C:\Users\yaman\AppData\Local\Temp\ccCu6FW5.s 			page 128


 416:libDaisy/src/hid/disp/display.h ****             {
 4326              		.loc 3 416 13 is_stmt 1 view .LVU1010
 4327 00d6 0132     		adds	r2, r2, #1
 4328              	.LVL279:
 416:libDaisy/src/hid/disp/display.h ****             {
 4329              		.loc 3 416 26 view .LVU1011
 4330 00d8 0131     		adds	r1, r1, #1
 4331 00da 0133     		adds	r3, r3, #1
 4332 00dc A242     		cmp	r2, r4
 4333 00de 13D0     		beq	.L266
 4334              	.LVL280:
 4335              	.L267:
 4336              	.LBB1507:
 4337              	.LBI1454:
  42:libDaisy/src/hid/disp/oled_display.h ****     {
 4338              		.loc 2 42 10 view .LVU1012
 4339              	.LBB1477:
 4340              	.LBI1455:
 239:libDaisy/src/dev/oled_ssd130x.h ****     {
 4341              		.loc 13 239 10 view .LVU1013
 239:libDaisy/src/dev/oled_ssd130x.h ****     {
 4342              		.loc 13 239 10 is_stmt 0 view .LVU1014
 4343              	.LBE1477:
 4344              	.LBE1507:
 4345              	.LBB1508:
 4346              	.LBI1480:
  42:libDaisy/src/hid/disp/oled_display.h ****     {
 4347              		.loc 2 42 10 is_stmt 1 view .LVU1015
 4348              	.LBB1496:
 4349              	.LBI1481:
 239:libDaisy/src/dev/oled_ssd130x.h ****     {
 4350              		.loc 13 239 10 view .LVU1016
 4351              	.LBE1496:
 4352              	.LBE1508:
 418:libDaisy/src/hid/disp/display.h ****                 {
 4353              		.loc 3 418 23 is_stmt 0 view .LVU1017
 4354 00e0 05FA02FB 		lsl	fp, r5, r2
 418:libDaisy/src/hid/disp/display.h ****                 {
 4355              		.loc 3 418 17 view .LVU1018
 4356 00e4 1BF4004F 		tst	fp, #32768
 4357 00e8 ECD0     		beq	.L288
 4358              	.LVL281:
 4359              	.LBB1509:
 4360              	.LBB1497:
 4361              	.LBB1491:
 4362              	.LBB1483:
 4363              	.LBI1483:
 239:libDaisy/src/dev/oled_ssd130x.h ****     {
 4364              		.loc 13 239 10 is_stmt 1 view .LVU1019
 239:libDaisy/src/dev/oled_ssd130x.h ****     {
 4365              		.loc 13 239 10 is_stmt 0 view .LVU1020
 4366              	.LBE1483:
 241:libDaisy/src/dev/oled_ssd130x.h ****             return;
 4367              		.loc 13 241 9 view .LVU1021
 4368 00ea 3F2B     		cmp	r3, #63
 4369 00ec F3D8     		bhi	.L265
 4370 00ee 0028     		cmp	r0, #0
ARM GAS  C:\Users\yaman\AppData\Local\Temp\ccCu6FW5.s 			page 129


 4371 00f0 F1D1     		bne	.L265
 4372              	.LBB1487:
 4373              	.LBB1484:
 246:libDaisy/src/dev/oled_ssd130x.h ****     }
 4374              		.loc 13 246 42 view .LVU1022
 4375 00f2 91F800B0 		ldrb	fp, [r1]	@ zero_extendqisi2
 4376              	.LBE1484:
 4377              	.LBE1487:
 4378              	.LBE1491:
 4379              	.LBE1497:
 4380              	.LBE1509:
 416:libDaisy/src/hid/disp/display.h ****             {
 4381              		.loc 3 416 13 view .LVU1023
 4382 00f6 0132     		adds	r2, r2, #1
 4383              	.LVL282:
 416:libDaisy/src/hid/disp/display.h ****             {
 4384              		.loc 3 416 26 view .LVU1024
 4385 00f8 0131     		adds	r1, r1, #1
 4386 00fa 0133     		adds	r3, r3, #1
 4387              	.LBB1510:
 4388              	.LBB1498:
 4389              	.LBB1492:
 4390              	.LBB1488:
 4391              	.LBB1485:
 246:libDaisy/src/dev/oled_ssd130x.h ****     }
 4392              		.loc 13 246 42 view .LVU1025
 4393 00fc 0AEA0B0B 		and	fp, r10, fp
 4394              	.LBE1485:
 4395              	.LBE1488:
 4396              	.LBE1492:
 4397              	.LBE1498:
 4398              	.LBE1510:
 416:libDaisy/src/hid/disp/display.h ****             {
 4399              		.loc 3 416 26 view .LVU1026
 4400 0100 A242     		cmp	r2, r4
 4401              	.LBB1511:
 4402              	.LBB1499:
 4403              	.LBB1493:
 4404              	.LBB1489:
 4405              	.LBB1486:
 246:libDaisy/src/dev/oled_ssd130x.h ****     }
 4406              		.loc 13 246 42 view .LVU1027
 4407 0102 01F801BC 		strb	fp, [r1, #-1]
 4408              	.LVL283:
 246:libDaisy/src/dev/oled_ssd130x.h ****     }
 4409              		.loc 13 246 42 view .LVU1028
 4410              	.LBE1486:
 4411              	.LBE1489:
 4412              	.LBE1493:
 4413              	.LBE1499:
 4414              	.LBE1511:
 416:libDaisy/src/hid/disp/display.h ****             {
 4415              		.loc 3 416 13 is_stmt 1 view .LVU1029
 416:libDaisy/src/hid/disp/display.h ****             {
 4416              		.loc 3 416 26 view .LVU1030
 4417 0106 EBD1     		bne	.L267
 4418              	.LVL284:
ARM GAS  C:\Users\yaman\AppData\Local\Temp\ccCu6FW5.s 			page 130


 4419              	.L266:
 413:libDaisy/src/hid/disp/display.h ****         {
 4420              		.loc 3 413 9 view .LVU1031
 413:libDaisy/src/hid/disp/display.h ****         {
 4421              		.loc 3 413 22 view .LVU1032
 4422 0108 019B     		ldr	r3, [sp, #4]
 4423 010a 0136     		adds	r6, r6, #1
 4424 010c 9E45     		cmp	lr, r3
 4425 010e BAD1     		bne	.L262
 4426 0110 4746     		mov	r7, r8
 4427              	.LVL285:
 4428              	.L261:
 4429              	.LBB1512:
 4430              	.LBB1513:
 173:libDaisy/src/hid/disp/display.h ****         currentY_ = (y >= Height()) ? Height() - 1 : y;
 4431              		.loc 3 173 33 is_stmt 0 view .LVU1033
 4432 0112 3B68     		ldr	r3, [r7]
 4433              	.LBE1513:
 4434              	.LBE1512:
 434:libDaisy/src/hid/disp/display.h **** 
 4435              		.loc 3 434 18 view .LVU1034
 4436 0114 4C44     		add	r4, r4, r9
 4437 0116 3149     		ldr	r1, .L295
 4438              	.LBB1519:
 4439              	.LBB1514:
 173:libDaisy/src/hid/disp/display.h ****         currentY_ = (y >= Height()) ? Height() - 1 : y;
 4440              		.loc 3 173 33 view .LVU1035
 4441 0118 DA68     		ldr	r2, [r3, #12]
 4442              	.LBE1514:
 4443              	.LBE1519:
 434:libDaisy/src/hid/disp/display.h **** 
 4444              		.loc 3 434 18 view .LVU1036
 4445 011a A4B2     		uxth	r4, r4
 4446              	.LVL286:
 4447              	.LBB1520:
 4448              	.LBI1512:
 171:libDaisy/src/hid/disp/display.h ****     {
 4449              		.loc 3 171 10 is_stmt 1 view .LVU1037
 4450              	.LBB1515:
 173:libDaisy/src/hid/disp/display.h ****         currentY_ = (y >= Height()) ? Height() - 1 : y;
 4451              		.loc 3 173 9 view .LVU1038
 4452 011c 8A42     		cmp	r2, r1
 4453 011e 4AD1     		bne	.L289
 173:libDaisy/src/hid/disp/display.h ****         currentY_ = (y >= Height()) ? Height() - 1 : y;
 4454              		.loc 3 173 33 is_stmt 0 view .LVU1039
 4455 0120 4020     		movs	r0, #64
 4456              	.L271:
 173:libDaisy/src/hid/disp/display.h ****         currentY_ = (y >= Height()) ? Height() - 1 : y;
 4457              		.loc 3 173 19 view .LVU1040
 4458 0122 8442     		cmp	r4, r0
 4459 0124 39D2     		bcs	.L290
 4460              	.LVL287:
 4461              	.L272:
 174:libDaisy/src/hid/disp/display.h ****     }
 4462              		.loc 3 174 34 view .LVU1041
 4463 0126 9B68     		ldr	r3, [r3, #8]
 4464 0128 2D4A     		ldr	r2, .L295+4
ARM GAS  C:\Users\yaman\AppData\Local\Temp\ccCu6FW5.s 			page 131


 173:libDaisy/src/hid/disp/display.h ****         currentY_ = (y >= Height()) ? Height() - 1 : y;
 4465              		.loc 3 173 19 view .LVU1042
 4466 012a BC80     		strh	r4, [r7, #4]	@ movhi
 174:libDaisy/src/hid/disp/display.h ****     }
 4467              		.loc 3 174 9 is_stmt 1 view .LVU1043
 4468 012c 9342     		cmp	r3, r2
 4469 012e 3FD1     		bne	.L291
 174:libDaisy/src/hid/disp/display.h ****     }
 4470              		.loc 3 174 34 is_stmt 0 view .LVU1044
 4471 0130 2020     		movs	r0, #32
 4472              	.L274:
 174:libDaisy/src/hid/disp/display.h ****     }
 4473              		.loc 3 174 19 view .LVU1045
 4474 0132 039B     		ldr	r3, [sp, #12]
 4475 0134 8342     		cmp	r3, r0
 4476 0136 06D3     		bcc	.L275
 174:libDaisy/src/hid/disp/display.h ****     }
 4477              		.loc 3 174 46 view .LVU1046
 4478 0138 3B68     		ldr	r3, [r7]
 4479 013a 294A     		ldr	r2, .L295+4
 4480 013c 9B68     		ldr	r3, [r3, #8]
 4481 013e 9342     		cmp	r3, r2
 4482 0140 46D1     		bne	.L292
 4483 0142 1F23     		movs	r3, #31
 4484 0144 0393     		str	r3, [sp, #12]
 4485              	.LVL288:
 4486              	.L275:
 174:libDaisy/src/hid/disp/display.h ****     }
 4487              		.loc 3 174 19 view .LVU1047
 4488 0146 DDE90203 		ldrd	r0, r3, [sp, #8]
 4489 014a FB80     		strh	r3, [r7, #6]	@ movhi
 4490              	.LVL289:
 174:libDaisy/src/hid/disp/display.h ****     }
 4491              		.loc 3 174 19 view .LVU1048
 4492              	.LBE1515:
 4493              	.LBE1520:
 438:libDaisy/src/hid/disp/display.h **** 
 4494              		.loc 3 438 5 view .LVU1049
 4495 014c 07B0     		add	sp, sp, #28
 4496              		.cfi_remember_state
 4497              		.cfi_def_cfa_offset 36
 4498              		@ sp needed
 4499 014e BDE8F08F 		pop	{r4, r5, r6, r7, r8, r9, r10, fp, pc}
 4500              	.LVL290:
 4501              	.L257:
 4502              		.cfi_restore_state
 402:libDaisy/src/hid/disp/display.h **** 
 4503              		.loc 3 402 20 view .LVU1050
 4504 0152 0020     		movs	r0, #0
 438:libDaisy/src/hid/disp/display.h **** 
 4505              		.loc 3 438 5 view .LVU1051
 4506 0154 07B0     		add	sp, sp, #28
 4507              		.cfi_remember_state
 4508              		.cfi_def_cfa_offset 36
 4509              		@ sp needed
 4510 0156 BDE8F08F 		pop	{r4, r5, r6, r7, r8, r9, r10, fp, pc}
 4511              	.LVL291:
ARM GAS  C:\Users\yaman\AppData\Local\Temp\ccCu6FW5.s 			page 132


 4512              	.L263:
 4513              		.cfi_restore_state
 416:libDaisy/src/hid/disp/display.h ****             {
 4514              		.loc 3 416 19 view .LVU1052
 4515 015a 0022     		movs	r2, #0
 4516 015c 0DE0     		b	.L270
 4517              	.LVL292:
 4518              	.L293:
 4519              	.LBB1521:
 4520              	.LBB1500:
 4521              	.LBB1494:
 241:libDaisy/src/dev/oled_ssd130x.h ****             return;
 4522              		.loc 13 241 9 view .LVU1053
 4523 015e 3F2B     		cmp	r3, #63
 4524 0160 06D8     		bhi	.L269
 4525 0162 28B9     		cbnz	r0, .L269
 244:libDaisy/src/dev/oled_ssd130x.h ****         else
 4526              		.loc 13 244 42 view .LVU1054
 4527 0164 91F800B0 		ldrb	fp, [r1]	@ zero_extendqisi2
 4528 0168 4CEA0B0B 		orr	fp, ip, fp
 4529 016c 81F800B0 		strb	fp, [r1]
 4530              	.L269:
 4531              	.LVL293:
 244:libDaisy/src/dev/oled_ssd130x.h ****         else
 4532              		.loc 13 244 42 view .LVU1055
 4533              	.LBE1494:
 4534              	.LBE1500:
 4535              	.LBE1521:
 416:libDaisy/src/hid/disp/display.h ****             {
 4536              		.loc 3 416 13 is_stmt 1 discriminator 2 view .LVU1056
 4537 0170 0132     		adds	r2, r2, #1
 4538              	.LVL294:
 416:libDaisy/src/hid/disp/display.h ****             {
 4539              		.loc 3 416 26 discriminator 2 view .LVU1057
 4540 0172 0131     		adds	r1, r1, #1
 4541 0174 0133     		adds	r3, r3, #1
 4542 0176 A242     		cmp	r2, r4
 4543 0178 C6D0     		beq	.L266
 4544              	.LVL295:
 4545              	.L270:
 4546              	.LBB1522:
  42:libDaisy/src/hid/disp/oled_display.h ****     {
 4547              		.loc 2 42 10 view .LVU1058
 4548              	.LBB1501:
 239:libDaisy/src/dev/oled_ssd130x.h ****     {
 4549              		.loc 13 239 10 view .LVU1059
 239:libDaisy/src/dev/oled_ssd130x.h ****     {
 4550              		.loc 13 239 10 is_stmt 0 view .LVU1060
 4551              	.LBE1501:
 4552              	.LBE1522:
 4553              	.LBB1523:
  42:libDaisy/src/hid/disp/oled_display.h ****     {
 4554              		.loc 2 42 10 is_stmt 1 view .LVU1061
 4555              	.LBB1478:
 239:libDaisy/src/dev/oled_ssd130x.h ****     {
 4556              		.loc 13 239 10 view .LVU1062
 4557              	.LBE1478:
ARM GAS  C:\Users\yaman\AppData\Local\Temp\ccCu6FW5.s 			page 133


 4558              	.LBE1523:
 418:libDaisy/src/hid/disp/display.h ****                 {
 4559              		.loc 3 418 23 is_stmt 0 view .LVU1063
 4560 017a 05FA02FB 		lsl	fp, r5, r2
 418:libDaisy/src/hid/disp/display.h ****                 {
 4561              		.loc 3 418 17 view .LVU1064
 4562 017e 1BF4004F 		tst	fp, #32768
 4563 0182 ECD1     		bne	.L293
 4564              	.LVL296:
 4565              	.LBB1524:
 4566              	.LBB1479:
 4567              	.LBB1472:
 4568              	.LBB1466:
 4569              	.LBI1457:
 239:libDaisy/src/dev/oled_ssd130x.h ****     {
 4570              		.loc 13 239 10 is_stmt 1 view .LVU1065
 239:libDaisy/src/dev/oled_ssd130x.h ****     {
 4571              		.loc 13 239 10 is_stmt 0 view .LVU1066
 4572              	.LBE1466:
 241:libDaisy/src/dev/oled_ssd130x.h ****             return;
 4573              		.loc 13 241 9 view .LVU1067
 4574 0184 3F2B     		cmp	r3, #63
 4575 0186 F3D8     		bhi	.L269
 4576 0188 0028     		cmp	r0, #0
 4577 018a F1D1     		bne	.L269
 4578              	.LBB1467:
 4579              	.LBB1462:
 246:libDaisy/src/dev/oled_ssd130x.h ****     }
 4580              		.loc 13 246 42 view .LVU1068
 4581 018c 91F800B0 		ldrb	fp, [r1]	@ zero_extendqisi2
 4582 0190 0AEA0B0B 		and	fp, r10, fp
 4583 0194 81F800B0 		strb	fp, [r1]
 4584 0198 EAE7     		b	.L269
 4585              	.LVL297:
 4586              	.L290:
 246:libDaisy/src/dev/oled_ssd130x.h ****     }
 4587              		.loc 13 246 42 view .LVU1069
 4588              	.LBE1462:
 4589              	.LBE1467:
 4590              	.LBE1472:
 4591              	.LBE1479:
 4592              	.LBE1524:
 4593              	.LBB1525:
 4594              	.LBB1516:
 173:libDaisy/src/hid/disp/display.h ****         currentY_ = (y >= Height()) ? Height() - 1 : y;
 4595              		.loc 3 173 44 view .LVU1070
 4596 019a DA68     		ldr	r2, [r3, #12]
 4597 019c 0F49     		ldr	r1, .L295
 4598 019e 8A42     		cmp	r2, r1
 4599 01a0 10D1     		bne	.L294
 4600 01a2 3F24     		movs	r4, #63
 4601              	.LVL298:
 173:libDaisy/src/hid/disp/display.h ****         currentY_ = (y >= Height()) ? Height() - 1 : y;
 4602              		.loc 3 173 44 view .LVU1071
 4603 01a4 BFE7     		b	.L272
 4604              	.LVL299:
 4605              	.L286:
ARM GAS  C:\Users\yaman\AppData\Local\Temp\ccCu6FW5.s 			page 134


 173:libDaisy/src/hid/disp/display.h ****         currentY_ = (y >= Height()) ? Height() - 1 : y;
 4606              		.loc 3 173 44 view .LVU1072
 4607              	.LBE1516:
 4608              	.LBE1525:
 405:libDaisy/src/hid/disp/display.h ****            || Height() < (currentY_ + font.FontHeight))
 4609              		.loc 3 405 17 view .LVU1073
 4610 01a6 9847     		blx	r3
 4611              	.LVL300:
 405:libDaisy/src/hid/disp/display.h ****            || Height() < (currentY_ + font.FontHeight))
 4612              		.loc 3 405 17 view .LVU1074
 4613 01a8 45E7     		b	.L256
 4614              	.L287:
 406:libDaisy/src/hid/disp/display.h ****         {
 4615              		.loc 3 406 21 discriminator 2 view .LVU1075
 4616 01aa 3846     		mov	r0, r7
 4617 01ac 9847     		blx	r3
 4618              	.LVL301:
 4619 01ae 4EE7     		b	.L258
 4620              	.LVL302:
 4621              	.L291:
 4622              	.LBB1526:
 4623              	.LBB1517:
 174:libDaisy/src/hid/disp/display.h ****     }
 4624              		.loc 3 174 33 view .LVU1076
 4625 01b0 3846     		mov	r0, r7
 4626 01b2 9847     		blx	r3
 4627              	.LVL303:
 4628 01b4 BDE7     		b	.L274
 4629              	.LVL304:
 4630              	.L289:
 173:libDaisy/src/hid/disp/display.h ****         currentY_ = (y >= Height()) ? Height() - 1 : y;
 4631              		.loc 3 173 32 view .LVU1077
 4632 01b6 3846     		mov	r0, r7
 4633 01b8 9047     		blx	r2
 4634              	.LVL305:
 173:libDaisy/src/hid/disp/display.h ****         currentY_ = (y >= Height()) ? Height() - 1 : y;
 4635              		.loc 3 173 44 view .LVU1078
 4636 01ba 3B68     		ldr	r3, [r7]
 4637 01bc B1E7     		b	.L271
 4638              	.LVL306:
 4639              	.L259:
 173:libDaisy/src/hid/disp/display.h ****         currentY_ = (y >= Height()) ? Height() - 1 : y;
 4640              		.loc 3 173 44 view .LVU1079
 4641              	.LBE1517:
 4642              	.LBE1526:
 434:libDaisy/src/hid/disp/display.h **** 
 4643              		.loc 3 434 19 view .LVU1080
 4644 01be B7F80490 		ldrh	r9, [r7, #4]
 4645 01c2 A6E7     		b	.L261
 4646              	.LVL307:
 4647              	.L294:
 4648              	.LBB1527:
 4649              	.LBB1518:
 173:libDaisy/src/hid/disp/display.h ****         currentY_ = (y >= Height()) ? Height() - 1 : y;
 4650              		.loc 3 173 43 view .LVU1081
 4651 01c4 3846     		mov	r0, r7
 4652 01c6 9047     		blx	r2
ARM GAS  C:\Users\yaman\AppData\Local\Temp\ccCu6FW5.s 			page 135


 4653              	.LVL308:
 173:libDaisy/src/hid/disp/display.h ****         currentY_ = (y >= Height()) ? Height() - 1 : y;
 4654              		.loc 3 173 19 view .LVU1082
 4655 01c8 0138     		subs	r0, r0, #1
 174:libDaisy/src/hid/disp/display.h ****     }
 4656              		.loc 3 174 34 view .LVU1083
 4657 01ca 3B68     		ldr	r3, [r7]
 173:libDaisy/src/hid/disp/display.h ****         currentY_ = (y >= Height()) ? Height() - 1 : y;
 4658              		.loc 3 173 19 view .LVU1084
 4659 01cc 84B2     		uxth	r4, r0
 4660              	.LVL309:
 173:libDaisy/src/hid/disp/display.h ****         currentY_ = (y >= Height()) ? Height() - 1 : y;
 4661              		.loc 3 173 19 view .LVU1085
 4662 01ce AAE7     		b	.L272
 4663              	.L292:
 174:libDaisy/src/hid/disp/display.h ****     }
 4664              		.loc 3 174 45 view .LVU1086
 4665 01d0 3846     		mov	r0, r7
 4666 01d2 9847     		blx	r3
 4667              	.LVL310:
 174:libDaisy/src/hid/disp/display.h ****     }
 4668              		.loc 3 174 19 view .LVU1087
 4669 01d4 0138     		subs	r0, r0, #1
 4670 01d6 83B2     		uxth	r3, r0
 4671 01d8 0393     		str	r3, [sp, #12]
 4672              	.LVL311:
 174:libDaisy/src/hid/disp/display.h ****     }
 4673              		.loc 3 174 19 view .LVU1088
 4674 01da B4E7     		b	.L275
 4675              	.L296:
 4676              		.align	2
 4677              	.L295:
 4678 01dc 00000000 		.word	_ZNK5daisy11OledDisplayINS_13SSD130xDriverILj64ELj32ENS_19SSD130xI2CTransportEEEE5WidthEv
 4679 01e0 00000000 		.word	_ZNK5daisy11OledDisplayINS_13SSD130xDriverILj64ELj32ENS_19SSD130xI2CTransportEEEE6HeightEv
 4680              	.LBE1518:
 4681              	.LBE1527:
 4682              		.cfi_endproc
 4683              	.LFE5240:
 4685              		.section	.text._ZN5daisy25OneBitGraphicsDisplayImplINS_11OledDisplayINS_13SSD130xDriverILj64ELj32E
 4686              		.align	1
 4687              		.p2align 2,,3
 4688              		.weak	_ZN5daisy25OneBitGraphicsDisplayImplINS_11OledDisplayINS_13SSD130xDriverILj64ELj32ENS_19SSD1
 4689              		.syntax unified
 4690              		.thumb
 4691              		.thumb_func
 4692              		.fpu fpv5-d16
 4694              	_ZN5daisy25OneBitGraphicsDisplayImplINS_11OledDisplayINS_13SSD130xDriverILj64ELj32ENS_19SSD130xI2CT
 4695              	.LVL312:
 4696              	.LFB5107:
 221:libDaisy/src/hid/disp/display.h ****                   uint_fast8_t y1,
 4697              		.loc 3 221 10 is_stmt 1 view -0
 4698              		.cfi_startproc
 4699              		@ args = 8, pretend = 0, frame = 8
 4700              		@ frame_needed = 0, uses_anonymous_args = 0
 221:libDaisy/src/hid/disp/display.h ****                   uint_fast8_t y1,
 4701              		.loc 3 221 10 is_stmt 0 view .LVU1090
 4702 0000 2DE9F04F 		push	{r4, r5, r6, r7, r8, r9, r10, fp, lr}
ARM GAS  C:\Users\yaman\AppData\Local\Temp\ccCu6FW5.s 			page 136


 4703              		.cfi_def_cfa_offset 36
 4704              		.cfi_offset 4, -36
 4705              		.cfi_offset 5, -32
 4706              		.cfi_offset 6, -28
 4707              		.cfi_offset 7, -24
 4708              		.cfi_offset 8, -20
 4709              		.cfi_offset 9, -16
 4710              		.cfi_offset 10, -12
 4711              		.cfi_offset 11, -8
 4712              		.cfi_offset 14, -4
 4713 0004 83B0     		sub	sp, sp, #12
 4714              		.cfi_def_cfa_offset 48
 227:libDaisy/src/hid/disp/display.h ****         int_fast16_t deltaY = abs((int_fast16_t)y2 - (int_fast16_t)y1);
 4715              		.loc 3 227 52 view .LVU1091
 4716 0006 5C1A     		subs	r4, r3, r1
 221:libDaisy/src/hid/disp/display.h ****                   uint_fast8_t y1,
 4717              		.loc 3 221 10 view .LVU1092
 4718 0008 0C9D     		ldr	r5, [sp, #48]
 227:libDaisy/src/hid/disp/display.h ****         int_fast16_t deltaY = abs((int_fast16_t)y2 - (int_fast16_t)y1);
 4719              		.loc 3 227 22 view .LVU1093
 4720 000a 002C     		cmp	r4, #0
 221:libDaisy/src/hid/disp/display.h ****                   uint_fast8_t y1,
 4721              		.loc 3 221 10 view .LVU1094
 4722 000c 9DF834E0 		ldrb	lr, [sp, #52]	@ zero_extendqisi2
 228:libDaisy/src/hid/disp/display.h ****         int_fast16_t signX  = ((x1 < x2) ? 1 : -1);
 4723              		.loc 3 228 52 view .LVU1095
 4724 0010 A5EB0207 		sub	r7, r5, r2
 227:libDaisy/src/hid/disp/display.h ****         int_fast16_t deltaY = abs((int_fast16_t)y2 - (int_fast16_t)y1);
 4725              		.loc 3 227 22 view .LVU1096
 4726 0014 B8BF     		it	lt
 4727 0016 6442     		rsblt	r4, r4, #0
 4728              	.LVL313:
 228:libDaisy/src/hid/disp/display.h ****         int_fast16_t signX  = ((x1 < x2) ? 1 : -1);
 4729              		.loc 3 228 22 view .LVU1097
 4730 0018 002F     		cmp	r7, #0
 4731 001a B8BF     		it	lt
 4732 001c 7F42     		rsblt	r7, r7, #0
 4733              	.LVL314:
 229:libDaisy/src/hid/disp/display.h ****         int_fast16_t signY  = ((y1 < y2) ? 1 : -1);
 4734              		.loc 3 229 42 view .LVU1098
 4735 001e 8B42     		cmp	r3, r1
 4736 0020 8CBF     		ite	hi
 4737 0022 4FF00109 		movhi	r9, #1
 4738 0026 4FF0FF39 		movls	r9, #-1
 230:libDaisy/src/hid/disp/display.h ****         int_fast16_t error  = deltaX - deltaY;
 4739              		.loc 3 230 42 view .LVU1099
 4740 002a 9542     		cmp	r5, r2
 231:libDaisy/src/hid/disp/display.h ****         int_fast16_t error2;
 4741              		.loc 3 231 22 view .LVU1100
 4742 002c A4EB070C 		sub	ip, r4, r7
 230:libDaisy/src/hid/disp/display.h ****         int_fast16_t error  = deltaX - deltaY;
 4743              		.loc 3 230 42 view .LVU1101
 4744 0030 4BD8     		bhi	.L299
 4745              	.LVL315:
 4746              	.LBB1544:
 4747              	.LBI1544:
  42:libDaisy/src/hid/disp/oled_display.h ****     {
ARM GAS  C:\Users\yaman\AppData\Local\Temp\ccCu6FW5.s 			page 137


 4748              		.loc 2 42 10 is_stmt 1 discriminator 4 view .LVU1102
 4749              	.LBB1545:
 4750              	.LBI1545:
 239:libDaisy/src/dev/oled_ssd130x.h ****     {
 4751              		.loc 13 239 10 discriminator 4 view .LVU1103
 4752              	.LBB1546:
 241:libDaisy/src/dev/oled_ssd130x.h ****             return;
 4753              		.loc 13 241 9 is_stmt 0 discriminator 4 view .LVU1104
 4754 0032 3F2B     		cmp	r3, #63
 4755 0034 00F29280 		bhi	.L300
 4756 0038 1F2D     		cmp	r5, #31
 4757 003a 00F28F80 		bhi	.L300
 4758 003e 4FF0FF36 		mov	r6, #-1
 244:libDaisy/src/dev/oled_ssd130x.h ****         else
 4759              		.loc 13 244 54 view .LVU1105
 4760 0042 05F00708 		and	r8, r5, #7
 4761 0046 0096     		str	r6, [sp]
 244:libDaisy/src/dev/oled_ssd130x.h ****         else
 4762              		.loc 13 244 28 view .LVU1106
 4763 0048 EE08     		lsrs	r6, r5, #3
 244:libDaisy/src/dev/oled_ssd130x.h ****         else
 4764              		.loc 13 244 42 view .LVU1107
 4765 004a 03EB8616 		add	r6, r3, r6, lsl #6
 4766 004e 0644     		add	r6, r6, r0
 243:libDaisy/src/dev/oled_ssd130x.h ****             buffer_[x + (y / 8) * width] |= (1 << (y % 8));
 4767              		.loc 13 243 9 view .LVU1108
 4768 0050 BEF1000F 		cmp	lr, #0
 4769 0054 48D1     		bne	.L344
 4770              	.LVL316:
 4771              	.L301:
 4772              	.LBB1547:
 4773              	.LBI1547:
 239:libDaisy/src/dev/oled_ssd130x.h ****     {
 4774              		.loc 13 239 10 is_stmt 1 view .LVU1109
 4775              	.LBB1548:
 246:libDaisy/src/dev/oled_ssd130x.h ****     }
 4776              		.loc 13 246 49 is_stmt 0 view .LVU1110
 4777 0056 4FF0010E 		mov	lr, #1
 4778              	.LVL317:
 246:libDaisy/src/dev/oled_ssd130x.h ****     }
 4779              		.loc 13 246 49 view .LVU1111
 4780              	.LBE1548:
 4781              	.LBE1547:
 4782              	.LBE1546:
 4783              	.LBE1545:
 4784              	.LBE1544:
 239:libDaisy/src/hid/disp/display.h ****         {
 4785              		.loc 3 239 26 view .LVU1112
 4786 005a 8B42     		cmp	r3, r1
 4787              	.LBB1557:
 4788              	.LBB1554:
 4789              	.LBB1551:
 4790              	.LBB1550:
 4791              	.LBB1549:
 246:libDaisy/src/dev/oled_ssd130x.h ****     }
 4792              		.loc 13 246 49 view .LVU1113
 4793 005c 0EFA08F8 		lsl	r8, lr, r8
ARM GAS  C:\Users\yaman\AppData\Local\Temp\ccCu6FW5.s 			page 138


 246:libDaisy/src/dev/oled_ssd130x.h ****     }
 4794              		.loc 13 246 42 view .LVU1114
 4795 0060 96F810E0 		ldrb	lr, [r6, #16]	@ zero_extendqisi2
 4796 0064 2EEA080E 		bic	lr, lr, r8
 4797 0068 86F810E0 		strb	lr, [r6, #16]
 4798              	.LVL318:
 246:libDaisy/src/dev/oled_ssd130x.h ****     }
 4799              		.loc 13 246 42 view .LVU1115
 4800              	.LBE1549:
 4801              	.LBE1550:
 4802              	.LBE1551:
 4803              	.LBE1554:
 4804              	.LBE1557:
 239:libDaisy/src/hid/disp/display.h ****         {
 4805              		.loc 3 239 26 is_stmt 1 view .LVU1116
 4806 006c 01D1     		bne	.L306
 4807 006e 9542     		cmp	r5, r2
 4808 0070 28D0     		beq	.L297
 4809              	.L306:
 4810              	.LVL319:
 243:libDaisy/src/hid/disp/display.h ****             {
 4811              		.loc 3 243 23 is_stmt 0 view .LVU1117
 4812 0072 7E42     		rsbs	r6, r7, #0
 4813 0074 0197     		str	r7, [sp, #4]
 4814              	.LVL320:
 4815              	.L316:
 4816              	.LBB1558:
 4817              	.LBI1558:
  42:libDaisy/src/hid/disp/oled_display.h ****     {
 4818              		.loc 2 42 10 is_stmt 1 view .LVU1118
 4819              	.LBB1559:
 4820              	.LBI1559:
 239:libDaisy/src/dev/oled_ssd130x.h ****     {
 4821              		.loc 13 239 10 view .LVU1119
 4822              	.LBB1560:
 4823              	.LBB1561:
 4824              	.LBI1561:
 239:libDaisy/src/dev/oled_ssd130x.h ****     {
 4825              		.loc 13 239 10 view .LVU1120
 4826              	.LBB1562:
 246:libDaisy/src/dev/oled_ssd130x.h ****     }
 4827              		.loc 13 246 28 is_stmt 0 view .LVU1121
 4828 0076 4FEAD20E 		lsr	lr, r2, #3
 4829              	.LBE1562:
 4830              	.LBE1561:
 241:libDaisy/src/dev/oled_ssd130x.h ****             return;
 4831              		.loc 13 241 9 view .LVU1122
 4832 007a 3F29     		cmp	r1, #63
 4833              	.LBB1567:
 4834              	.LBB1563:
 246:libDaisy/src/dev/oled_ssd130x.h ****     }
 4835              		.loc 13 246 55 view .LVU1123
 4836 007c 02F0070A 		and	r10, r2, #7
 4837              	.LBE1563:
 4838              	.LBE1567:
 4839              	.LBE1560:
 4840              	.LBE1559:
ARM GAS  C:\Users\yaman\AppData\Local\Temp\ccCu6FW5.s 			page 139


 4841              	.LBE1558:
 242:libDaisy/src/hid/disp/display.h ****             if(error2 > -deltaY)
 4842              		.loc 3 242 20 view .LVU1124
 4843 0080 4FEA4C08 		lsl	r8, ip, #1
 4844              	.LVL321:
 4845              	.LBB1577:
 4846              	.LBB1574:
 4847              	.LBB1571:
 4848              	.LBB1568:
 4849              	.LBB1564:
 246:libDaisy/src/dev/oled_ssd130x.h ****     }
 4850              		.loc 13 246 42 view .LVU1125
 4851 0084 01EB8E1E 		add	lr, r1, lr, lsl #6
 4852              	.LBE1564:
 4853              	.LBE1568:
 241:libDaisy/src/dev/oled_ssd130x.h ****             return;
 4854              		.loc 13 241 9 view .LVU1126
 4855 0088 0CD8     		bhi	.L312
 4856 008a 1F2A     		cmp	r2, #31
 4857              	.LBB1569:
 4858              	.LBB1565:
 246:libDaisy/src/dev/oled_ssd130x.h ****     }
 4859              		.loc 13 246 42 view .LVU1127
 4860 008c 8644     		add	lr, lr, r0
 4861              	.LBE1565:
 4862              	.LBE1569:
 241:libDaisy/src/dev/oled_ssd130x.h ****             return;
 4863              		.loc 13 241 9 view .LVU1128
 4864 008e 09D8     		bhi	.L312
 4865              	.LBB1570:
 4866              	.LBB1566:
 246:libDaisy/src/dev/oled_ssd130x.h ****     }
 4867              		.loc 13 246 49 view .LVU1129
 4868 0090 4FF0010B 		mov	fp, #1
 4869 0094 0BFA0AFB 		lsl	fp, fp, r10
 246:libDaisy/src/dev/oled_ssd130x.h ****     }
 4870              		.loc 13 246 42 view .LVU1130
 4871 0098 9EF810A0 		ldrb	r10, [lr, #16]	@ zero_extendqisi2
 4872 009c 2AEA0B0A 		bic	r10, r10, fp
 4873 00a0 8EF810A0 		strb	r10, [lr, #16]
 4874              	.L312:
 246:libDaisy/src/dev/oled_ssd130x.h ****     }
 4875              		.loc 13 246 42 view .LVU1131
 4876              	.LBE1566:
 4877              	.LBE1570:
 4878              	.LBE1571:
 4879              	.LBE1574:
 4880              	.LBE1577:
 243:libDaisy/src/hid/disp/display.h ****             {
 4881              		.loc 3 243 13 view .LVU1132
 4882 00a4 B6EB4C0F 		cmp	r6, ip, lsl #1
 4883 00a8 03DA     		bge	.L313
 245:libDaisy/src/hid/disp/display.h ****                 x1 += signX;
 4884              		.loc 3 245 23 view .LVU1133
 4885 00aa 019F     		ldr	r7, [sp, #4]
 246:libDaisy/src/hid/disp/display.h ****             }
 4886              		.loc 3 246 20 view .LVU1134
ARM GAS  C:\Users\yaman\AppData\Local\Temp\ccCu6FW5.s 			page 140


 4887 00ac 4944     		add	r1, r1, r9
 4888              	.LVL322:
 245:libDaisy/src/hid/disp/display.h ****                 x1 += signX;
 4889              		.loc 3 245 23 view .LVU1135
 4890 00ae ACEB070C 		sub	ip, ip, r7
 4891              	.LVL323:
 4892              	.L313:
 249:libDaisy/src/hid/disp/display.h ****             {
 4893              		.loc 3 249 13 view .LVU1136
 4894 00b2 4445     		cmp	r4, r8
 4895 00b4 02DD     		ble	.L314
 252:libDaisy/src/hid/disp/display.h ****             }
 4896              		.loc 3 252 20 view .LVU1137
 4897 00b6 009F     		ldr	r7, [sp]
 251:libDaisy/src/hid/disp/display.h ****                 y1 += signY;
 4898              		.loc 3 251 23 view .LVU1138
 4899 00b8 A444     		add	ip, ip, r4
 4900              	.LVL324:
 252:libDaisy/src/hid/disp/display.h ****             }
 4901              		.loc 3 252 20 view .LVU1139
 4902 00ba 3A44     		add	r2, r2, r7
 4903              	.LVL325:
 4904              	.L314:
 239:libDaisy/src/hid/disp/display.h ****         {
 4905              		.loc 3 239 26 is_stmt 1 view .LVU1140
 4906 00bc 8B42     		cmp	r3, r1
 4907 00be DAD1     		bne	.L316
 239:libDaisy/src/hid/disp/display.h ****         {
 4908              		.loc 3 239 26 is_stmt 0 view .LVU1141
 4909 00c0 9542     		cmp	r5, r2
 4910 00c2 D8D1     		bne	.L316
 4911              	.LVL326:
 4912              	.L297:
 255:libDaisy/src/hid/disp/display.h **** 
 4913              		.loc 3 255 5 view .LVU1142
 4914 00c4 03B0     		add	sp, sp, #12
 4915              		.cfi_remember_state
 4916              		.cfi_def_cfa_offset 36
 4917              		@ sp needed
 4918 00c6 BDE8F08F 		pop	{r4, r5, r6, r7, r8, r9, r10, fp, pc}
 4919              	.LVL327:
 4920              	.L299:
 4921              		.cfi_restore_state
 4922              	.LBB1578:
  42:libDaisy/src/hid/disp/oled_display.h ****     {
 4923              		.loc 2 42 10 is_stmt 1 view .LVU1143
 4924              	.LBB1555:
 239:libDaisy/src/dev/oled_ssd130x.h ****     {
 4925              		.loc 13 239 10 view .LVU1144
 4926              	.LBB1552:
 241:libDaisy/src/dev/oled_ssd130x.h ****             return;
 4927              		.loc 13 241 9 is_stmt 0 view .LVU1145
 4928 00ca 0126     		movs	r6, #1
 4929 00cc 3F2B     		cmp	r3, #63
 4930 00ce 0096     		str	r6, [sp]
 4931 00d0 4BD8     		bhi	.L308
 4932 00d2 1F2D     		cmp	r5, #31
ARM GAS  C:\Users\yaman\AppData\Local\Temp\ccCu6FW5.s 			page 141


 4933 00d4 49D8     		bhi	.L308
 244:libDaisy/src/dev/oled_ssd130x.h ****         else
 4934              		.loc 13 244 28 view .LVU1146
 4935 00d6 EE08     		lsrs	r6, r5, #3
 244:libDaisy/src/dev/oled_ssd130x.h ****         else
 4936              		.loc 13 244 54 view .LVU1147
 4937 00d8 05F00708 		and	r8, r5, #7
 244:libDaisy/src/dev/oled_ssd130x.h ****         else
 4938              		.loc 13 244 42 view .LVU1148
 4939 00dc 03EB8616 		add	r6, r3, r6, lsl #6
 4940 00e0 0644     		add	r6, r6, r0
 243:libDaisy/src/dev/oled_ssd130x.h ****             buffer_[x + (y / 8) * width] |= (1 << (y % 8));
 4941              		.loc 13 243 9 view .LVU1149
 4942 00e2 BEF1000F 		cmp	lr, #0
 4943 00e6 B6D0     		beq	.L301
 4944              	.LVL328:
 4945              	.L344:
 244:libDaisy/src/dev/oled_ssd130x.h ****         else
 4946              		.loc 13 244 48 view .LVU1150
 4947 00e8 4FF0010E 		mov	lr, #1
 4948              	.LVL329:
 244:libDaisy/src/dev/oled_ssd130x.h ****         else
 4949              		.loc 13 244 48 view .LVU1151
 4950              	.LBE1552:
 4951              	.LBE1555:
 4952              	.LBE1578:
 239:libDaisy/src/hid/disp/display.h ****         {
 4953              		.loc 3 239 26 view .LVU1152
 4954 00ec 8B42     		cmp	r3, r1
 4955              	.LBB1579:
 4956              	.LBB1556:
 4957              	.LBB1553:
 244:libDaisy/src/dev/oled_ssd130x.h ****         else
 4958              		.loc 13 244 48 view .LVU1153
 4959 00ee 0EFA08FE 		lsl	lr, lr, r8
 244:libDaisy/src/dev/oled_ssd130x.h ****         else
 4960              		.loc 13 244 42 view .LVU1154
 4961 00f2 96F81080 		ldrb	r8, [r6, #16]	@ zero_extendqisi2
 4962 00f6 4EEA080E 		orr	lr, lr, r8
 4963 00fa 86F810E0 		strb	lr, [r6, #16]
 4964              	.LVL330:
 244:libDaisy/src/dev/oled_ssd130x.h ****         else
 4965              		.loc 13 244 42 view .LVU1155
 4966              	.LBE1553:
 4967              	.LBE1556:
 4968              	.LBE1579:
 239:libDaisy/src/hid/disp/display.h ****         {
 4969              		.loc 3 239 26 is_stmt 1 view .LVU1156
 4970 00fe 01D1     		bne	.L304
 4971 0100 9542     		cmp	r5, r2
 4972 0102 DFD0     		beq	.L297
 4973              	.L304:
 4974              	.LVL331:
 243:libDaisy/src/hid/disp/display.h ****             {
 4975              		.loc 3 243 23 is_stmt 0 view .LVU1157
 4976 0104 7E42     		rsbs	r6, r7, #0
 4977 0106 0197     		str	r7, [sp, #4]
ARM GAS  C:\Users\yaman\AppData\Local\Temp\ccCu6FW5.s 			page 142


 4978              	.LVL332:
 4979              	.L310:
 4980              	.LBB1580:
  42:libDaisy/src/hid/disp/oled_display.h ****     {
 4981              		.loc 2 42 10 is_stmt 1 view .LVU1158
 4982              	.LBB1575:
 239:libDaisy/src/dev/oled_ssd130x.h ****     {
 4983              		.loc 13 239 10 view .LVU1159
 4984              	.LBB1572:
 244:libDaisy/src/dev/oled_ssd130x.h ****         else
 4985              		.loc 13 244 28 is_stmt 0 view .LVU1160
 4986 0108 4FEAD20E 		lsr	lr, r2, #3
 241:libDaisy/src/dev/oled_ssd130x.h ****             return;
 4987              		.loc 13 241 9 view .LVU1161
 4988 010c 3F29     		cmp	r1, #63
 244:libDaisy/src/dev/oled_ssd130x.h ****         else
 4989              		.loc 13 244 54 view .LVU1162
 4990 010e 02F0070A 		and	r10, r2, #7
 4991              	.LBE1572:
 4992              	.LBE1575:
 4993              	.LBE1580:
 242:libDaisy/src/hid/disp/display.h ****             if(error2 > -deltaY)
 4994              		.loc 3 242 20 view .LVU1163
 4995 0112 4FEA4C08 		lsl	r8, ip, #1
 4996              	.LVL333:
 4997              	.LBB1581:
 4998              	.LBB1576:
 4999              	.LBB1573:
 244:libDaisy/src/dev/oled_ssd130x.h ****         else
 5000              		.loc 13 244 42 view .LVU1164
 5001 0116 01EB8E1E 		add	lr, r1, lr, lsl #6
 241:libDaisy/src/dev/oled_ssd130x.h ****             return;
 5002              		.loc 13 241 9 view .LVU1165
 5003 011a 0CD8     		bhi	.L317
 5004 011c 1F2A     		cmp	r2, #31
 244:libDaisy/src/dev/oled_ssd130x.h ****         else
 5005              		.loc 13 244 42 view .LVU1166
 5006 011e 8644     		add	lr, lr, r0
 241:libDaisy/src/dev/oled_ssd130x.h ****             return;
 5007              		.loc 13 241 9 view .LVU1167
 5008 0120 09D8     		bhi	.L317
 244:libDaisy/src/dev/oled_ssd130x.h ****         else
 5009              		.loc 13 244 48 view .LVU1168
 5010 0122 4FF0010B 		mov	fp, #1
 5011 0126 0BFA0AFA 		lsl	r10, fp, r10
 244:libDaisy/src/dev/oled_ssd130x.h ****         else
 5012              		.loc 13 244 42 view .LVU1169
 5013 012a 9EF810B0 		ldrb	fp, [lr, #16]	@ zero_extendqisi2
 5014 012e 4AEA0B0A 		orr	r10, r10, fp
 5015 0132 8EF810A0 		strb	r10, [lr, #16]
 5016              	.L317:
 244:libDaisy/src/dev/oled_ssd130x.h ****         else
 5017              		.loc 13 244 42 view .LVU1170
 5018              	.LBE1573:
 5019              	.LBE1576:
 5020              	.LBE1581:
 243:libDaisy/src/hid/disp/display.h ****             {
ARM GAS  C:\Users\yaman\AppData\Local\Temp\ccCu6FW5.s 			page 143


 5021              		.loc 3 243 13 view .LVU1171
 5022 0136 B6EB4C0F 		cmp	r6, ip, lsl #1
 5023 013a 03DA     		bge	.L318
 245:libDaisy/src/hid/disp/display.h ****                 x1 += signX;
 5024              		.loc 3 245 23 view .LVU1172
 5025 013c 019F     		ldr	r7, [sp, #4]
 246:libDaisy/src/hid/disp/display.h ****             }
 5026              		.loc 3 246 20 view .LVU1173
 5027 013e 4944     		add	r1, r1, r9
 5028              	.LVL334:
 245:libDaisy/src/hid/disp/display.h ****                 x1 += signX;
 5029              		.loc 3 245 23 view .LVU1174
 5030 0140 ACEB070C 		sub	ip, ip, r7
 5031              	.LVL335:
 5032              	.L318:
 249:libDaisy/src/hid/disp/display.h ****             {
 5033              		.loc 3 249 13 view .LVU1175
 5034 0144 4445     		cmp	r4, r8
 5035 0146 02DD     		ble	.L319
 252:libDaisy/src/hid/disp/display.h ****             }
 5036              		.loc 3 252 20 view .LVU1176
 5037 0148 009F     		ldr	r7, [sp]
 251:libDaisy/src/hid/disp/display.h ****                 y1 += signY;
 5038              		.loc 3 251 23 view .LVU1177
 5039 014a A444     		add	ip, ip, r4
 5040              	.LVL336:
 252:libDaisy/src/hid/disp/display.h ****             }
 5041              		.loc 3 252 20 view .LVU1178
 5042 014c 3A44     		add	r2, r2, r7
 5043              	.LVL337:
 5044              	.L319:
 239:libDaisy/src/hid/disp/display.h ****         {
 5045              		.loc 3 239 26 is_stmt 1 view .LVU1179
 5046 014e 9942     		cmp	r1, r3
 5047 0150 DAD1     		bne	.L310
 239:libDaisy/src/hid/disp/display.h ****         {
 5048              		.loc 3 239 26 is_stmt 0 view .LVU1180
 5049 0152 9542     		cmp	r5, r2
 5050 0154 D8D1     		bne	.L310
 255:libDaisy/src/hid/disp/display.h **** 
 5051              		.loc 3 255 5 view .LVU1181
 5052 0156 03B0     		add	sp, sp, #12
 5053              		.cfi_remember_state
 5054              		.cfi_def_cfa_offset 36
 5055              		@ sp needed
 5056 0158 BDE8F08F 		pop	{r4, r5, r6, r7, r8, r9, r10, fp, pc}
 5057              	.LVL338:
 5058              	.L300:
 5059              		.cfi_restore_state
 239:libDaisy/src/hid/disp/display.h ****         {
 5060              		.loc 3 239 26 is_stmt 1 view .LVU1182
 5061 015c 9542     		cmp	r5, r2
 5062 015e 01D1     		bne	.L324
 5063 0160 8B42     		cmp	r3, r1
 5064 0162 AFD0     		beq	.L297
 5065              	.L324:
 239:libDaisy/src/hid/disp/display.h ****         {
ARM GAS  C:\Users\yaman\AppData\Local\Temp\ccCu6FW5.s 			page 144


 5066              		.loc 3 239 26 is_stmt 0 view .LVU1183
 5067 0164 4FF0FF36 		mov	r6, #-1
 5068 0168 0096     		str	r6, [sp]
 5069              	.LVL339:
 5070              	.L308:
 243:libDaisy/src/hid/disp/display.h ****             {
 5071              		.loc 3 243 23 view .LVU1184
 5072 016a 7E42     		rsbs	r6, r7, #0
 5073 016c 0197     		str	r7, [sp, #4]
 5074 016e BEF1000F 		cmp	lr, #0
 5075 0172 C9D1     		bne	.L310
 243:libDaisy/src/hid/disp/display.h ****             {
 5076              		.loc 3 243 23 view .LVU1185
 5077 0174 7FE7     		b	.L316
 5078              		.cfi_endproc
 5079              	.LFE5107:
 5081 0176 00BF     		.section	.text._ZN5daisy25OneBitGraphicsDisplayImplINS_11OledDisplayINS_13SSD130xDriverILj64ELj32E
 5082              		.align	1
 5083              		.p2align 2,,3
 5084              		.weak	_ZN5daisy25OneBitGraphicsDisplayImplINS_11OledDisplayINS_13SSD130xDriverILj64ELj32ENS_19SSD1
 5085              		.syntax unified
 5086              		.thumb
 5087              		.thumb_func
 5088              		.fpu fpv5-d16
 5090              	_ZN5daisy25OneBitGraphicsDisplayImplINS_11OledDisplayINS_13SSD130xDriverILj64ELj32ENS_19SSD130xI2CT
 5091              	.LVL340:
 5092              	.LFB5384:
 283:libDaisy/src/hid/disp/display.h ****                  uint_fast8_t y,
 5093              		.loc 3 283 10 is_stmt 1 view -0
 5094              		.cfi_startproc
 5095              		@ args = 12, pretend = 0, frame = 8
 5096              		@ frame_needed = 0, uses_anonymous_args = 0
 283:libDaisy/src/hid/disp/display.h ****                  uint_fast8_t y,
 5097              		.loc 3 283 10 is_stmt 0 view .LVU1187
 5098 0000 2DE9F04F 		push	{r4, r5, r6, r7, r8, r9, r10, fp, lr}
 5099              		.cfi_def_cfa_offset 36
 5100              		.cfi_offset 4, -36
 5101              		.cfi_offset 5, -32
 5102              		.cfi_offset 6, -28
 5103              		.cfi_offset 7, -24
 5104              		.cfi_offset 8, -20
 5105              		.cfi_offset 9, -16
 5106              		.cfi_offset 10, -12
 5107              		.cfi_offset 11, -8
 5108              		.cfi_offset 14, -4
 5109 0004 2DED068B 		vpush.64	{d8, d9, d10}
 5110              		.cfi_def_cfa_offset 60
 5111              		.cfi_offset 80, -60
 5112              		.cfi_offset 81, -56
 5113              		.cfi_offset 82, -52
 5114              		.cfi_offset 83, -48
 5115              		.cfi_offset 84, -44
 5116              		.cfi_offset 85, -40
 5117 0008 83B0     		sub	sp, sp, #12
 5118              		.cfi_def_cfa_offset 72
 283:libDaisy/src/hid/disp/display.h ****                  uint_fast8_t y,
 5119              		.loc 3 283 10 view .LVU1188
ARM GAS  C:\Users\yaman\AppData\Local\Temp\ccCu6FW5.s 			page 145


 5120 000a 1F46     		mov	r7, r3
 5121 000c 1646     		mov	r6, r2
 5122 000e 8046     		mov	r8, r0
 5123 0010 9DF85030 		ldrb	r3, [sp, #80]	@ zero_extendqisi2
 5124              	.LVL341:
 283:libDaisy/src/hid/disp/display.h ****                  uint_fast8_t y,
 5125              		.loc 3 283 10 view .LVU1189
 5126 0014 0D46     		mov	r5, r1
 5127 0016 0193     		str	r3, [sp, #4]
 308:libDaisy/src/hid/disp/display.h ****             sweep = -sweep;
 5128              		.loc 3 308 25 view .LVU1190
 5129 0018 DDE91223 		ldrd	r2, r3, [sp, #72]
 5130              	.LVL342:
 306:libDaisy/src/hid/disp/display.h ****         {
 5131              		.loc 3 306 9 view .LVU1191
 5132 001c 002B     		cmp	r3, #0
 308:libDaisy/src/hid/disp/display.h ****             sweep = -sweep;
 5133              		.loc 3 308 25 view .LVU1192
 5134 001e 1344     		add	r3, r3, r2
 306:libDaisy/src/hid/disp/display.h ****         {
 5135              		.loc 3 306 9 view .LVU1193
 5136 0020 C0F21F82 		blt	.L346
 313:libDaisy/src/hid/disp/display.h **** 
 5137              		.loc 3 313 27 view .LVU1194
 5138 0024 06EE103A 		vmov	s12, r3	@ int
 5139              	.LVL343:
 5140              	.L347:
 312:libDaisy/src/hid/disp/display.h ****         end_angle_rad   = deg2rad(start_angle + sweep);
 5141              		.loc 3 312 27 view .LVU1195
 5142 0028 DDED127A 		vldr.32	s15, [sp, #72]	@ int
 313:libDaisy/src/hid/disp/display.h **** 
 5143              		.loc 3 313 27 view .LVU1196
 5144 002c B8EEC66B 		vcvt.f64.s32	d6, s12
 312:libDaisy/src/hid/disp/display.h ****         end_angle_rad   = deg2rad(start_angle + sweep);
 5145              		.loc 3 312 27 view .LVU1197
 5146 0030 9FEDCD4B 		vldr.64	d4, .L422
 5147 0034 B8EEE77B 		vcvt.f64.s32	d7, s15
 5148 0038 9FEDCD5B 		vldr.64	d5, .L422+8
 5149 003c 27EE047B 		vmul.f64	d7, d7, d4
 313:libDaisy/src/hid/disp/display.h **** 
 5150              		.loc 3 313 27 view .LVU1198
 5151 0040 26EE046B 		vmul.f64	d6, d6, d4
 312:libDaisy/src/hid/disp/display.h ****         end_angle_rad   = deg2rad(start_angle + sweep);
 5152              		.loc 3 312 27 view .LVU1199
 5153 0044 87EE050B 		vdiv.f64	d0, d7, d5
 313:libDaisy/src/hid/disp/display.h **** 
 5154              		.loc 3 313 27 view .LVU1200
 5155 0048 86EE05AB 		vdiv.f64	d10, d6, d5
 312:libDaisy/src/hid/disp/display.h ****         end_angle_rad   = deg2rad(start_angle + sweep);
 5156              		.loc 3 312 25 view .LVU1201
 5157 004c F7EEC08B 		vcvt.f32.f64	s17, d0
 5158              	.LVL344:
 5159              	.LBB1614:
 5160              	.LBB1615:
 5161              		.file 17 "c:\\users\\yaman\\downloads\\daisytoolchain-0.3.3\\daisytoolchain-0.3.3\\windows\\arm-no
   1:c:\users\yaman\downloads\daisytoolchain-0.3.3\daisytoolchain-0.3.3\windows\arm-none-eabi\include\c++\10.2.1\cmath **** // -*- C++ -*- C forwarding header.
   2:c:\users\yaman\downloads\daisytoolchain-0.3.3\daisytoolchain-0.3.3\windows\arm-none-eabi\include\c++\10.2.1\cmath **** 
ARM GAS  C:\Users\yaman\AppData\Local\Temp\ccCu6FW5.s 			page 146


   3:c:\users\yaman\downloads\daisytoolchain-0.3.3\daisytoolchain-0.3.3\windows\arm-none-eabi\include\c++\10.2.1\cmath **** // Copyright (C) 1997-2020 Free Software Foundation, Inc.
   4:c:\users\yaman\downloads\daisytoolchain-0.3.3\daisytoolchain-0.3.3\windows\arm-none-eabi\include\c++\10.2.1\cmath **** //
   5:c:\users\yaman\downloads\daisytoolchain-0.3.3\daisytoolchain-0.3.3\windows\arm-none-eabi\include\c++\10.2.1\cmath **** // This file is part of the GNU ISO C++ Library.  This library is free
   6:c:\users\yaman\downloads\daisytoolchain-0.3.3\daisytoolchain-0.3.3\windows\arm-none-eabi\include\c++\10.2.1\cmath **** // software; you can redistribute it and/or modify it under the
   7:c:\users\yaman\downloads\daisytoolchain-0.3.3\daisytoolchain-0.3.3\windows\arm-none-eabi\include\c++\10.2.1\cmath **** // terms of the GNU General Public License as published by the
   8:c:\users\yaman\downloads\daisytoolchain-0.3.3\daisytoolchain-0.3.3\windows\arm-none-eabi\include\c++\10.2.1\cmath **** // Free Software Foundation; either version 3, or (at your option)
   9:c:\users\yaman\downloads\daisytoolchain-0.3.3\daisytoolchain-0.3.3\windows\arm-none-eabi\include\c++\10.2.1\cmath **** // any later version.
  10:c:\users\yaman\downloads\daisytoolchain-0.3.3\daisytoolchain-0.3.3\windows\arm-none-eabi\include\c++\10.2.1\cmath **** 
  11:c:\users\yaman\downloads\daisytoolchain-0.3.3\daisytoolchain-0.3.3\windows\arm-none-eabi\include\c++\10.2.1\cmath **** // This library is distributed in the hope that it will be useful,
  12:c:\users\yaman\downloads\daisytoolchain-0.3.3\daisytoolchain-0.3.3\windows\arm-none-eabi\include\c++\10.2.1\cmath **** // but WITHOUT ANY WARRANTY; without even the implied warranty of
  13:c:\users\yaman\downloads\daisytoolchain-0.3.3\daisytoolchain-0.3.3\windows\arm-none-eabi\include\c++\10.2.1\cmath **** // MERCHANTABILITY or FITNESS FOR A PARTICULAR PURPOSE.  See the
  14:c:\users\yaman\downloads\daisytoolchain-0.3.3\daisytoolchain-0.3.3\windows\arm-none-eabi\include\c++\10.2.1\cmath **** // GNU General Public License for more details.
  15:c:\users\yaman\downloads\daisytoolchain-0.3.3\daisytoolchain-0.3.3\windows\arm-none-eabi\include\c++\10.2.1\cmath **** 
  16:c:\users\yaman\downloads\daisytoolchain-0.3.3\daisytoolchain-0.3.3\windows\arm-none-eabi\include\c++\10.2.1\cmath **** // Under Section 7 of GPL version 3, you are granted additional
  17:c:\users\yaman\downloads\daisytoolchain-0.3.3\daisytoolchain-0.3.3\windows\arm-none-eabi\include\c++\10.2.1\cmath **** // permissions described in the GCC Runtime Library Exception, version
  18:c:\users\yaman\downloads\daisytoolchain-0.3.3\daisytoolchain-0.3.3\windows\arm-none-eabi\include\c++\10.2.1\cmath **** // 3.1, as published by the Free Software Foundation.
  19:c:\users\yaman\downloads\daisytoolchain-0.3.3\daisytoolchain-0.3.3\windows\arm-none-eabi\include\c++\10.2.1\cmath **** 
  20:c:\users\yaman\downloads\daisytoolchain-0.3.3\daisytoolchain-0.3.3\windows\arm-none-eabi\include\c++\10.2.1\cmath **** // You should have received a copy of the GNU General Public License and
  21:c:\users\yaman\downloads\daisytoolchain-0.3.3\daisytoolchain-0.3.3\windows\arm-none-eabi\include\c++\10.2.1\cmath **** // a copy of the GCC Runtime Library Exception along with this program;
  22:c:\users\yaman\downloads\daisytoolchain-0.3.3\daisytoolchain-0.3.3\windows\arm-none-eabi\include\c++\10.2.1\cmath **** // see the files COPYING3 and COPYING.RUNTIME respectively.  If not, see
  23:c:\users\yaman\downloads\daisytoolchain-0.3.3\daisytoolchain-0.3.3\windows\arm-none-eabi\include\c++\10.2.1\cmath **** // <http://www.gnu.org/licenses/>.
  24:c:\users\yaman\downloads\daisytoolchain-0.3.3\daisytoolchain-0.3.3\windows\arm-none-eabi\include\c++\10.2.1\cmath **** 
  25:c:\users\yaman\downloads\daisytoolchain-0.3.3\daisytoolchain-0.3.3\windows\arm-none-eabi\include\c++\10.2.1\cmath **** /** @file include/cmath
  26:c:\users\yaman\downloads\daisytoolchain-0.3.3\daisytoolchain-0.3.3\windows\arm-none-eabi\include\c++\10.2.1\cmath ****  *  This is a Standard C++ Library file.  You should @c \#include this file
  27:c:\users\yaman\downloads\daisytoolchain-0.3.3\daisytoolchain-0.3.3\windows\arm-none-eabi\include\c++\10.2.1\cmath ****  *  in your programs, rather than any of the @a *.h implementation files.
  28:c:\users\yaman\downloads\daisytoolchain-0.3.3\daisytoolchain-0.3.3\windows\arm-none-eabi\include\c++\10.2.1\cmath ****  *
  29:c:\users\yaman\downloads\daisytoolchain-0.3.3\daisytoolchain-0.3.3\windows\arm-none-eabi\include\c++\10.2.1\cmath ****  *  This is the C++ version of the Standard C Library header @c math.h,
  30:c:\users\yaman\downloads\daisytoolchain-0.3.3\daisytoolchain-0.3.3\windows\arm-none-eabi\include\c++\10.2.1\cmath ****  *  and its contents are (mostly) the same as that header, but are all
  31:c:\users\yaman\downloads\daisytoolchain-0.3.3\daisytoolchain-0.3.3\windows\arm-none-eabi\include\c++\10.2.1\cmath ****  *  contained in the namespace @c std (except for names which are defined
  32:c:\users\yaman\downloads\daisytoolchain-0.3.3\daisytoolchain-0.3.3\windows\arm-none-eabi\include\c++\10.2.1\cmath ****  *  as macros in C).
  33:c:\users\yaman\downloads\daisytoolchain-0.3.3\daisytoolchain-0.3.3\windows\arm-none-eabi\include\c++\10.2.1\cmath ****  */
  34:c:\users\yaman\downloads\daisytoolchain-0.3.3\daisytoolchain-0.3.3\windows\arm-none-eabi\include\c++\10.2.1\cmath **** 
  35:c:\users\yaman\downloads\daisytoolchain-0.3.3\daisytoolchain-0.3.3\windows\arm-none-eabi\include\c++\10.2.1\cmath **** //
  36:c:\users\yaman\downloads\daisytoolchain-0.3.3\daisytoolchain-0.3.3\windows\arm-none-eabi\include\c++\10.2.1\cmath **** // ISO C++ 14882: 26.5  C library
  37:c:\users\yaman\downloads\daisytoolchain-0.3.3\daisytoolchain-0.3.3\windows\arm-none-eabi\include\c++\10.2.1\cmath **** //
  38:c:\users\yaman\downloads\daisytoolchain-0.3.3\daisytoolchain-0.3.3\windows\arm-none-eabi\include\c++\10.2.1\cmath **** 
  39:c:\users\yaman\downloads\daisytoolchain-0.3.3\daisytoolchain-0.3.3\windows\arm-none-eabi\include\c++\10.2.1\cmath **** #pragma GCC system_header
  40:c:\users\yaman\downloads\daisytoolchain-0.3.3\daisytoolchain-0.3.3\windows\arm-none-eabi\include\c++\10.2.1\cmath **** 
  41:c:\users\yaman\downloads\daisytoolchain-0.3.3\daisytoolchain-0.3.3\windows\arm-none-eabi\include\c++\10.2.1\cmath **** #include <bits/c++config.h>
  42:c:\users\yaman\downloads\daisytoolchain-0.3.3\daisytoolchain-0.3.3\windows\arm-none-eabi\include\c++\10.2.1\cmath **** #include <bits/cpp_type_traits.h>
  43:c:\users\yaman\downloads\daisytoolchain-0.3.3\daisytoolchain-0.3.3\windows\arm-none-eabi\include\c++\10.2.1\cmath **** #include <ext/type_traits.h>
  44:c:\users\yaman\downloads\daisytoolchain-0.3.3\daisytoolchain-0.3.3\windows\arm-none-eabi\include\c++\10.2.1\cmath **** #define _GLIBCXX_INCLUDE_NEXT_C_HEADERS
  45:c:\users\yaman\downloads\daisytoolchain-0.3.3\daisytoolchain-0.3.3\windows\arm-none-eabi\include\c++\10.2.1\cmath **** #include_next <math.h>
  46:c:\users\yaman\downloads\daisytoolchain-0.3.3\daisytoolchain-0.3.3\windows\arm-none-eabi\include\c++\10.2.1\cmath **** #undef _GLIBCXX_INCLUDE_NEXT_C_HEADERS
  47:c:\users\yaman\downloads\daisytoolchain-0.3.3\daisytoolchain-0.3.3\windows\arm-none-eabi\include\c++\10.2.1\cmath **** #include <bits/std_abs.h>
  48:c:\users\yaman\downloads\daisytoolchain-0.3.3\daisytoolchain-0.3.3\windows\arm-none-eabi\include\c++\10.2.1\cmath **** 
  49:c:\users\yaman\downloads\daisytoolchain-0.3.3\daisytoolchain-0.3.3\windows\arm-none-eabi\include\c++\10.2.1\cmath **** #ifndef _GLIBCXX_CMATH
  50:c:\users\yaman\downloads\daisytoolchain-0.3.3\daisytoolchain-0.3.3\windows\arm-none-eabi\include\c++\10.2.1\cmath **** #define _GLIBCXX_CMATH 1
  51:c:\users\yaman\downloads\daisytoolchain-0.3.3\daisytoolchain-0.3.3\windows\arm-none-eabi\include\c++\10.2.1\cmath **** 
  52:c:\users\yaman\downloads\daisytoolchain-0.3.3\daisytoolchain-0.3.3\windows\arm-none-eabi\include\c++\10.2.1\cmath **** // Get rid of those macros defined in <math.h> in lieu of real functions.
  53:c:\users\yaman\downloads\daisytoolchain-0.3.3\daisytoolchain-0.3.3\windows\arm-none-eabi\include\c++\10.2.1\cmath **** #undef div
  54:c:\users\yaman\downloads\daisytoolchain-0.3.3\daisytoolchain-0.3.3\windows\arm-none-eabi\include\c++\10.2.1\cmath **** #undef acos
  55:c:\users\yaman\downloads\daisytoolchain-0.3.3\daisytoolchain-0.3.3\windows\arm-none-eabi\include\c++\10.2.1\cmath **** #undef asin
  56:c:\users\yaman\downloads\daisytoolchain-0.3.3\daisytoolchain-0.3.3\windows\arm-none-eabi\include\c++\10.2.1\cmath **** #undef atan
  57:c:\users\yaman\downloads\daisytoolchain-0.3.3\daisytoolchain-0.3.3\windows\arm-none-eabi\include\c++\10.2.1\cmath **** #undef atan2
  58:c:\users\yaman\downloads\daisytoolchain-0.3.3\daisytoolchain-0.3.3\windows\arm-none-eabi\include\c++\10.2.1\cmath **** #undef ceil
  59:c:\users\yaman\downloads\daisytoolchain-0.3.3\daisytoolchain-0.3.3\windows\arm-none-eabi\include\c++\10.2.1\cmath **** #undef cos
ARM GAS  C:\Users\yaman\AppData\Local\Temp\ccCu6FW5.s 			page 147


  60:c:\users\yaman\downloads\daisytoolchain-0.3.3\daisytoolchain-0.3.3\windows\arm-none-eabi\include\c++\10.2.1\cmath **** #undef cosh
  61:c:\users\yaman\downloads\daisytoolchain-0.3.3\daisytoolchain-0.3.3\windows\arm-none-eabi\include\c++\10.2.1\cmath **** #undef exp
  62:c:\users\yaman\downloads\daisytoolchain-0.3.3\daisytoolchain-0.3.3\windows\arm-none-eabi\include\c++\10.2.1\cmath **** #undef fabs
  63:c:\users\yaman\downloads\daisytoolchain-0.3.3\daisytoolchain-0.3.3\windows\arm-none-eabi\include\c++\10.2.1\cmath **** #undef floor
  64:c:\users\yaman\downloads\daisytoolchain-0.3.3\daisytoolchain-0.3.3\windows\arm-none-eabi\include\c++\10.2.1\cmath **** #undef fmod
  65:c:\users\yaman\downloads\daisytoolchain-0.3.3\daisytoolchain-0.3.3\windows\arm-none-eabi\include\c++\10.2.1\cmath **** #undef frexp
  66:c:\users\yaman\downloads\daisytoolchain-0.3.3\daisytoolchain-0.3.3\windows\arm-none-eabi\include\c++\10.2.1\cmath **** #undef ldexp
  67:c:\users\yaman\downloads\daisytoolchain-0.3.3\daisytoolchain-0.3.3\windows\arm-none-eabi\include\c++\10.2.1\cmath **** #undef log
  68:c:\users\yaman\downloads\daisytoolchain-0.3.3\daisytoolchain-0.3.3\windows\arm-none-eabi\include\c++\10.2.1\cmath **** #undef log10
  69:c:\users\yaman\downloads\daisytoolchain-0.3.3\daisytoolchain-0.3.3\windows\arm-none-eabi\include\c++\10.2.1\cmath **** #undef modf
  70:c:\users\yaman\downloads\daisytoolchain-0.3.3\daisytoolchain-0.3.3\windows\arm-none-eabi\include\c++\10.2.1\cmath **** #undef pow
  71:c:\users\yaman\downloads\daisytoolchain-0.3.3\daisytoolchain-0.3.3\windows\arm-none-eabi\include\c++\10.2.1\cmath **** #undef sin
  72:c:\users\yaman\downloads\daisytoolchain-0.3.3\daisytoolchain-0.3.3\windows\arm-none-eabi\include\c++\10.2.1\cmath **** #undef sinh
  73:c:\users\yaman\downloads\daisytoolchain-0.3.3\daisytoolchain-0.3.3\windows\arm-none-eabi\include\c++\10.2.1\cmath **** #undef sqrt
  74:c:\users\yaman\downloads\daisytoolchain-0.3.3\daisytoolchain-0.3.3\windows\arm-none-eabi\include\c++\10.2.1\cmath **** #undef tan
  75:c:\users\yaman\downloads\daisytoolchain-0.3.3\daisytoolchain-0.3.3\windows\arm-none-eabi\include\c++\10.2.1\cmath **** #undef tanh
  76:c:\users\yaman\downloads\daisytoolchain-0.3.3\daisytoolchain-0.3.3\windows\arm-none-eabi\include\c++\10.2.1\cmath **** 
  77:c:\users\yaman\downloads\daisytoolchain-0.3.3\daisytoolchain-0.3.3\windows\arm-none-eabi\include\c++\10.2.1\cmath **** extern "C++"
  78:c:\users\yaman\downloads\daisytoolchain-0.3.3\daisytoolchain-0.3.3\windows\arm-none-eabi\include\c++\10.2.1\cmath **** {
  79:c:\users\yaman\downloads\daisytoolchain-0.3.3\daisytoolchain-0.3.3\windows\arm-none-eabi\include\c++\10.2.1\cmath **** namespace std _GLIBCXX_VISIBILITY(default)
  80:c:\users\yaman\downloads\daisytoolchain-0.3.3\daisytoolchain-0.3.3\windows\arm-none-eabi\include\c++\10.2.1\cmath **** {
  81:c:\users\yaman\downloads\daisytoolchain-0.3.3\daisytoolchain-0.3.3\windows\arm-none-eabi\include\c++\10.2.1\cmath **** _GLIBCXX_BEGIN_NAMESPACE_VERSION
  82:c:\users\yaman\downloads\daisytoolchain-0.3.3\daisytoolchain-0.3.3\windows\arm-none-eabi\include\c++\10.2.1\cmath **** 
  83:c:\users\yaman\downloads\daisytoolchain-0.3.3\daisytoolchain-0.3.3\windows\arm-none-eabi\include\c++\10.2.1\cmath ****   using ::acos;
  84:c:\users\yaman\downloads\daisytoolchain-0.3.3\daisytoolchain-0.3.3\windows\arm-none-eabi\include\c++\10.2.1\cmath **** 
  85:c:\users\yaman\downloads\daisytoolchain-0.3.3\daisytoolchain-0.3.3\windows\arm-none-eabi\include\c++\10.2.1\cmath **** #ifndef __CORRECT_ISO_CPP_MATH_H_PROTO
  86:c:\users\yaman\downloads\daisytoolchain-0.3.3\daisytoolchain-0.3.3\windows\arm-none-eabi\include\c++\10.2.1\cmath ****   inline _GLIBCXX_CONSTEXPR float
  87:c:\users\yaman\downloads\daisytoolchain-0.3.3\daisytoolchain-0.3.3\windows\arm-none-eabi\include\c++\10.2.1\cmath ****   acos(float __x)
  88:c:\users\yaman\downloads\daisytoolchain-0.3.3\daisytoolchain-0.3.3\windows\arm-none-eabi\include\c++\10.2.1\cmath ****   { return __builtin_acosf(__x); }
  89:c:\users\yaman\downloads\daisytoolchain-0.3.3\daisytoolchain-0.3.3\windows\arm-none-eabi\include\c++\10.2.1\cmath **** 
  90:c:\users\yaman\downloads\daisytoolchain-0.3.3\daisytoolchain-0.3.3\windows\arm-none-eabi\include\c++\10.2.1\cmath ****   inline _GLIBCXX_CONSTEXPR long double
  91:c:\users\yaman\downloads\daisytoolchain-0.3.3\daisytoolchain-0.3.3\windows\arm-none-eabi\include\c++\10.2.1\cmath ****   acos(long double __x)
  92:c:\users\yaman\downloads\daisytoolchain-0.3.3\daisytoolchain-0.3.3\windows\arm-none-eabi\include\c++\10.2.1\cmath ****   { return __builtin_acosl(__x); }
  93:c:\users\yaman\downloads\daisytoolchain-0.3.3\daisytoolchain-0.3.3\windows\arm-none-eabi\include\c++\10.2.1\cmath **** #endif
  94:c:\users\yaman\downloads\daisytoolchain-0.3.3\daisytoolchain-0.3.3\windows\arm-none-eabi\include\c++\10.2.1\cmath **** 
  95:c:\users\yaman\downloads\daisytoolchain-0.3.3\daisytoolchain-0.3.3\windows\arm-none-eabi\include\c++\10.2.1\cmath ****   template<typename _Tp>
  96:c:\users\yaman\downloads\daisytoolchain-0.3.3\daisytoolchain-0.3.3\windows\arm-none-eabi\include\c++\10.2.1\cmath ****     inline _GLIBCXX_CONSTEXPR
  97:c:\users\yaman\downloads\daisytoolchain-0.3.3\daisytoolchain-0.3.3\windows\arm-none-eabi\include\c++\10.2.1\cmath ****     typename __gnu_cxx::__enable_if<__is_integer<_Tp>::__value, 
  98:c:\users\yaman\downloads\daisytoolchain-0.3.3\daisytoolchain-0.3.3\windows\arm-none-eabi\include\c++\10.2.1\cmath ****                                     double>::__type
  99:c:\users\yaman\downloads\daisytoolchain-0.3.3\daisytoolchain-0.3.3\windows\arm-none-eabi\include\c++\10.2.1\cmath ****     acos(_Tp __x)
 100:c:\users\yaman\downloads\daisytoolchain-0.3.3\daisytoolchain-0.3.3\windows\arm-none-eabi\include\c++\10.2.1\cmath ****     { return __builtin_acos(__x); }
 101:c:\users\yaman\downloads\daisytoolchain-0.3.3\daisytoolchain-0.3.3\windows\arm-none-eabi\include\c++\10.2.1\cmath **** 
 102:c:\users\yaman\downloads\daisytoolchain-0.3.3\daisytoolchain-0.3.3\windows\arm-none-eabi\include\c++\10.2.1\cmath ****   using ::asin;
 103:c:\users\yaman\downloads\daisytoolchain-0.3.3\daisytoolchain-0.3.3\windows\arm-none-eabi\include\c++\10.2.1\cmath **** 
 104:c:\users\yaman\downloads\daisytoolchain-0.3.3\daisytoolchain-0.3.3\windows\arm-none-eabi\include\c++\10.2.1\cmath **** #ifndef __CORRECT_ISO_CPP_MATH_H_PROTO
 105:c:\users\yaman\downloads\daisytoolchain-0.3.3\daisytoolchain-0.3.3\windows\arm-none-eabi\include\c++\10.2.1\cmath ****   inline _GLIBCXX_CONSTEXPR float
 106:c:\users\yaman\downloads\daisytoolchain-0.3.3\daisytoolchain-0.3.3\windows\arm-none-eabi\include\c++\10.2.1\cmath ****   asin(float __x)
 107:c:\users\yaman\downloads\daisytoolchain-0.3.3\daisytoolchain-0.3.3\windows\arm-none-eabi\include\c++\10.2.1\cmath ****   { return __builtin_asinf(__x); }
 108:c:\users\yaman\downloads\daisytoolchain-0.3.3\daisytoolchain-0.3.3\windows\arm-none-eabi\include\c++\10.2.1\cmath **** 
 109:c:\users\yaman\downloads\daisytoolchain-0.3.3\daisytoolchain-0.3.3\windows\arm-none-eabi\include\c++\10.2.1\cmath ****   inline _GLIBCXX_CONSTEXPR long double
 110:c:\users\yaman\downloads\daisytoolchain-0.3.3\daisytoolchain-0.3.3\windows\arm-none-eabi\include\c++\10.2.1\cmath ****   asin(long double __x)
 111:c:\users\yaman\downloads\daisytoolchain-0.3.3\daisytoolchain-0.3.3\windows\arm-none-eabi\include\c++\10.2.1\cmath ****   { return __builtin_asinl(__x); }
 112:c:\users\yaman\downloads\daisytoolchain-0.3.3\daisytoolchain-0.3.3\windows\arm-none-eabi\include\c++\10.2.1\cmath **** #endif
 113:c:\users\yaman\downloads\daisytoolchain-0.3.3\daisytoolchain-0.3.3\windows\arm-none-eabi\include\c++\10.2.1\cmath **** 
 114:c:\users\yaman\downloads\daisytoolchain-0.3.3\daisytoolchain-0.3.3\windows\arm-none-eabi\include\c++\10.2.1\cmath ****   template<typename _Tp>
 115:c:\users\yaman\downloads\daisytoolchain-0.3.3\daisytoolchain-0.3.3\windows\arm-none-eabi\include\c++\10.2.1\cmath ****     inline _GLIBCXX_CONSTEXPR
 116:c:\users\yaman\downloads\daisytoolchain-0.3.3\daisytoolchain-0.3.3\windows\arm-none-eabi\include\c++\10.2.1\cmath ****     typename __gnu_cxx::__enable_if<__is_integer<_Tp>::__value,
ARM GAS  C:\Users\yaman\AppData\Local\Temp\ccCu6FW5.s 			page 148


 117:c:\users\yaman\downloads\daisytoolchain-0.3.3\daisytoolchain-0.3.3\windows\arm-none-eabi\include\c++\10.2.1\cmath ****                                     double>::__type
 118:c:\users\yaman\downloads\daisytoolchain-0.3.3\daisytoolchain-0.3.3\windows\arm-none-eabi\include\c++\10.2.1\cmath ****     asin(_Tp __x)
 119:c:\users\yaman\downloads\daisytoolchain-0.3.3\daisytoolchain-0.3.3\windows\arm-none-eabi\include\c++\10.2.1\cmath ****     { return __builtin_asin(__x); }
 120:c:\users\yaman\downloads\daisytoolchain-0.3.3\daisytoolchain-0.3.3\windows\arm-none-eabi\include\c++\10.2.1\cmath **** 
 121:c:\users\yaman\downloads\daisytoolchain-0.3.3\daisytoolchain-0.3.3\windows\arm-none-eabi\include\c++\10.2.1\cmath ****   using ::atan;
 122:c:\users\yaman\downloads\daisytoolchain-0.3.3\daisytoolchain-0.3.3\windows\arm-none-eabi\include\c++\10.2.1\cmath **** 
 123:c:\users\yaman\downloads\daisytoolchain-0.3.3\daisytoolchain-0.3.3\windows\arm-none-eabi\include\c++\10.2.1\cmath **** #ifndef __CORRECT_ISO_CPP_MATH_H_PROTO
 124:c:\users\yaman\downloads\daisytoolchain-0.3.3\daisytoolchain-0.3.3\windows\arm-none-eabi\include\c++\10.2.1\cmath ****   inline _GLIBCXX_CONSTEXPR float
 125:c:\users\yaman\downloads\daisytoolchain-0.3.3\daisytoolchain-0.3.3\windows\arm-none-eabi\include\c++\10.2.1\cmath ****   atan(float __x)
 126:c:\users\yaman\downloads\daisytoolchain-0.3.3\daisytoolchain-0.3.3\windows\arm-none-eabi\include\c++\10.2.1\cmath ****   { return __builtin_atanf(__x); }
 127:c:\users\yaman\downloads\daisytoolchain-0.3.3\daisytoolchain-0.3.3\windows\arm-none-eabi\include\c++\10.2.1\cmath **** 
 128:c:\users\yaman\downloads\daisytoolchain-0.3.3\daisytoolchain-0.3.3\windows\arm-none-eabi\include\c++\10.2.1\cmath ****   inline _GLIBCXX_CONSTEXPR long double
 129:c:\users\yaman\downloads\daisytoolchain-0.3.3\daisytoolchain-0.3.3\windows\arm-none-eabi\include\c++\10.2.1\cmath ****   atan(long double __x)
 130:c:\users\yaman\downloads\daisytoolchain-0.3.3\daisytoolchain-0.3.3\windows\arm-none-eabi\include\c++\10.2.1\cmath ****   { return __builtin_atanl(__x); }
 131:c:\users\yaman\downloads\daisytoolchain-0.3.3\daisytoolchain-0.3.3\windows\arm-none-eabi\include\c++\10.2.1\cmath **** #endif
 132:c:\users\yaman\downloads\daisytoolchain-0.3.3\daisytoolchain-0.3.3\windows\arm-none-eabi\include\c++\10.2.1\cmath **** 
 133:c:\users\yaman\downloads\daisytoolchain-0.3.3\daisytoolchain-0.3.3\windows\arm-none-eabi\include\c++\10.2.1\cmath ****   template<typename _Tp>
 134:c:\users\yaman\downloads\daisytoolchain-0.3.3\daisytoolchain-0.3.3\windows\arm-none-eabi\include\c++\10.2.1\cmath ****     inline _GLIBCXX_CONSTEXPR
 135:c:\users\yaman\downloads\daisytoolchain-0.3.3\daisytoolchain-0.3.3\windows\arm-none-eabi\include\c++\10.2.1\cmath ****     typename __gnu_cxx::__enable_if<__is_integer<_Tp>::__value,
 136:c:\users\yaman\downloads\daisytoolchain-0.3.3\daisytoolchain-0.3.3\windows\arm-none-eabi\include\c++\10.2.1\cmath ****                                     double>::__type
 137:c:\users\yaman\downloads\daisytoolchain-0.3.3\daisytoolchain-0.3.3\windows\arm-none-eabi\include\c++\10.2.1\cmath ****     atan(_Tp __x)
 138:c:\users\yaman\downloads\daisytoolchain-0.3.3\daisytoolchain-0.3.3\windows\arm-none-eabi\include\c++\10.2.1\cmath ****     { return __builtin_atan(__x); }
 139:c:\users\yaman\downloads\daisytoolchain-0.3.3\daisytoolchain-0.3.3\windows\arm-none-eabi\include\c++\10.2.1\cmath **** 
 140:c:\users\yaman\downloads\daisytoolchain-0.3.3\daisytoolchain-0.3.3\windows\arm-none-eabi\include\c++\10.2.1\cmath ****   using ::atan2;
 141:c:\users\yaman\downloads\daisytoolchain-0.3.3\daisytoolchain-0.3.3\windows\arm-none-eabi\include\c++\10.2.1\cmath **** 
 142:c:\users\yaman\downloads\daisytoolchain-0.3.3\daisytoolchain-0.3.3\windows\arm-none-eabi\include\c++\10.2.1\cmath **** #ifndef __CORRECT_ISO_CPP_MATH_H_PROTO
 143:c:\users\yaman\downloads\daisytoolchain-0.3.3\daisytoolchain-0.3.3\windows\arm-none-eabi\include\c++\10.2.1\cmath ****   inline _GLIBCXX_CONSTEXPR float
 144:c:\users\yaman\downloads\daisytoolchain-0.3.3\daisytoolchain-0.3.3\windows\arm-none-eabi\include\c++\10.2.1\cmath ****   atan2(float __y, float __x)
 145:c:\users\yaman\downloads\daisytoolchain-0.3.3\daisytoolchain-0.3.3\windows\arm-none-eabi\include\c++\10.2.1\cmath ****   { return __builtin_atan2f(__y, __x); }
 146:c:\users\yaman\downloads\daisytoolchain-0.3.3\daisytoolchain-0.3.3\windows\arm-none-eabi\include\c++\10.2.1\cmath **** 
 147:c:\users\yaman\downloads\daisytoolchain-0.3.3\daisytoolchain-0.3.3\windows\arm-none-eabi\include\c++\10.2.1\cmath ****   inline _GLIBCXX_CONSTEXPR long double
 148:c:\users\yaman\downloads\daisytoolchain-0.3.3\daisytoolchain-0.3.3\windows\arm-none-eabi\include\c++\10.2.1\cmath ****   atan2(long double __y, long double __x)
 149:c:\users\yaman\downloads\daisytoolchain-0.3.3\daisytoolchain-0.3.3\windows\arm-none-eabi\include\c++\10.2.1\cmath ****   { return __builtin_atan2l(__y, __x); }
 150:c:\users\yaman\downloads\daisytoolchain-0.3.3\daisytoolchain-0.3.3\windows\arm-none-eabi\include\c++\10.2.1\cmath **** #endif
 151:c:\users\yaman\downloads\daisytoolchain-0.3.3\daisytoolchain-0.3.3\windows\arm-none-eabi\include\c++\10.2.1\cmath **** 
 152:c:\users\yaman\downloads\daisytoolchain-0.3.3\daisytoolchain-0.3.3\windows\arm-none-eabi\include\c++\10.2.1\cmath ****   template<typename _Tp, typename _Up>
 153:c:\users\yaman\downloads\daisytoolchain-0.3.3\daisytoolchain-0.3.3\windows\arm-none-eabi\include\c++\10.2.1\cmath ****     inline _GLIBCXX_CONSTEXPR
 154:c:\users\yaman\downloads\daisytoolchain-0.3.3\daisytoolchain-0.3.3\windows\arm-none-eabi\include\c++\10.2.1\cmath ****     typename __gnu_cxx::__promote_2<_Tp, _Up>::__type
 155:c:\users\yaman\downloads\daisytoolchain-0.3.3\daisytoolchain-0.3.3\windows\arm-none-eabi\include\c++\10.2.1\cmath ****     atan2(_Tp __y, _Up __x)
 156:c:\users\yaman\downloads\daisytoolchain-0.3.3\daisytoolchain-0.3.3\windows\arm-none-eabi\include\c++\10.2.1\cmath ****     {
 157:c:\users\yaman\downloads\daisytoolchain-0.3.3\daisytoolchain-0.3.3\windows\arm-none-eabi\include\c++\10.2.1\cmath ****       typedef typename __gnu_cxx::__promote_2<_Tp, _Up>::__type __type;
 158:c:\users\yaman\downloads\daisytoolchain-0.3.3\daisytoolchain-0.3.3\windows\arm-none-eabi\include\c++\10.2.1\cmath ****       return atan2(__type(__y), __type(__x));
 159:c:\users\yaman\downloads\daisytoolchain-0.3.3\daisytoolchain-0.3.3\windows\arm-none-eabi\include\c++\10.2.1\cmath ****     }
 160:c:\users\yaman\downloads\daisytoolchain-0.3.3\daisytoolchain-0.3.3\windows\arm-none-eabi\include\c++\10.2.1\cmath **** 
 161:c:\users\yaman\downloads\daisytoolchain-0.3.3\daisytoolchain-0.3.3\windows\arm-none-eabi\include\c++\10.2.1\cmath ****   using ::ceil;
 162:c:\users\yaman\downloads\daisytoolchain-0.3.3\daisytoolchain-0.3.3\windows\arm-none-eabi\include\c++\10.2.1\cmath **** 
 163:c:\users\yaman\downloads\daisytoolchain-0.3.3\daisytoolchain-0.3.3\windows\arm-none-eabi\include\c++\10.2.1\cmath **** #ifndef __CORRECT_ISO_CPP_MATH_H_PROTO
 164:c:\users\yaman\downloads\daisytoolchain-0.3.3\daisytoolchain-0.3.3\windows\arm-none-eabi\include\c++\10.2.1\cmath ****   inline _GLIBCXX_CONSTEXPR float
 165:c:\users\yaman\downloads\daisytoolchain-0.3.3\daisytoolchain-0.3.3\windows\arm-none-eabi\include\c++\10.2.1\cmath ****   ceil(float __x)
 166:c:\users\yaman\downloads\daisytoolchain-0.3.3\daisytoolchain-0.3.3\windows\arm-none-eabi\include\c++\10.2.1\cmath ****   { return __builtin_ceilf(__x); }
 167:c:\users\yaman\downloads\daisytoolchain-0.3.3\daisytoolchain-0.3.3\windows\arm-none-eabi\include\c++\10.2.1\cmath **** 
 168:c:\users\yaman\downloads\daisytoolchain-0.3.3\daisytoolchain-0.3.3\windows\arm-none-eabi\include\c++\10.2.1\cmath ****   inline _GLIBCXX_CONSTEXPR long double
 169:c:\users\yaman\downloads\daisytoolchain-0.3.3\daisytoolchain-0.3.3\windows\arm-none-eabi\include\c++\10.2.1\cmath ****   ceil(long double __x)
 170:c:\users\yaman\downloads\daisytoolchain-0.3.3\daisytoolchain-0.3.3\windows\arm-none-eabi\include\c++\10.2.1\cmath ****   { return __builtin_ceill(__x); }
 171:c:\users\yaman\downloads\daisytoolchain-0.3.3\daisytoolchain-0.3.3\windows\arm-none-eabi\include\c++\10.2.1\cmath **** #endif
 172:c:\users\yaman\downloads\daisytoolchain-0.3.3\daisytoolchain-0.3.3\windows\arm-none-eabi\include\c++\10.2.1\cmath **** 
 173:c:\users\yaman\downloads\daisytoolchain-0.3.3\daisytoolchain-0.3.3\windows\arm-none-eabi\include\c++\10.2.1\cmath ****   template<typename _Tp>
ARM GAS  C:\Users\yaman\AppData\Local\Temp\ccCu6FW5.s 			page 149


 174:c:\users\yaman\downloads\daisytoolchain-0.3.3\daisytoolchain-0.3.3\windows\arm-none-eabi\include\c++\10.2.1\cmath ****     inline _GLIBCXX_CONSTEXPR
 175:c:\users\yaman\downloads\daisytoolchain-0.3.3\daisytoolchain-0.3.3\windows\arm-none-eabi\include\c++\10.2.1\cmath ****     typename __gnu_cxx::__enable_if<__is_integer<_Tp>::__value, 
 176:c:\users\yaman\downloads\daisytoolchain-0.3.3\daisytoolchain-0.3.3\windows\arm-none-eabi\include\c++\10.2.1\cmath ****                                     double>::__type
 177:c:\users\yaman\downloads\daisytoolchain-0.3.3\daisytoolchain-0.3.3\windows\arm-none-eabi\include\c++\10.2.1\cmath ****     ceil(_Tp __x)
 178:c:\users\yaman\downloads\daisytoolchain-0.3.3\daisytoolchain-0.3.3\windows\arm-none-eabi\include\c++\10.2.1\cmath ****     { return __builtin_ceil(__x); }
 179:c:\users\yaman\downloads\daisytoolchain-0.3.3\daisytoolchain-0.3.3\windows\arm-none-eabi\include\c++\10.2.1\cmath **** 
 180:c:\users\yaman\downloads\daisytoolchain-0.3.3\daisytoolchain-0.3.3\windows\arm-none-eabi\include\c++\10.2.1\cmath ****   using ::cos;
 181:c:\users\yaman\downloads\daisytoolchain-0.3.3\daisytoolchain-0.3.3\windows\arm-none-eabi\include\c++\10.2.1\cmath **** 
 182:c:\users\yaman\downloads\daisytoolchain-0.3.3\daisytoolchain-0.3.3\windows\arm-none-eabi\include\c++\10.2.1\cmath **** #ifndef __CORRECT_ISO_CPP_MATH_H_PROTO
 183:c:\users\yaman\downloads\daisytoolchain-0.3.3\daisytoolchain-0.3.3\windows\arm-none-eabi\include\c++\10.2.1\cmath ****   inline _GLIBCXX_CONSTEXPR float
 184:c:\users\yaman\downloads\daisytoolchain-0.3.3\daisytoolchain-0.3.3\windows\arm-none-eabi\include\c++\10.2.1\cmath ****   cos(float __x)
 185:c:\users\yaman\downloads\daisytoolchain-0.3.3\daisytoolchain-0.3.3\windows\arm-none-eabi\include\c++\10.2.1\cmath ****   { return __builtin_cosf(__x); }
 5162              		.loc 17 185 26 view .LVU1202
 5163 0050 B0EE680A 		vmov.f32	s0, s17
 5164 0054 FFF7FEFF 		bl	cosf
 5165              	.LVL345:
 5166              		.loc 17 185 26 view .LVU1203
 5167              	.LBE1615:
 5168              	.LBE1614:
 315:libDaisy/src/hid/disp/display.h ****         start_y = -sin(start_angle_rad) * radius;
 5169              		.loc 3 315 17 view .LVU1204
 5170 0058 07EE907A 		vmov	s15, r7	@ int
 313:libDaisy/src/hid/disp/display.h **** 
 5171              		.loc 3 313 25 view .LVU1205
 5172 005c B7EECAAB 		vcvt.f32.f64	s20, d10
 5173              	.LVL346:
 5174              	.LBB1618:
 5175              	.LBI1614:
 184:c:\users\yaman\downloads\daisytoolchain-0.3.3\daisytoolchain-0.3.3\windows\arm-none-eabi\include\c++\10.2.1\cmath ****   { return __builtin_cosf(__x); }
 5176              		.loc 17 184 3 is_stmt 1 view .LVU1206
 5177              	.LBB1616:
 5178              		.loc 17 185 5 view .LVU1207
 5179              		.loc 17 185 5 is_stmt 0 view .LVU1208
 5180              	.LBE1616:
 5181              	.LBE1618:
 315:libDaisy/src/hid/disp/display.h ****         start_y = -sin(start_angle_rad) * radius;
 5182              		.loc 3 315 17 view .LVU1209
 5183 0060 F8EE679A 		vcvt.f32.u32	s19, s15
 5184              	.LBB1619:
 5185              	.LBB1617:
 5186              		.loc 17 185 26 view .LVU1210
 5187 0064 B0EE408A 		vmov.f32	s16, s0
 5188              	.LBE1617:
 5189              	.LBE1619:
 5190              	.LBB1620:
 5191              	.LBB1621:
 186:c:\users\yaman\downloads\daisytoolchain-0.3.3\daisytoolchain-0.3.3\windows\arm-none-eabi\include\c++\10.2.1\cmath **** 
 187:c:\users\yaman\downloads\daisytoolchain-0.3.3\daisytoolchain-0.3.3\windows\arm-none-eabi\include\c++\10.2.1\cmath ****   inline _GLIBCXX_CONSTEXPR long double
 188:c:\users\yaman\downloads\daisytoolchain-0.3.3\daisytoolchain-0.3.3\windows\arm-none-eabi\include\c++\10.2.1\cmath ****   cos(long double __x)
 189:c:\users\yaman\downloads\daisytoolchain-0.3.3\daisytoolchain-0.3.3\windows\arm-none-eabi\include\c++\10.2.1\cmath ****   { return __builtin_cosl(__x); }
 190:c:\users\yaman\downloads\daisytoolchain-0.3.3\daisytoolchain-0.3.3\windows\arm-none-eabi\include\c++\10.2.1\cmath **** #endif
 191:c:\users\yaman\downloads\daisytoolchain-0.3.3\daisytoolchain-0.3.3\windows\arm-none-eabi\include\c++\10.2.1\cmath **** 
 192:c:\users\yaman\downloads\daisytoolchain-0.3.3\daisytoolchain-0.3.3\windows\arm-none-eabi\include\c++\10.2.1\cmath ****   template<typename _Tp>
 193:c:\users\yaman\downloads\daisytoolchain-0.3.3\daisytoolchain-0.3.3\windows\arm-none-eabi\include\c++\10.2.1\cmath ****     inline _GLIBCXX_CONSTEXPR
 194:c:\users\yaman\downloads\daisytoolchain-0.3.3\daisytoolchain-0.3.3\windows\arm-none-eabi\include\c++\10.2.1\cmath ****     typename __gnu_cxx::__enable_if<__is_integer<_Tp>::__value,
 195:c:\users\yaman\downloads\daisytoolchain-0.3.3\daisytoolchain-0.3.3\windows\arm-none-eabi\include\c++\10.2.1\cmath ****                                     double>::__type
 196:c:\users\yaman\downloads\daisytoolchain-0.3.3\daisytoolchain-0.3.3\windows\arm-none-eabi\include\c++\10.2.1\cmath ****     cos(_Tp __x)
ARM GAS  C:\Users\yaman\AppData\Local\Temp\ccCu6FW5.s 			page 150


 197:c:\users\yaman\downloads\daisytoolchain-0.3.3\daisytoolchain-0.3.3\windows\arm-none-eabi\include\c++\10.2.1\cmath ****     { return __builtin_cos(__x); }
 198:c:\users\yaman\downloads\daisytoolchain-0.3.3\daisytoolchain-0.3.3\windows\arm-none-eabi\include\c++\10.2.1\cmath **** 
 199:c:\users\yaman\downloads\daisytoolchain-0.3.3\daisytoolchain-0.3.3\windows\arm-none-eabi\include\c++\10.2.1\cmath ****   using ::cosh;
 200:c:\users\yaman\downloads\daisytoolchain-0.3.3\daisytoolchain-0.3.3\windows\arm-none-eabi\include\c++\10.2.1\cmath **** 
 201:c:\users\yaman\downloads\daisytoolchain-0.3.3\daisytoolchain-0.3.3\windows\arm-none-eabi\include\c++\10.2.1\cmath **** #ifndef __CORRECT_ISO_CPP_MATH_H_PROTO
 202:c:\users\yaman\downloads\daisytoolchain-0.3.3\daisytoolchain-0.3.3\windows\arm-none-eabi\include\c++\10.2.1\cmath ****   inline _GLIBCXX_CONSTEXPR float
 203:c:\users\yaman\downloads\daisytoolchain-0.3.3\daisytoolchain-0.3.3\windows\arm-none-eabi\include\c++\10.2.1\cmath ****   cosh(float __x)
 204:c:\users\yaman\downloads\daisytoolchain-0.3.3\daisytoolchain-0.3.3\windows\arm-none-eabi\include\c++\10.2.1\cmath ****   { return __builtin_coshf(__x); }
 205:c:\users\yaman\downloads\daisytoolchain-0.3.3\daisytoolchain-0.3.3\windows\arm-none-eabi\include\c++\10.2.1\cmath **** 
 206:c:\users\yaman\downloads\daisytoolchain-0.3.3\daisytoolchain-0.3.3\windows\arm-none-eabi\include\c++\10.2.1\cmath ****   inline _GLIBCXX_CONSTEXPR long double
 207:c:\users\yaman\downloads\daisytoolchain-0.3.3\daisytoolchain-0.3.3\windows\arm-none-eabi\include\c++\10.2.1\cmath ****   cosh(long double __x)
 208:c:\users\yaman\downloads\daisytoolchain-0.3.3\daisytoolchain-0.3.3\windows\arm-none-eabi\include\c++\10.2.1\cmath ****   { return __builtin_coshl(__x); }
 209:c:\users\yaman\downloads\daisytoolchain-0.3.3\daisytoolchain-0.3.3\windows\arm-none-eabi\include\c++\10.2.1\cmath **** #endif
 210:c:\users\yaman\downloads\daisytoolchain-0.3.3\daisytoolchain-0.3.3\windows\arm-none-eabi\include\c++\10.2.1\cmath **** 
 211:c:\users\yaman\downloads\daisytoolchain-0.3.3\daisytoolchain-0.3.3\windows\arm-none-eabi\include\c++\10.2.1\cmath ****   template<typename _Tp>
 212:c:\users\yaman\downloads\daisytoolchain-0.3.3\daisytoolchain-0.3.3\windows\arm-none-eabi\include\c++\10.2.1\cmath ****     inline _GLIBCXX_CONSTEXPR
 213:c:\users\yaman\downloads\daisytoolchain-0.3.3\daisytoolchain-0.3.3\windows\arm-none-eabi\include\c++\10.2.1\cmath ****     typename __gnu_cxx::__enable_if<__is_integer<_Tp>::__value,
 214:c:\users\yaman\downloads\daisytoolchain-0.3.3\daisytoolchain-0.3.3\windows\arm-none-eabi\include\c++\10.2.1\cmath ****                                     double>::__type
 215:c:\users\yaman\downloads\daisytoolchain-0.3.3\daisytoolchain-0.3.3\windows\arm-none-eabi\include\c++\10.2.1\cmath ****     cosh(_Tp __x)
 216:c:\users\yaman\downloads\daisytoolchain-0.3.3\daisytoolchain-0.3.3\windows\arm-none-eabi\include\c++\10.2.1\cmath ****     { return __builtin_cosh(__x); }
 217:c:\users\yaman\downloads\daisytoolchain-0.3.3\daisytoolchain-0.3.3\windows\arm-none-eabi\include\c++\10.2.1\cmath **** 
 218:c:\users\yaman\downloads\daisytoolchain-0.3.3\daisytoolchain-0.3.3\windows\arm-none-eabi\include\c++\10.2.1\cmath ****   using ::exp;
 219:c:\users\yaman\downloads\daisytoolchain-0.3.3\daisytoolchain-0.3.3\windows\arm-none-eabi\include\c++\10.2.1\cmath **** 
 220:c:\users\yaman\downloads\daisytoolchain-0.3.3\daisytoolchain-0.3.3\windows\arm-none-eabi\include\c++\10.2.1\cmath **** #ifndef __CORRECT_ISO_CPP_MATH_H_PROTO
 221:c:\users\yaman\downloads\daisytoolchain-0.3.3\daisytoolchain-0.3.3\windows\arm-none-eabi\include\c++\10.2.1\cmath ****   inline _GLIBCXX_CONSTEXPR float
 222:c:\users\yaman\downloads\daisytoolchain-0.3.3\daisytoolchain-0.3.3\windows\arm-none-eabi\include\c++\10.2.1\cmath ****   exp(float __x)
 223:c:\users\yaman\downloads\daisytoolchain-0.3.3\daisytoolchain-0.3.3\windows\arm-none-eabi\include\c++\10.2.1\cmath ****   { return __builtin_expf(__x); }
 224:c:\users\yaman\downloads\daisytoolchain-0.3.3\daisytoolchain-0.3.3\windows\arm-none-eabi\include\c++\10.2.1\cmath **** 
 225:c:\users\yaman\downloads\daisytoolchain-0.3.3\daisytoolchain-0.3.3\windows\arm-none-eabi\include\c++\10.2.1\cmath ****   inline _GLIBCXX_CONSTEXPR long double
 226:c:\users\yaman\downloads\daisytoolchain-0.3.3\daisytoolchain-0.3.3\windows\arm-none-eabi\include\c++\10.2.1\cmath ****   exp(long double __x)
 227:c:\users\yaman\downloads\daisytoolchain-0.3.3\daisytoolchain-0.3.3\windows\arm-none-eabi\include\c++\10.2.1\cmath ****   { return __builtin_expl(__x); }
 228:c:\users\yaman\downloads\daisytoolchain-0.3.3\daisytoolchain-0.3.3\windows\arm-none-eabi\include\c++\10.2.1\cmath **** #endif
 229:c:\users\yaman\downloads\daisytoolchain-0.3.3\daisytoolchain-0.3.3\windows\arm-none-eabi\include\c++\10.2.1\cmath **** 
 230:c:\users\yaman\downloads\daisytoolchain-0.3.3\daisytoolchain-0.3.3\windows\arm-none-eabi\include\c++\10.2.1\cmath ****   template<typename _Tp>
 231:c:\users\yaman\downloads\daisytoolchain-0.3.3\daisytoolchain-0.3.3\windows\arm-none-eabi\include\c++\10.2.1\cmath ****     inline _GLIBCXX_CONSTEXPR
 232:c:\users\yaman\downloads\daisytoolchain-0.3.3\daisytoolchain-0.3.3\windows\arm-none-eabi\include\c++\10.2.1\cmath ****     typename __gnu_cxx::__enable_if<__is_integer<_Tp>::__value,
 233:c:\users\yaman\downloads\daisytoolchain-0.3.3\daisytoolchain-0.3.3\windows\arm-none-eabi\include\c++\10.2.1\cmath ****                                     double>::__type
 234:c:\users\yaman\downloads\daisytoolchain-0.3.3\daisytoolchain-0.3.3\windows\arm-none-eabi\include\c++\10.2.1\cmath ****     exp(_Tp __x)
 235:c:\users\yaman\downloads\daisytoolchain-0.3.3\daisytoolchain-0.3.3\windows\arm-none-eabi\include\c++\10.2.1\cmath ****     { return __builtin_exp(__x); }
 236:c:\users\yaman\downloads\daisytoolchain-0.3.3\daisytoolchain-0.3.3\windows\arm-none-eabi\include\c++\10.2.1\cmath **** 
 237:c:\users\yaman\downloads\daisytoolchain-0.3.3\daisytoolchain-0.3.3\windows\arm-none-eabi\include\c++\10.2.1\cmath ****   using ::fabs;
 238:c:\users\yaman\downloads\daisytoolchain-0.3.3\daisytoolchain-0.3.3\windows\arm-none-eabi\include\c++\10.2.1\cmath **** 
 239:c:\users\yaman\downloads\daisytoolchain-0.3.3\daisytoolchain-0.3.3\windows\arm-none-eabi\include\c++\10.2.1\cmath **** #ifndef __CORRECT_ISO_CPP_MATH_H_PROTO
 240:c:\users\yaman\downloads\daisytoolchain-0.3.3\daisytoolchain-0.3.3\windows\arm-none-eabi\include\c++\10.2.1\cmath ****   inline _GLIBCXX_CONSTEXPR float
 241:c:\users\yaman\downloads\daisytoolchain-0.3.3\daisytoolchain-0.3.3\windows\arm-none-eabi\include\c++\10.2.1\cmath ****   fabs(float __x)
 242:c:\users\yaman\downloads\daisytoolchain-0.3.3\daisytoolchain-0.3.3\windows\arm-none-eabi\include\c++\10.2.1\cmath ****   { return __builtin_fabsf(__x); }
 243:c:\users\yaman\downloads\daisytoolchain-0.3.3\daisytoolchain-0.3.3\windows\arm-none-eabi\include\c++\10.2.1\cmath **** 
 244:c:\users\yaman\downloads\daisytoolchain-0.3.3\daisytoolchain-0.3.3\windows\arm-none-eabi\include\c++\10.2.1\cmath ****   inline _GLIBCXX_CONSTEXPR long double
 245:c:\users\yaman\downloads\daisytoolchain-0.3.3\daisytoolchain-0.3.3\windows\arm-none-eabi\include\c++\10.2.1\cmath ****   fabs(long double __x)
 246:c:\users\yaman\downloads\daisytoolchain-0.3.3\daisytoolchain-0.3.3\windows\arm-none-eabi\include\c++\10.2.1\cmath ****   { return __builtin_fabsl(__x); }
 247:c:\users\yaman\downloads\daisytoolchain-0.3.3\daisytoolchain-0.3.3\windows\arm-none-eabi\include\c++\10.2.1\cmath **** #endif
 248:c:\users\yaman\downloads\daisytoolchain-0.3.3\daisytoolchain-0.3.3\windows\arm-none-eabi\include\c++\10.2.1\cmath **** 
 249:c:\users\yaman\downloads\daisytoolchain-0.3.3\daisytoolchain-0.3.3\windows\arm-none-eabi\include\c++\10.2.1\cmath ****   template<typename _Tp>
 250:c:\users\yaman\downloads\daisytoolchain-0.3.3\daisytoolchain-0.3.3\windows\arm-none-eabi\include\c++\10.2.1\cmath ****     inline _GLIBCXX_CONSTEXPR
 251:c:\users\yaman\downloads\daisytoolchain-0.3.3\daisytoolchain-0.3.3\windows\arm-none-eabi\include\c++\10.2.1\cmath ****     typename __gnu_cxx::__enable_if<__is_integer<_Tp>::__value,
 252:c:\users\yaman\downloads\daisytoolchain-0.3.3\daisytoolchain-0.3.3\windows\arm-none-eabi\include\c++\10.2.1\cmath ****                                     double>::__type
 253:c:\users\yaman\downloads\daisytoolchain-0.3.3\daisytoolchain-0.3.3\windows\arm-none-eabi\include\c++\10.2.1\cmath ****     fabs(_Tp __x)
ARM GAS  C:\Users\yaman\AppData\Local\Temp\ccCu6FW5.s 			page 151


 254:c:\users\yaman\downloads\daisytoolchain-0.3.3\daisytoolchain-0.3.3\windows\arm-none-eabi\include\c++\10.2.1\cmath ****     { return __builtin_fabs(__x); }
 255:c:\users\yaman\downloads\daisytoolchain-0.3.3\daisytoolchain-0.3.3\windows\arm-none-eabi\include\c++\10.2.1\cmath **** 
 256:c:\users\yaman\downloads\daisytoolchain-0.3.3\daisytoolchain-0.3.3\windows\arm-none-eabi\include\c++\10.2.1\cmath ****   using ::floor;
 257:c:\users\yaman\downloads\daisytoolchain-0.3.3\daisytoolchain-0.3.3\windows\arm-none-eabi\include\c++\10.2.1\cmath **** 
 258:c:\users\yaman\downloads\daisytoolchain-0.3.3\daisytoolchain-0.3.3\windows\arm-none-eabi\include\c++\10.2.1\cmath **** #ifndef __CORRECT_ISO_CPP_MATH_H_PROTO
 259:c:\users\yaman\downloads\daisytoolchain-0.3.3\daisytoolchain-0.3.3\windows\arm-none-eabi\include\c++\10.2.1\cmath ****   inline _GLIBCXX_CONSTEXPR float
 260:c:\users\yaman\downloads\daisytoolchain-0.3.3\daisytoolchain-0.3.3\windows\arm-none-eabi\include\c++\10.2.1\cmath ****   floor(float __x)
 261:c:\users\yaman\downloads\daisytoolchain-0.3.3\daisytoolchain-0.3.3\windows\arm-none-eabi\include\c++\10.2.1\cmath ****   { return __builtin_floorf(__x); }
 262:c:\users\yaman\downloads\daisytoolchain-0.3.3\daisytoolchain-0.3.3\windows\arm-none-eabi\include\c++\10.2.1\cmath **** 
 263:c:\users\yaman\downloads\daisytoolchain-0.3.3\daisytoolchain-0.3.3\windows\arm-none-eabi\include\c++\10.2.1\cmath ****   inline _GLIBCXX_CONSTEXPR long double
 264:c:\users\yaman\downloads\daisytoolchain-0.3.3\daisytoolchain-0.3.3\windows\arm-none-eabi\include\c++\10.2.1\cmath ****   floor(long double __x)
 265:c:\users\yaman\downloads\daisytoolchain-0.3.3\daisytoolchain-0.3.3\windows\arm-none-eabi\include\c++\10.2.1\cmath ****   { return __builtin_floorl(__x); }
 266:c:\users\yaman\downloads\daisytoolchain-0.3.3\daisytoolchain-0.3.3\windows\arm-none-eabi\include\c++\10.2.1\cmath **** #endif
 267:c:\users\yaman\downloads\daisytoolchain-0.3.3\daisytoolchain-0.3.3\windows\arm-none-eabi\include\c++\10.2.1\cmath **** 
 268:c:\users\yaman\downloads\daisytoolchain-0.3.3\daisytoolchain-0.3.3\windows\arm-none-eabi\include\c++\10.2.1\cmath ****   template<typename _Tp>
 269:c:\users\yaman\downloads\daisytoolchain-0.3.3\daisytoolchain-0.3.3\windows\arm-none-eabi\include\c++\10.2.1\cmath ****     inline _GLIBCXX_CONSTEXPR
 270:c:\users\yaman\downloads\daisytoolchain-0.3.3\daisytoolchain-0.3.3\windows\arm-none-eabi\include\c++\10.2.1\cmath ****     typename __gnu_cxx::__enable_if<__is_integer<_Tp>::__value,
 271:c:\users\yaman\downloads\daisytoolchain-0.3.3\daisytoolchain-0.3.3\windows\arm-none-eabi\include\c++\10.2.1\cmath ****                                     double>::__type
 272:c:\users\yaman\downloads\daisytoolchain-0.3.3\daisytoolchain-0.3.3\windows\arm-none-eabi\include\c++\10.2.1\cmath ****     floor(_Tp __x)
 273:c:\users\yaman\downloads\daisytoolchain-0.3.3\daisytoolchain-0.3.3\windows\arm-none-eabi\include\c++\10.2.1\cmath ****     { return __builtin_floor(__x); }
 274:c:\users\yaman\downloads\daisytoolchain-0.3.3\daisytoolchain-0.3.3\windows\arm-none-eabi\include\c++\10.2.1\cmath **** 
 275:c:\users\yaman\downloads\daisytoolchain-0.3.3\daisytoolchain-0.3.3\windows\arm-none-eabi\include\c++\10.2.1\cmath ****   using ::fmod;
 276:c:\users\yaman\downloads\daisytoolchain-0.3.3\daisytoolchain-0.3.3\windows\arm-none-eabi\include\c++\10.2.1\cmath **** 
 277:c:\users\yaman\downloads\daisytoolchain-0.3.3\daisytoolchain-0.3.3\windows\arm-none-eabi\include\c++\10.2.1\cmath **** #ifndef __CORRECT_ISO_CPP_MATH_H_PROTO
 278:c:\users\yaman\downloads\daisytoolchain-0.3.3\daisytoolchain-0.3.3\windows\arm-none-eabi\include\c++\10.2.1\cmath ****   inline _GLIBCXX_CONSTEXPR float
 279:c:\users\yaman\downloads\daisytoolchain-0.3.3\daisytoolchain-0.3.3\windows\arm-none-eabi\include\c++\10.2.1\cmath ****   fmod(float __x, float __y)
 280:c:\users\yaman\downloads\daisytoolchain-0.3.3\daisytoolchain-0.3.3\windows\arm-none-eabi\include\c++\10.2.1\cmath ****   { return __builtin_fmodf(__x, __y); }
 281:c:\users\yaman\downloads\daisytoolchain-0.3.3\daisytoolchain-0.3.3\windows\arm-none-eabi\include\c++\10.2.1\cmath **** 
 282:c:\users\yaman\downloads\daisytoolchain-0.3.3\daisytoolchain-0.3.3\windows\arm-none-eabi\include\c++\10.2.1\cmath ****   inline _GLIBCXX_CONSTEXPR long double
 283:c:\users\yaman\downloads\daisytoolchain-0.3.3\daisytoolchain-0.3.3\windows\arm-none-eabi\include\c++\10.2.1\cmath ****   fmod(long double __x, long double __y)
 284:c:\users\yaman\downloads\daisytoolchain-0.3.3\daisytoolchain-0.3.3\windows\arm-none-eabi\include\c++\10.2.1\cmath ****   { return __builtin_fmodl(__x, __y); }
 285:c:\users\yaman\downloads\daisytoolchain-0.3.3\daisytoolchain-0.3.3\windows\arm-none-eabi\include\c++\10.2.1\cmath **** #endif
 286:c:\users\yaman\downloads\daisytoolchain-0.3.3\daisytoolchain-0.3.3\windows\arm-none-eabi\include\c++\10.2.1\cmath **** 
 287:c:\users\yaman\downloads\daisytoolchain-0.3.3\daisytoolchain-0.3.3\windows\arm-none-eabi\include\c++\10.2.1\cmath ****   template<typename _Tp, typename _Up>
 288:c:\users\yaman\downloads\daisytoolchain-0.3.3\daisytoolchain-0.3.3\windows\arm-none-eabi\include\c++\10.2.1\cmath ****     inline _GLIBCXX_CONSTEXPR
 289:c:\users\yaman\downloads\daisytoolchain-0.3.3\daisytoolchain-0.3.3\windows\arm-none-eabi\include\c++\10.2.1\cmath ****     typename __gnu_cxx::__promote_2<_Tp, _Up>::__type
 290:c:\users\yaman\downloads\daisytoolchain-0.3.3\daisytoolchain-0.3.3\windows\arm-none-eabi\include\c++\10.2.1\cmath ****     fmod(_Tp __x, _Up __y)
 291:c:\users\yaman\downloads\daisytoolchain-0.3.3\daisytoolchain-0.3.3\windows\arm-none-eabi\include\c++\10.2.1\cmath ****     {
 292:c:\users\yaman\downloads\daisytoolchain-0.3.3\daisytoolchain-0.3.3\windows\arm-none-eabi\include\c++\10.2.1\cmath ****       typedef typename __gnu_cxx::__promote_2<_Tp, _Up>::__type __type;
 293:c:\users\yaman\downloads\daisytoolchain-0.3.3\daisytoolchain-0.3.3\windows\arm-none-eabi\include\c++\10.2.1\cmath ****       return fmod(__type(__x), __type(__y));
 294:c:\users\yaman\downloads\daisytoolchain-0.3.3\daisytoolchain-0.3.3\windows\arm-none-eabi\include\c++\10.2.1\cmath ****     }
 295:c:\users\yaman\downloads\daisytoolchain-0.3.3\daisytoolchain-0.3.3\windows\arm-none-eabi\include\c++\10.2.1\cmath **** 
 296:c:\users\yaman\downloads\daisytoolchain-0.3.3\daisytoolchain-0.3.3\windows\arm-none-eabi\include\c++\10.2.1\cmath ****   using ::frexp;
 297:c:\users\yaman\downloads\daisytoolchain-0.3.3\daisytoolchain-0.3.3\windows\arm-none-eabi\include\c++\10.2.1\cmath **** 
 298:c:\users\yaman\downloads\daisytoolchain-0.3.3\daisytoolchain-0.3.3\windows\arm-none-eabi\include\c++\10.2.1\cmath **** #ifndef __CORRECT_ISO_CPP_MATH_H_PROTO
 299:c:\users\yaman\downloads\daisytoolchain-0.3.3\daisytoolchain-0.3.3\windows\arm-none-eabi\include\c++\10.2.1\cmath ****   inline float
 300:c:\users\yaman\downloads\daisytoolchain-0.3.3\daisytoolchain-0.3.3\windows\arm-none-eabi\include\c++\10.2.1\cmath ****   frexp(float __x, int* __exp)
 301:c:\users\yaman\downloads\daisytoolchain-0.3.3\daisytoolchain-0.3.3\windows\arm-none-eabi\include\c++\10.2.1\cmath ****   { return __builtin_frexpf(__x, __exp); }
 302:c:\users\yaman\downloads\daisytoolchain-0.3.3\daisytoolchain-0.3.3\windows\arm-none-eabi\include\c++\10.2.1\cmath **** 
 303:c:\users\yaman\downloads\daisytoolchain-0.3.3\daisytoolchain-0.3.3\windows\arm-none-eabi\include\c++\10.2.1\cmath ****   inline long double
 304:c:\users\yaman\downloads\daisytoolchain-0.3.3\daisytoolchain-0.3.3\windows\arm-none-eabi\include\c++\10.2.1\cmath ****   frexp(long double __x, int* __exp)
 305:c:\users\yaman\downloads\daisytoolchain-0.3.3\daisytoolchain-0.3.3\windows\arm-none-eabi\include\c++\10.2.1\cmath ****   { return __builtin_frexpl(__x, __exp); }
 306:c:\users\yaman\downloads\daisytoolchain-0.3.3\daisytoolchain-0.3.3\windows\arm-none-eabi\include\c++\10.2.1\cmath **** #endif
 307:c:\users\yaman\downloads\daisytoolchain-0.3.3\daisytoolchain-0.3.3\windows\arm-none-eabi\include\c++\10.2.1\cmath **** 
 308:c:\users\yaman\downloads\daisytoolchain-0.3.3\daisytoolchain-0.3.3\windows\arm-none-eabi\include\c++\10.2.1\cmath ****   template<typename _Tp>
 309:c:\users\yaman\downloads\daisytoolchain-0.3.3\daisytoolchain-0.3.3\windows\arm-none-eabi\include\c++\10.2.1\cmath ****     inline _GLIBCXX_CONSTEXPR
 310:c:\users\yaman\downloads\daisytoolchain-0.3.3\daisytoolchain-0.3.3\windows\arm-none-eabi\include\c++\10.2.1\cmath ****     typename __gnu_cxx::__enable_if<__is_integer<_Tp>::__value, 
ARM GAS  C:\Users\yaman\AppData\Local\Temp\ccCu6FW5.s 			page 152


 311:c:\users\yaman\downloads\daisytoolchain-0.3.3\daisytoolchain-0.3.3\windows\arm-none-eabi\include\c++\10.2.1\cmath ****                                     double>::__type
 312:c:\users\yaman\downloads\daisytoolchain-0.3.3\daisytoolchain-0.3.3\windows\arm-none-eabi\include\c++\10.2.1\cmath ****     frexp(_Tp __x, int* __exp)
 313:c:\users\yaman\downloads\daisytoolchain-0.3.3\daisytoolchain-0.3.3\windows\arm-none-eabi\include\c++\10.2.1\cmath ****     { return __builtin_frexp(__x, __exp); }
 314:c:\users\yaman\downloads\daisytoolchain-0.3.3\daisytoolchain-0.3.3\windows\arm-none-eabi\include\c++\10.2.1\cmath **** 
 315:c:\users\yaman\downloads\daisytoolchain-0.3.3\daisytoolchain-0.3.3\windows\arm-none-eabi\include\c++\10.2.1\cmath ****   using ::ldexp;
 316:c:\users\yaman\downloads\daisytoolchain-0.3.3\daisytoolchain-0.3.3\windows\arm-none-eabi\include\c++\10.2.1\cmath **** 
 317:c:\users\yaman\downloads\daisytoolchain-0.3.3\daisytoolchain-0.3.3\windows\arm-none-eabi\include\c++\10.2.1\cmath **** #ifndef __CORRECT_ISO_CPP_MATH_H_PROTO
 318:c:\users\yaman\downloads\daisytoolchain-0.3.3\daisytoolchain-0.3.3\windows\arm-none-eabi\include\c++\10.2.1\cmath ****   inline _GLIBCXX_CONSTEXPR float
 319:c:\users\yaman\downloads\daisytoolchain-0.3.3\daisytoolchain-0.3.3\windows\arm-none-eabi\include\c++\10.2.1\cmath ****   ldexp(float __x, int __exp)
 320:c:\users\yaman\downloads\daisytoolchain-0.3.3\daisytoolchain-0.3.3\windows\arm-none-eabi\include\c++\10.2.1\cmath ****   { return __builtin_ldexpf(__x, __exp); }
 321:c:\users\yaman\downloads\daisytoolchain-0.3.3\daisytoolchain-0.3.3\windows\arm-none-eabi\include\c++\10.2.1\cmath **** 
 322:c:\users\yaman\downloads\daisytoolchain-0.3.3\daisytoolchain-0.3.3\windows\arm-none-eabi\include\c++\10.2.1\cmath ****   inline _GLIBCXX_CONSTEXPR long double
 323:c:\users\yaman\downloads\daisytoolchain-0.3.3\daisytoolchain-0.3.3\windows\arm-none-eabi\include\c++\10.2.1\cmath ****   ldexp(long double __x, int __exp)
 324:c:\users\yaman\downloads\daisytoolchain-0.3.3\daisytoolchain-0.3.3\windows\arm-none-eabi\include\c++\10.2.1\cmath ****   { return __builtin_ldexpl(__x, __exp); }
 325:c:\users\yaman\downloads\daisytoolchain-0.3.3\daisytoolchain-0.3.3\windows\arm-none-eabi\include\c++\10.2.1\cmath **** #endif
 326:c:\users\yaman\downloads\daisytoolchain-0.3.3\daisytoolchain-0.3.3\windows\arm-none-eabi\include\c++\10.2.1\cmath **** 
 327:c:\users\yaman\downloads\daisytoolchain-0.3.3\daisytoolchain-0.3.3\windows\arm-none-eabi\include\c++\10.2.1\cmath ****   template<typename _Tp>
 328:c:\users\yaman\downloads\daisytoolchain-0.3.3\daisytoolchain-0.3.3\windows\arm-none-eabi\include\c++\10.2.1\cmath ****     inline _GLIBCXX_CONSTEXPR
 329:c:\users\yaman\downloads\daisytoolchain-0.3.3\daisytoolchain-0.3.3\windows\arm-none-eabi\include\c++\10.2.1\cmath ****     typename __gnu_cxx::__enable_if<__is_integer<_Tp>::__value, 
 330:c:\users\yaman\downloads\daisytoolchain-0.3.3\daisytoolchain-0.3.3\windows\arm-none-eabi\include\c++\10.2.1\cmath ****                                     double>::__type
 331:c:\users\yaman\downloads\daisytoolchain-0.3.3\daisytoolchain-0.3.3\windows\arm-none-eabi\include\c++\10.2.1\cmath ****     ldexp(_Tp __x, int __exp)
 332:c:\users\yaman\downloads\daisytoolchain-0.3.3\daisytoolchain-0.3.3\windows\arm-none-eabi\include\c++\10.2.1\cmath ****     { return __builtin_ldexp(__x, __exp); }
 333:c:\users\yaman\downloads\daisytoolchain-0.3.3\daisytoolchain-0.3.3\windows\arm-none-eabi\include\c++\10.2.1\cmath **** 
 334:c:\users\yaman\downloads\daisytoolchain-0.3.3\daisytoolchain-0.3.3\windows\arm-none-eabi\include\c++\10.2.1\cmath ****   using ::log;
 335:c:\users\yaman\downloads\daisytoolchain-0.3.3\daisytoolchain-0.3.3\windows\arm-none-eabi\include\c++\10.2.1\cmath **** 
 336:c:\users\yaman\downloads\daisytoolchain-0.3.3\daisytoolchain-0.3.3\windows\arm-none-eabi\include\c++\10.2.1\cmath **** #ifndef __CORRECT_ISO_CPP_MATH_H_PROTO
 337:c:\users\yaman\downloads\daisytoolchain-0.3.3\daisytoolchain-0.3.3\windows\arm-none-eabi\include\c++\10.2.1\cmath ****   inline _GLIBCXX_CONSTEXPR float
 338:c:\users\yaman\downloads\daisytoolchain-0.3.3\daisytoolchain-0.3.3\windows\arm-none-eabi\include\c++\10.2.1\cmath ****   log(float __x)
 339:c:\users\yaman\downloads\daisytoolchain-0.3.3\daisytoolchain-0.3.3\windows\arm-none-eabi\include\c++\10.2.1\cmath ****   { return __builtin_logf(__x); }
 340:c:\users\yaman\downloads\daisytoolchain-0.3.3\daisytoolchain-0.3.3\windows\arm-none-eabi\include\c++\10.2.1\cmath **** 
 341:c:\users\yaman\downloads\daisytoolchain-0.3.3\daisytoolchain-0.3.3\windows\arm-none-eabi\include\c++\10.2.1\cmath ****   inline _GLIBCXX_CONSTEXPR long double
 342:c:\users\yaman\downloads\daisytoolchain-0.3.3\daisytoolchain-0.3.3\windows\arm-none-eabi\include\c++\10.2.1\cmath ****   log(long double __x)
 343:c:\users\yaman\downloads\daisytoolchain-0.3.3\daisytoolchain-0.3.3\windows\arm-none-eabi\include\c++\10.2.1\cmath ****   { return __builtin_logl(__x); }
 344:c:\users\yaman\downloads\daisytoolchain-0.3.3\daisytoolchain-0.3.3\windows\arm-none-eabi\include\c++\10.2.1\cmath **** #endif
 345:c:\users\yaman\downloads\daisytoolchain-0.3.3\daisytoolchain-0.3.3\windows\arm-none-eabi\include\c++\10.2.1\cmath **** 
 346:c:\users\yaman\downloads\daisytoolchain-0.3.3\daisytoolchain-0.3.3\windows\arm-none-eabi\include\c++\10.2.1\cmath ****   template<typename _Tp>
 347:c:\users\yaman\downloads\daisytoolchain-0.3.3\daisytoolchain-0.3.3\windows\arm-none-eabi\include\c++\10.2.1\cmath ****     inline _GLIBCXX_CONSTEXPR
 348:c:\users\yaman\downloads\daisytoolchain-0.3.3\daisytoolchain-0.3.3\windows\arm-none-eabi\include\c++\10.2.1\cmath ****     typename __gnu_cxx::__enable_if<__is_integer<_Tp>::__value, 
 349:c:\users\yaman\downloads\daisytoolchain-0.3.3\daisytoolchain-0.3.3\windows\arm-none-eabi\include\c++\10.2.1\cmath ****                                     double>::__type
 350:c:\users\yaman\downloads\daisytoolchain-0.3.3\daisytoolchain-0.3.3\windows\arm-none-eabi\include\c++\10.2.1\cmath ****     log(_Tp __x)
 351:c:\users\yaman\downloads\daisytoolchain-0.3.3\daisytoolchain-0.3.3\windows\arm-none-eabi\include\c++\10.2.1\cmath ****     { return __builtin_log(__x); }
 352:c:\users\yaman\downloads\daisytoolchain-0.3.3\daisytoolchain-0.3.3\windows\arm-none-eabi\include\c++\10.2.1\cmath **** 
 353:c:\users\yaman\downloads\daisytoolchain-0.3.3\daisytoolchain-0.3.3\windows\arm-none-eabi\include\c++\10.2.1\cmath ****   using ::log10;
 354:c:\users\yaman\downloads\daisytoolchain-0.3.3\daisytoolchain-0.3.3\windows\arm-none-eabi\include\c++\10.2.1\cmath **** 
 355:c:\users\yaman\downloads\daisytoolchain-0.3.3\daisytoolchain-0.3.3\windows\arm-none-eabi\include\c++\10.2.1\cmath **** #ifndef __CORRECT_ISO_CPP_MATH_H_PROTO
 356:c:\users\yaman\downloads\daisytoolchain-0.3.3\daisytoolchain-0.3.3\windows\arm-none-eabi\include\c++\10.2.1\cmath ****   inline _GLIBCXX_CONSTEXPR float
 357:c:\users\yaman\downloads\daisytoolchain-0.3.3\daisytoolchain-0.3.3\windows\arm-none-eabi\include\c++\10.2.1\cmath ****   log10(float __x)
 358:c:\users\yaman\downloads\daisytoolchain-0.3.3\daisytoolchain-0.3.3\windows\arm-none-eabi\include\c++\10.2.1\cmath ****   { return __builtin_log10f(__x); }
 359:c:\users\yaman\downloads\daisytoolchain-0.3.3\daisytoolchain-0.3.3\windows\arm-none-eabi\include\c++\10.2.1\cmath **** 
 360:c:\users\yaman\downloads\daisytoolchain-0.3.3\daisytoolchain-0.3.3\windows\arm-none-eabi\include\c++\10.2.1\cmath ****   inline _GLIBCXX_CONSTEXPR long double
 361:c:\users\yaman\downloads\daisytoolchain-0.3.3\daisytoolchain-0.3.3\windows\arm-none-eabi\include\c++\10.2.1\cmath ****   log10(long double __x)
 362:c:\users\yaman\downloads\daisytoolchain-0.3.3\daisytoolchain-0.3.3\windows\arm-none-eabi\include\c++\10.2.1\cmath ****   { return __builtin_log10l(__x); }
 363:c:\users\yaman\downloads\daisytoolchain-0.3.3\daisytoolchain-0.3.3\windows\arm-none-eabi\include\c++\10.2.1\cmath **** #endif
 364:c:\users\yaman\downloads\daisytoolchain-0.3.3\daisytoolchain-0.3.3\windows\arm-none-eabi\include\c++\10.2.1\cmath **** 
 365:c:\users\yaman\downloads\daisytoolchain-0.3.3\daisytoolchain-0.3.3\windows\arm-none-eabi\include\c++\10.2.1\cmath ****   template<typename _Tp>
 366:c:\users\yaman\downloads\daisytoolchain-0.3.3\daisytoolchain-0.3.3\windows\arm-none-eabi\include\c++\10.2.1\cmath ****     inline _GLIBCXX_CONSTEXPR
 367:c:\users\yaman\downloads\daisytoolchain-0.3.3\daisytoolchain-0.3.3\windows\arm-none-eabi\include\c++\10.2.1\cmath ****     typename __gnu_cxx::__enable_if<__is_integer<_Tp>::__value,
ARM GAS  C:\Users\yaman\AppData\Local\Temp\ccCu6FW5.s 			page 153


 368:c:\users\yaman\downloads\daisytoolchain-0.3.3\daisytoolchain-0.3.3\windows\arm-none-eabi\include\c++\10.2.1\cmath ****                                     double>::__type
 369:c:\users\yaman\downloads\daisytoolchain-0.3.3\daisytoolchain-0.3.3\windows\arm-none-eabi\include\c++\10.2.1\cmath ****     log10(_Tp __x)
 370:c:\users\yaman\downloads\daisytoolchain-0.3.3\daisytoolchain-0.3.3\windows\arm-none-eabi\include\c++\10.2.1\cmath ****     { return __builtin_log10(__x); }
 371:c:\users\yaman\downloads\daisytoolchain-0.3.3\daisytoolchain-0.3.3\windows\arm-none-eabi\include\c++\10.2.1\cmath **** 
 372:c:\users\yaman\downloads\daisytoolchain-0.3.3\daisytoolchain-0.3.3\windows\arm-none-eabi\include\c++\10.2.1\cmath ****   using ::modf;
 373:c:\users\yaman\downloads\daisytoolchain-0.3.3\daisytoolchain-0.3.3\windows\arm-none-eabi\include\c++\10.2.1\cmath **** 
 374:c:\users\yaman\downloads\daisytoolchain-0.3.3\daisytoolchain-0.3.3\windows\arm-none-eabi\include\c++\10.2.1\cmath **** #ifndef __CORRECT_ISO_CPP_MATH_H_PROTO
 375:c:\users\yaman\downloads\daisytoolchain-0.3.3\daisytoolchain-0.3.3\windows\arm-none-eabi\include\c++\10.2.1\cmath ****   inline float
 376:c:\users\yaman\downloads\daisytoolchain-0.3.3\daisytoolchain-0.3.3\windows\arm-none-eabi\include\c++\10.2.1\cmath ****   modf(float __x, float* __iptr)
 377:c:\users\yaman\downloads\daisytoolchain-0.3.3\daisytoolchain-0.3.3\windows\arm-none-eabi\include\c++\10.2.1\cmath ****   { return __builtin_modff(__x, __iptr); }
 378:c:\users\yaman\downloads\daisytoolchain-0.3.3\daisytoolchain-0.3.3\windows\arm-none-eabi\include\c++\10.2.1\cmath **** 
 379:c:\users\yaman\downloads\daisytoolchain-0.3.3\daisytoolchain-0.3.3\windows\arm-none-eabi\include\c++\10.2.1\cmath ****   inline long double
 380:c:\users\yaman\downloads\daisytoolchain-0.3.3\daisytoolchain-0.3.3\windows\arm-none-eabi\include\c++\10.2.1\cmath ****   modf(long double __x, long double* __iptr)
 381:c:\users\yaman\downloads\daisytoolchain-0.3.3\daisytoolchain-0.3.3\windows\arm-none-eabi\include\c++\10.2.1\cmath ****   { return __builtin_modfl(__x, __iptr); }
 382:c:\users\yaman\downloads\daisytoolchain-0.3.3\daisytoolchain-0.3.3\windows\arm-none-eabi\include\c++\10.2.1\cmath **** #endif
 383:c:\users\yaman\downloads\daisytoolchain-0.3.3\daisytoolchain-0.3.3\windows\arm-none-eabi\include\c++\10.2.1\cmath **** 
 384:c:\users\yaman\downloads\daisytoolchain-0.3.3\daisytoolchain-0.3.3\windows\arm-none-eabi\include\c++\10.2.1\cmath ****   using ::pow;
 385:c:\users\yaman\downloads\daisytoolchain-0.3.3\daisytoolchain-0.3.3\windows\arm-none-eabi\include\c++\10.2.1\cmath **** 
 386:c:\users\yaman\downloads\daisytoolchain-0.3.3\daisytoolchain-0.3.3\windows\arm-none-eabi\include\c++\10.2.1\cmath **** #ifndef __CORRECT_ISO_CPP_MATH_H_PROTO
 387:c:\users\yaman\downloads\daisytoolchain-0.3.3\daisytoolchain-0.3.3\windows\arm-none-eabi\include\c++\10.2.1\cmath ****   inline _GLIBCXX_CONSTEXPR float
 388:c:\users\yaman\downloads\daisytoolchain-0.3.3\daisytoolchain-0.3.3\windows\arm-none-eabi\include\c++\10.2.1\cmath ****   pow(float __x, float __y)
 389:c:\users\yaman\downloads\daisytoolchain-0.3.3\daisytoolchain-0.3.3\windows\arm-none-eabi\include\c++\10.2.1\cmath ****   { return __builtin_powf(__x, __y); }
 390:c:\users\yaman\downloads\daisytoolchain-0.3.3\daisytoolchain-0.3.3\windows\arm-none-eabi\include\c++\10.2.1\cmath **** 
 391:c:\users\yaman\downloads\daisytoolchain-0.3.3\daisytoolchain-0.3.3\windows\arm-none-eabi\include\c++\10.2.1\cmath ****   inline _GLIBCXX_CONSTEXPR long double
 392:c:\users\yaman\downloads\daisytoolchain-0.3.3\daisytoolchain-0.3.3\windows\arm-none-eabi\include\c++\10.2.1\cmath ****   pow(long double __x, long double __y)
 393:c:\users\yaman\downloads\daisytoolchain-0.3.3\daisytoolchain-0.3.3\windows\arm-none-eabi\include\c++\10.2.1\cmath ****   { return __builtin_powl(__x, __y); }
 394:c:\users\yaman\downloads\daisytoolchain-0.3.3\daisytoolchain-0.3.3\windows\arm-none-eabi\include\c++\10.2.1\cmath **** 
 395:c:\users\yaman\downloads\daisytoolchain-0.3.3\daisytoolchain-0.3.3\windows\arm-none-eabi\include\c++\10.2.1\cmath **** #if __cplusplus < 201103L
 396:c:\users\yaman\downloads\daisytoolchain-0.3.3\daisytoolchain-0.3.3\windows\arm-none-eabi\include\c++\10.2.1\cmath ****   // _GLIBCXX_RESOLVE_LIB_DEFECTS
 397:c:\users\yaman\downloads\daisytoolchain-0.3.3\daisytoolchain-0.3.3\windows\arm-none-eabi\include\c++\10.2.1\cmath ****   // DR 550. What should the return type of pow(float,int) be?
 398:c:\users\yaman\downloads\daisytoolchain-0.3.3\daisytoolchain-0.3.3\windows\arm-none-eabi\include\c++\10.2.1\cmath ****   inline double
 399:c:\users\yaman\downloads\daisytoolchain-0.3.3\daisytoolchain-0.3.3\windows\arm-none-eabi\include\c++\10.2.1\cmath ****   pow(double __x, int __i)
 400:c:\users\yaman\downloads\daisytoolchain-0.3.3\daisytoolchain-0.3.3\windows\arm-none-eabi\include\c++\10.2.1\cmath ****   { return __builtin_powi(__x, __i); }
 401:c:\users\yaman\downloads\daisytoolchain-0.3.3\daisytoolchain-0.3.3\windows\arm-none-eabi\include\c++\10.2.1\cmath **** 
 402:c:\users\yaman\downloads\daisytoolchain-0.3.3\daisytoolchain-0.3.3\windows\arm-none-eabi\include\c++\10.2.1\cmath ****   inline float
 403:c:\users\yaman\downloads\daisytoolchain-0.3.3\daisytoolchain-0.3.3\windows\arm-none-eabi\include\c++\10.2.1\cmath ****   pow(float __x, int __n)
 404:c:\users\yaman\downloads\daisytoolchain-0.3.3\daisytoolchain-0.3.3\windows\arm-none-eabi\include\c++\10.2.1\cmath ****   { return __builtin_powif(__x, __n); }
 405:c:\users\yaman\downloads\daisytoolchain-0.3.3\daisytoolchain-0.3.3\windows\arm-none-eabi\include\c++\10.2.1\cmath **** 
 406:c:\users\yaman\downloads\daisytoolchain-0.3.3\daisytoolchain-0.3.3\windows\arm-none-eabi\include\c++\10.2.1\cmath ****   inline long double
 407:c:\users\yaman\downloads\daisytoolchain-0.3.3\daisytoolchain-0.3.3\windows\arm-none-eabi\include\c++\10.2.1\cmath ****   pow(long double __x, int __n)
 408:c:\users\yaman\downloads\daisytoolchain-0.3.3\daisytoolchain-0.3.3\windows\arm-none-eabi\include\c++\10.2.1\cmath ****   { return __builtin_powil(__x, __n); }
 409:c:\users\yaman\downloads\daisytoolchain-0.3.3\daisytoolchain-0.3.3\windows\arm-none-eabi\include\c++\10.2.1\cmath **** #endif
 410:c:\users\yaman\downloads\daisytoolchain-0.3.3\daisytoolchain-0.3.3\windows\arm-none-eabi\include\c++\10.2.1\cmath **** #endif
 411:c:\users\yaman\downloads\daisytoolchain-0.3.3\daisytoolchain-0.3.3\windows\arm-none-eabi\include\c++\10.2.1\cmath **** 
 412:c:\users\yaman\downloads\daisytoolchain-0.3.3\daisytoolchain-0.3.3\windows\arm-none-eabi\include\c++\10.2.1\cmath ****   template<typename _Tp, typename _Up>
 413:c:\users\yaman\downloads\daisytoolchain-0.3.3\daisytoolchain-0.3.3\windows\arm-none-eabi\include\c++\10.2.1\cmath ****     inline _GLIBCXX_CONSTEXPR
 414:c:\users\yaman\downloads\daisytoolchain-0.3.3\daisytoolchain-0.3.3\windows\arm-none-eabi\include\c++\10.2.1\cmath ****     typename __gnu_cxx::__promote_2<_Tp, _Up>::__type
 415:c:\users\yaman\downloads\daisytoolchain-0.3.3\daisytoolchain-0.3.3\windows\arm-none-eabi\include\c++\10.2.1\cmath ****     pow(_Tp __x, _Up __y)
 416:c:\users\yaman\downloads\daisytoolchain-0.3.3\daisytoolchain-0.3.3\windows\arm-none-eabi\include\c++\10.2.1\cmath ****     {
 417:c:\users\yaman\downloads\daisytoolchain-0.3.3\daisytoolchain-0.3.3\windows\arm-none-eabi\include\c++\10.2.1\cmath ****       typedef typename __gnu_cxx::__promote_2<_Tp, _Up>::__type __type;
 418:c:\users\yaman\downloads\daisytoolchain-0.3.3\daisytoolchain-0.3.3\windows\arm-none-eabi\include\c++\10.2.1\cmath ****       return pow(__type(__x), __type(__y));
 419:c:\users\yaman\downloads\daisytoolchain-0.3.3\daisytoolchain-0.3.3\windows\arm-none-eabi\include\c++\10.2.1\cmath ****     }
 420:c:\users\yaman\downloads\daisytoolchain-0.3.3\daisytoolchain-0.3.3\windows\arm-none-eabi\include\c++\10.2.1\cmath **** 
 421:c:\users\yaman\downloads\daisytoolchain-0.3.3\daisytoolchain-0.3.3\windows\arm-none-eabi\include\c++\10.2.1\cmath ****   using ::sin;
 422:c:\users\yaman\downloads\daisytoolchain-0.3.3\daisytoolchain-0.3.3\windows\arm-none-eabi\include\c++\10.2.1\cmath **** 
 423:c:\users\yaman\downloads\daisytoolchain-0.3.3\daisytoolchain-0.3.3\windows\arm-none-eabi\include\c++\10.2.1\cmath **** #ifndef __CORRECT_ISO_CPP_MATH_H_PROTO
 424:c:\users\yaman\downloads\daisytoolchain-0.3.3\daisytoolchain-0.3.3\windows\arm-none-eabi\include\c++\10.2.1\cmath ****   inline _GLIBCXX_CONSTEXPR float
ARM GAS  C:\Users\yaman\AppData\Local\Temp\ccCu6FW5.s 			page 154


 425:c:\users\yaman\downloads\daisytoolchain-0.3.3\daisytoolchain-0.3.3\windows\arm-none-eabi\include\c++\10.2.1\cmath ****   sin(float __x)
 426:c:\users\yaman\downloads\daisytoolchain-0.3.3\daisytoolchain-0.3.3\windows\arm-none-eabi\include\c++\10.2.1\cmath ****   { return __builtin_sinf(__x); }
 5192              		.loc 17 426 26 view .LVU1211
 5193 0068 B0EE680A 		vmov.f32	s0, s17
 5194 006c FFF7FEFF 		bl	sinf
 5195              	.LVL347:
 5196              	.LBE1621:
 5197              	.LBE1620:
 316:libDaisy/src/hid/disp/display.h ****         end_x   = cos(end_angle_rad) * radius;
 5198              		.loc 3 316 17 view .LVU1212
 5199 0070 60EE698A 		vnmul.f32	s17, s0, s19
 5200              	.LVL348:
 5201              	.LBB1623:
 5202              	.LBB1624:
 185:c:\users\yaman\downloads\daisytoolchain-0.3.3\daisytoolchain-0.3.3\windows\arm-none-eabi\include\c++\10.2.1\cmath **** 
 5203              		.loc 17 185 26 view .LVU1213
 5204 0074 B0EE4A0A 		vmov.f32	s0, s20
 5205 0078 FFF7FEFF 		bl	cosf
 5206              	.LVL349:
 5207 007c B0EE409A 		vmov.f32	s18, s0
 5208              	.LBE1624:
 5209              	.LBE1623:
 5210              	.LBB1626:
 5211              	.LBB1627:
 5212              		.loc 17 426 26 view .LVU1214
 5213 0080 B0EE4A0A 		vmov.f32	s0, s20
 5214 0084 FFF7FEFF 		bl	sinf
 5215              	.LVL350:
 5216              	.LBE1627:
 5217              	.LBE1626:
 318:libDaisy/src/hid/disp/display.h **** 
 5218              		.loc 3 318 17 view .LVU1215
 5219 0088 20EE690A 		vnmul.f32	s0, s0, s19
 315:libDaisy/src/hid/disp/display.h ****         start_y = -sin(start_angle_rad) * radius;
 5220              		.loc 3 315 17 view .LVU1216
 5221 008c 29EE888A 		vmul.f32	s16, s19, s16
 5222              	.LVL351:
 5223              	.LBB1629:
 5224              	.LBI1620:
 425:c:\users\yaman\downloads\daisytoolchain-0.3.3\daisytoolchain-0.3.3\windows\arm-none-eabi\include\c++\10.2.1\cmath ****   { return __builtin_sinf(__x); }
 5225              		.loc 17 425 3 is_stmt 1 view .LVU1217
 5226              	.LBB1622:
 5227              		.loc 17 426 5 view .LVU1218
 5228              		.loc 17 426 5 is_stmt 0 view .LVU1219
 5229              	.LBE1622:
 5230              	.LBE1629:
 5231              	.LBB1630:
 5232              	.LBI1623:
 184:c:\users\yaman\downloads\daisytoolchain-0.3.3\daisytoolchain-0.3.3\windows\arm-none-eabi\include\c++\10.2.1\cmath ****   { return __builtin_cosf(__x); }
 5233              		.loc 17 184 3 is_stmt 1 view .LVU1220
 5234              	.LBB1625:
 185:c:\users\yaman\downloads\daisytoolchain-0.3.3\daisytoolchain-0.3.3\windows\arm-none-eabi\include\c++\10.2.1\cmath **** 
 5235              		.loc 17 185 5 view .LVU1221
 185:c:\users\yaman\downloads\daisytoolchain-0.3.3\daisytoolchain-0.3.3\windows\arm-none-eabi\include\c++\10.2.1\cmath **** 
 5236              		.loc 17 185 5 is_stmt 0 view .LVU1222
 5237              	.LBE1625:
 5238              	.LBE1630:
ARM GAS  C:\Users\yaman\AppData\Local\Temp\ccCu6FW5.s 			page 155


 317:libDaisy/src/hid/disp/display.h ****         end_y   = -sin(end_angle_rad) * radius;
 5239              		.loc 3 317 17 view .LVU1223
 5240 0090 29EE899A 		vmul.f32	s18, s19, s18
 5241              	.LVL352:
 5242              	.LBB1631:
 5243              	.LBI1626:
 425:c:\users\yaman\downloads\daisytoolchain-0.3.3\daisytoolchain-0.3.3\windows\arm-none-eabi\include\c++\10.2.1\cmath ****   { return __builtin_sinf(__x); }
 5244              		.loc 17 425 3 is_stmt 1 view .LVU1224
 5245              	.LBB1628:
 5246              		.loc 17 426 5 view .LVU1225
 5247              		.loc 17 426 5 is_stmt 0 view .LVU1226
 5248              	.LBE1628:
 5249              	.LBE1631:
 322:libDaisy/src/hid/disp/display.h ****            < 2.0f)
 5250              		.loc 3 322 25 view .LVU1227
 5251 0094 70EE687A 		vsub.f32	s15, s0, s17
 321:libDaisy/src/hid/disp/display.h ****                + (end_y - start_y) * (end_y - start_y)
 5252              		.loc 3 321 9 view .LVU1228
 5253 0098 F0EE006A 		vmov.f32	s13, #2.0e+0
 321:libDaisy/src/hid/disp/display.h ****                + (end_y - start_y) * (end_y - start_y)
 5254              		.loc 3 321 19 view .LVU1229
 5255 009c 39EE487A 		vsub.f32	s14, s18, s16
 322:libDaisy/src/hid/disp/display.h ****            < 2.0f)
 5256              		.loc 3 322 36 view .LVU1230
 5257 00a0 67EEA77A 		vmul.f32	s15, s15, s15
 322:libDaisy/src/hid/disp/display.h ****            < 2.0f)
 5258              		.loc 3 322 16 view .LVU1231
 5259 00a4 E7EE077A 		vfma.f32	s15, s14, s14
 321:libDaisy/src/hid/disp/display.h ****                + (end_y - start_y) * (end_y - start_y)
 5260              		.loc 3 321 9 view .LVU1232
 5261 00a8 F4EEE67A 		vcmpe.f32	s15, s13
 5262 00ac F1EE10FA 		vmrs	APSR_nzcv, FPSCR
 5263 00b0 06D5     		bpl	.L404
 325:libDaisy/src/hid/disp/display.h ****                 circle = true;
 5264              		.loc 3 325 13 view .LVU1233
 5265 00b2 139B     		ldr	r3, [sp, #76]
 5266 00b4 B42B     		cmp	r3, #180
 5267 00b6 40F39680 		ble	.L345
 326:libDaisy/src/hid/disp/display.h ****             else
 5268              		.loc 3 326 24 view .LVU1234
 5269 00ba 4FF00109 		mov	r9, #1
 5270 00be 01E0     		b	.L348
 5271              	.L404:
 304:libDaisy/src/hid/disp/display.h **** 
 5272              		.loc 3 304 14 view .LVU1235
 5273 00c0 4FF00009 		mov	r9, #0
 5274              	.L348:
 5275              	.LVL353:
 302:libDaisy/src/hid/disp/display.h **** 
 5276              		.loc 3 302 27 view .LVU1236
 5277 00c4 0124     		movs	r4, #1
 332:libDaisy/src/hid/disp/display.h ****         t_y = 0;
 5278              		.loc 3 332 13 view .LVU1237
 5279 00c6 7842     		rsbs	r0, r7, #0
 5280              	.LVL354:
 333:libDaisy/src/hid/disp/display.h ****         err = 2 - 2 * radius;
 5281              		.loc 3 333 13 view .LVU1238
ARM GAS  C:\Users\yaman\AppData\Local\Temp\ccCu6FW5.s 			page 156


 5282 00c8 4FF0000C 		mov	ip, #0
 5283 00cc 0095     		str	r5, [sp]
 334:libDaisy/src/hid/disp/display.h **** 
 5284              		.loc 3 334 17 view .LVU1239
 5285 00ce E31B     		subs	r3, r4, r7
 302:libDaisy/src/hid/disp/display.h **** 
 5286              		.loc 3 302 17 view .LVU1240
 5287 00d0 2146     		mov	r1, r4
 302:libDaisy/src/hid/disp/display.h **** 
 5288              		.loc 3 302 22 view .LVU1241
 5289 00d2 2746     		mov	r7, r4
 5290              	.LVL355:
 302:libDaisy/src/hid/disp/display.h **** 
 5291              		.loc 3 302 12 view .LVU1242
 5292 00d4 2246     		mov	r2, r4
 334:libDaisy/src/hid/disp/display.h **** 
 5293              		.loc 3 334 17 view .LVU1243
 5294 00d6 A340     		lsls	r3, r3, r4
 5295              	.LVL356:
 5296              	.L374:
 338:libDaisy/src/hid/disp/display.h ****             {
 5297              		.loc 3 338 13 view .LVU1244
 5298 00d8 B9F1000F 		cmp	r9, #0
 5299 00dc 6AD1     		bne	.L350
 343:libDaisy/src/hid/disp/display.h ****                 t_exy  = end_x * t_y;
 5300              		.loc 3 343 34 view .LVU1245
 5301 00de 4242     		rsbs	r2, r0, #0
 5302              	.LVL357:
 340:libDaisy/src/hid/disp/display.h ****                 t_syx  = start_y * t_x;
 5303              		.loc 3 340 24 view .LVU1246
 5304 00e0 06EE90CA 		vmov	s13, ip	@ int
 342:libDaisy/src/hid/disp/display.h ****                 t_synx = start_y * -t_x;
 5305              		.loc 3 342 34 view .LVU1247
 5306 00e4 CCF10001 		rsb	r1, ip, #0
 5307              	.LVL358:
 343:libDaisy/src/hid/disp/display.h ****                 t_exy  = end_x * t_y;
 5308              		.loc 3 343 34 view .LVU1248
 5309 00e8 07EE102A 		vmov	s14, r2	@ int
 340:libDaisy/src/hid/disp/display.h ****                 t_syx  = start_y * t_x;
 5310              		.loc 3 340 24 view .LVU1249
 5311 00ec B8EEE66A 		vcvt.f32.s32	s12, s13
 342:libDaisy/src/hid/disp/display.h ****                 t_synx = start_y * -t_x;
 5312              		.loc 3 342 34 view .LVU1250
 5313 00f0 07EE901A 		vmov	s15, r1	@ int
 341:libDaisy/src/hid/disp/display.h ****                 t_sxny = start_x * -t_y;
 5314              		.loc 3 341 24 view .LVU1251
 5315 00f4 06EE900A 		vmov	s13, r0	@ int
 343:libDaisy/src/hid/disp/display.h ****                 t_exy  = end_x * t_y;
 5316              		.loc 3 343 34 view .LVU1252
 5317 00f8 B8EEC77A 		vcvt.f32.s32	s14, s14
 349:libDaisy/src/hid/disp/display.h ****                 {
 5318              		.loc 3 349 17 view .LVU1253
 5319 00fc 139A     		ldr	r2, [sp, #76]
 340:libDaisy/src/hid/disp/display.h ****                 t_syx  = start_y * t_x;
 5320              		.loc 3 340 24 view .LVU1254
 5321 00fe 66EE084A 		vmul.f32	s9, s12, s16
 5322              	.LVL359:
ARM GAS  C:\Users\yaman\AppData\Local\Temp\ccCu6FW5.s 			page 157


 342:libDaisy/src/hid/disp/display.h ****                 t_synx = start_y * -t_x;
 5323              		.loc 3 342 34 view .LVU1255
 5324 0102 F8EEE77A 		vcvt.f32.s32	s15, s15
 349:libDaisy/src/hid/disp/display.h ****                 {
 5325              		.loc 3 349 17 view .LVU1256
 5326 0106 B42A     		cmp	r2, #180
 343:libDaisy/src/hid/disp/display.h ****                 t_exy  = end_x * t_y;
 5327              		.loc 3 343 24 view .LVU1257
 5328 0108 27EE284A 		vmul.f32	s8, s14, s17
 341:libDaisy/src/hid/disp/display.h ****                 t_sxny = start_x * -t_y;
 5329              		.loc 3 341 24 view .LVU1258
 5330 010c F8EEE66A 		vcvt.f32.s32	s13, s13
 342:libDaisy/src/hid/disp/display.h ****                 t_synx = start_y * -t_x;
 5331              		.loc 3 342 24 view .LVU1259
 5332 0110 67EE885A 		vmul.f32	s11, s15, s16
 351:libDaisy/src/hid/disp/display.h ****                     d2 = (t_sxy - t_syx < 0 || t_exy - t_eyx > 0);
 5333              		.loc 3 351 33 view .LVU1260
 5334 0114 74EEC43A 		vsub.f32	s7, s9, s8
 341:libDaisy/src/hid/disp/display.h ****                 t_sxny = start_x * -t_y;
 5335              		.loc 3 341 24 view .LVU1261
 5336 0118 26EEA85A 		vmul.f32	s10, s13, s17
 5337              	.LVL360:
 344:libDaisy/src/hid/disp/display.h ****                 t_eyx  = end_y * t_x;
 5338              		.loc 3 344 24 view .LVU1262
 5339 011c 26EE096A 		vmul.f32	s12, s12, s18
 5340              	.LVL361:
 345:libDaisy/src/hid/disp/display.h ****                 t_exny = end_x * -t_y;
 5341              		.loc 3 345 24 view .LVU1263
 5342 0120 66EE806A 		vmul.f32	s13, s13, s0
 5343              	.LVL362:
 346:libDaisy/src/hid/disp/display.h ****                 t_eynx = end_y * -t_x;
 5344              		.loc 3 346 24 view .LVU1264
 5345 0124 67EE897A 		vmul.f32	s15, s15, s18
 5346              	.LVL363:
 347:libDaisy/src/hid/disp/display.h **** 
 5347              		.loc 3 347 24 view .LVU1265
 5348 0128 27EE007A 		vmul.f32	s14, s14, s0
 5349              	.LVL364:
 351:libDaisy/src/hid/disp/display.h ****                     d2 = (t_sxy - t_syx < 0 || t_exy - t_eyx > 0);
 5350              		.loc 3 351 46 view .LVU1266
 5351 012c F5EEC03A 		vcmpe.f32	s7, #0
 349:libDaisy/src/hid/disp/display.h ****                 {
 5352              		.loc 3 349 17 view .LVU1267
 5353 0130 40F3F280 		ble	.L351
 351:libDaisy/src/hid/disp/display.h ****                     d2 = (t_sxy - t_syx < 0 || t_exy - t_eyx > 0);
 5354              		.loc 3 351 46 view .LVU1268
 5355 0134 F1EE10FA 		vmrs	APSR_nzcv, FPSCR
 5356 0138 00F17F81 		bmi	.L377
 351:libDaisy/src/hid/disp/display.h ****                     d2 = (t_sxy - t_syx < 0 || t_exy - t_eyx > 0);
 5357              		.loc 3 351 55 discriminator 2 view .LVU1269
 5358 013c 76EE473A 		vsub.f32	s7, s12, s14
 352:libDaisy/src/hid/disp/display.h ****                     d3 = (t_sxny - t_syx < 0 || t_exny - t_eyx > 0);
 5359              		.loc 3 352 33 discriminator 2 view .LVU1270
 5360 0140 74EEC54A 		vsub.f32	s9, s9, s10
 5361              	.LVL365:
 351:libDaisy/src/hid/disp/display.h ****                     d2 = (t_sxy - t_syx < 0 || t_exy - t_eyx > 0);
 5362              		.loc 3 351 46 discriminator 2 view .LVU1271
ARM GAS  C:\Users\yaman\AppData\Local\Temp\ccCu6FW5.s 			page 158


 5363 0144 F5EEC03A 		vcmpe.f32	s7, #0
 5364 0148 F1EE10FA 		vmrs	APSR_nzcv, FPSCR
 352:libDaisy/src/hid/disp/display.h ****                     d3 = (t_sxny - t_syx < 0 || t_exny - t_eyx > 0);
 5365              		.loc 3 352 45 discriminator 2 view .LVU1272
 5366 014c F5EEC04A 		vcmpe.f32	s9, #0
 351:libDaisy/src/hid/disp/display.h ****                     d2 = (t_sxy - t_syx < 0 || t_exy - t_eyx > 0);
 5367              		.loc 3 351 46 discriminator 2 view .LVU1273
 5368 0150 CCBF     		ite	gt
 5369 0152 0122     		movgt	r2, #1
 5370 0154 0022     		movle	r2, #0
 5371              	.LVL366:
 352:libDaisy/src/hid/disp/display.h ****                     d3 = (t_sxny - t_syx < 0 || t_exny - t_eyx > 0);
 5372              		.loc 3 352 45 discriminator 2 view .LVU1274
 5373 0156 F1EE10FA 		vmrs	APSR_nzcv, FPSCR
 5374 015a 00F17781 		bmi	.L378
 5375              	.L420:
 352:libDaisy/src/hid/disp/display.h ****                     d3 = (t_sxny - t_syx < 0 || t_exny - t_eyx > 0);
 5376              		.loc 3 352 54 discriminator 2 view .LVU1275
 5377 015e 36EE666A 		vsub.f32	s12, s12, s13
 5378              	.LVL367:
 353:libDaisy/src/hid/disp/display.h ****                     d4 = (t_sxny - t_synx < 0 || t_exny - t_eynx > 0);
 5379              		.loc 3 353 34 discriminator 2 view .LVU1276
 5380 0162 35EEC55A 		vsub.f32	s10, s11, s10
 5381              	.LVL368:
 352:libDaisy/src/hid/disp/display.h ****                     d3 = (t_sxny - t_syx < 0 || t_exny - t_eyx > 0);
 5382              		.loc 3 352 45 discriminator 2 view .LVU1277
 5383 0166 B5EEC06A 		vcmpe.f32	s12, #0
 5384 016a F1EE10FA 		vmrs	APSR_nzcv, FPSCR
 353:libDaisy/src/hid/disp/display.h ****                     d4 = (t_sxny - t_synx < 0 || t_exny - t_eynx > 0);
 5385              		.loc 3 353 46 discriminator 2 view .LVU1278
 5386 016e B5EEC05A 		vcmpe.f32	s10, #0
 352:libDaisy/src/hid/disp/display.h ****                     d3 = (t_sxny - t_syx < 0 || t_exny - t_eyx > 0);
 5387              		.loc 3 352 45 discriminator 2 view .LVU1279
 5388 0172 CCBF     		ite	gt
 5389 0174 0121     		movgt	r1, #1
 5390 0176 0021     		movle	r1, #0
 5391              	.LVL369:
 353:libDaisy/src/hid/disp/display.h ****                     d4 = (t_sxny - t_synx < 0 || t_exny - t_eynx > 0);
 5392              		.loc 3 353 46 discriminator 2 view .LVU1280
 5393 0178 F1EE10FA 		vmrs	APSR_nzcv, FPSCR
 5394 017c 00F16F81 		bmi	.L379
 5395              	.L421:
 353:libDaisy/src/hid/disp/display.h ****                     d4 = (t_sxny - t_synx < 0 || t_exny - t_eynx > 0);
 5396              		.loc 3 353 56 discriminator 2 view .LVU1281
 5397 0180 77EEE66A 		vsub.f32	s13, s15, s13
 5398              	.LVL370:
 353:libDaisy/src/hid/disp/display.h ****                     d4 = (t_sxny - t_synx < 0 || t_exny - t_eynx > 0);
 5399              		.loc 3 353 46 discriminator 2 view .LVU1282
 5400 0184 F5EEC06A 		vcmpe.f32	s13, #0
 5401 0188 F1EE10FA 		vmrs	APSR_nzcv, FPSCR
 5402 018c CCBF     		ite	gt
 5403 018e 0127     		movgt	r7, #1
 5404              	.LVL371:
 353:libDaisy/src/hid/disp/display.h ****                     d4 = (t_sxny - t_synx < 0 || t_exny - t_eynx > 0);
 5405              		.loc 3 353 46 discriminator 2 view .LVU1283
 5406 0190 0027     		movle	r7, #0
 5407              	.L354:
ARM GAS  C:\Users\yaman\AppData\Local\Temp\ccCu6FW5.s 			page 159


 5408              	.LVL372:
 354:libDaisy/src/hid/disp/display.h ****                 }
 5409              		.loc 3 354 34 discriminator 6 view .LVU1284
 5410 0192 75EEC45A 		vsub.f32	s11, s11, s8
 5411              	.LVL373:
 354:libDaisy/src/hid/disp/display.h ****                 }
 5412              		.loc 3 354 47 discriminator 6 view .LVU1285
 5413 0196 F5EEC05A 		vcmpe.f32	s11, #0
 5414 019a F1EE10FA 		vmrs	APSR_nzcv, FPSCR
 5415 019e 00F14781 		bmi	.L380
 5416              	.L410:
 361:libDaisy/src/hid/disp/display.h ****                 }
 5417              		.loc 3 361 57 discriminator 1 view .LVU1286
 5418 01a2 77EEC77A 		vsub.f32	s15, s15, s14
 5419              	.LVL374:
 361:libDaisy/src/hid/disp/display.h ****                 }
 5420              		.loc 3 361 47 discriminator 1 view .LVU1287
 5421 01a6 F5EEC07A 		vcmpe.f32	s15, #0
 5422 01aa F1EE10FA 		vmrs	APSR_nzcv, FPSCR
 5423 01ae CCBF     		ite	gt
 5424 01b0 0124     		movgt	r4, #1
 5425              	.LVL375:
 361:libDaisy/src/hid/disp/display.h ****                 }
 5426              		.loc 3 361 47 discriminator 1 view .LVU1288
 5427 01b2 0024     		movle	r4, #0
 5428              	.LVL376:
 5429              	.L350:
 365:libDaisy/src/hid/disp/display.h ****                 ((ChildType*)(this))
 5430              		.loc 3 365 13 view .LVU1289
 5431 01b4 002A     		cmp	r2, #0
 5432 01b6 40F08A80 		bne	.L411
 5433              	.L362:
 368:libDaisy/src/hid/disp/display.h ****                 ((ChildType*)(this))
 5434              		.loc 3 368 13 view .LVU1290
 5435 01ba 0029     		cmp	r1, #0
 5436 01bc 64D1     		bne	.L412
 5437              	.L364:
 371:libDaisy/src/hid/disp/display.h ****                 ((ChildType*)(this))
 5438              		.loc 3 371 13 view .LVU1291
 5439 01be BFB9     		cbnz	r7, .L413
 5440              	.L366:
 374:libDaisy/src/hid/disp/display.h ****                 ((ChildType*)(this))
 5441              		.loc 3 374 13 view .LVU1292
 5442 01c0 C4BB     		cbnz	r4, .L414
 5443              	.L368:
 5444              	.LVL377:
 379:libDaisy/src/hid/disp/display.h ****             {
 5445              		.loc 3 379 13 view .LVU1293
 5446 01c2 9C45     		cmp	ip, r3
 5447 01c4 58DB     		blt	.L385
 5448              	.L416:
 381:libDaisy/src/hid/disp/display.h ****                 err = err + (t_y * 2 + 1);
 5449              		.loc 3 381 17 view .LVU1294
 5450 01c6 0CF1010C 		add	ip, ip, #1
 5451              	.LVL378:
 382:libDaisy/src/hid/disp/display.h ****                 if(-t_x == t_y && e2 <= t_x)
 5452              		.loc 3 382 38 view .LVU1295
ARM GAS  C:\Users\yaman\AppData\Local\Temp\ccCu6FW5.s 			page 160


 5453 01ca 03EB4C0E 		add	lr, r3, ip, lsl #1
 383:libDaisy/src/hid/disp/display.h ****                 {
 5454              		.loc 3 383 17 view .LVU1296
 5455 01ce 1CEB000F 		cmn	ip, r0
 382:libDaisy/src/hid/disp/display.h ****                 if(-t_x == t_y && e2 <= t_x)
 5456              		.loc 3 382 21 view .LVU1297
 5457 01d2 0EF1010E 		add	lr, lr, #1
 5458              	.LVL379:
 383:libDaisy/src/hid/disp/display.h ****                 {
 5459              		.loc 3 383 17 view .LVU1298
 5460 01d6 00F0C080 		beq	.L415
 5461              	.LVL380:
 5462              	.L370:
 388:libDaisy/src/hid/disp/display.h ****             {
 5463              		.loc 3 388 13 view .LVU1299
 5464 01da 9842     		cmp	r0, r3
 5465 01dc 4FDB     		blt	.L371
 5466              	.L386:
 388:libDaisy/src/hid/disp/display.h ****             {
 5467              		.loc 3 388 13 view .LVU1300
 5468 01de 7346     		mov	r3, lr
 5469              	.LVL381:
 5470              	.L372:
 393:libDaisy/src/hid/disp/display.h ****     }
 5471              		.loc 3 393 21 is_stmt 1 view .LVU1301
 5472 01e0 0028     		cmp	r0, #0
 5473 01e2 7FF779AF 		ble	.L374
 5474              	.LVL382:
 5475              	.L345:
 394:libDaisy/src/hid/disp/display.h **** 
 5476              		.loc 3 394 5 is_stmt 0 view .LVU1302
 5477 01e6 03B0     		add	sp, sp, #12
 5478              		.cfi_remember_state
 5479              		.cfi_def_cfa_offset 60
 5480              		@ sp needed
 5481 01e8 BDEC068B 		vldm	sp!, {d8-d10}
 5482              		.cfi_restore 84
 5483              		.cfi_restore 85
 5484              		.cfi_restore 82
 5485              		.cfi_restore 83
 5486              		.cfi_restore 80
 5487              		.cfi_restore 81
 5488              		.cfi_def_cfa_offset 36
 5489              	.LVL383:
 394:libDaisy/src/hid/disp/display.h **** 
 5490              		.loc 3 394 5 view .LVU1303
 5491 01ec BDE8F08F 		pop	{r4, r5, r6, r7, r8, r9, r10, fp, pc}
 5492              	.LVL384:
 5493              	.L413:
 5494              		.cfi_restore_state
 373:libDaisy/src/hid/disp/display.h ****             if(d4)
 5495              		.loc 3 373 43 view .LVU1304
 5496 01f0 009D     		ldr	r5, [sp]
 5497 01f2 A6EB0C0E 		sub	lr, r6, ip
 5498 01f6 00EB050A 		add	r10, r0, r5
 5499              	.LVL385:
 5500              	.LBB1632:
ARM GAS  C:\Users\yaman\AppData\Local\Temp\ccCu6FW5.s 			page 161


 5501              	.LBI1632:
  42:libDaisy/src/hid/disp/oled_display.h ****     {
 5502              		.loc 2 42 10 is_stmt 1 view .LVU1305
 5503              	.LBB1633:
 5504              	.LBI1633:
 239:libDaisy/src/dev/oled_ssd130x.h ****     {
 5505              		.loc 13 239 10 view .LVU1306
 5506              	.LBB1634:
 241:libDaisy/src/dev/oled_ssd130x.h ****             return;
 5507              		.loc 13 241 9 is_stmt 0 view .LVU1307
 5508 01fa BAF13F0F 		cmp	r10, #63
 5509 01fe DFD8     		bhi	.L366
 5510 0200 BEF11F0F 		cmp	lr, #31
 5511 0204 DCD8     		bhi	.L366
 244:libDaisy/src/dev/oled_ssd130x.h ****         else
 5512              		.loc 13 244 28 view .LVU1308
 5513 0206 4FEADE0B 		lsr	fp, lr, #3
 243:libDaisy/src/dev/oled_ssd130x.h ****             buffer_[x + (y / 8) * width] |= (1 << (y % 8));
 5514              		.loc 13 243 9 view .LVU1309
 5515 020a 019D     		ldr	r5, [sp, #4]
 244:libDaisy/src/dev/oled_ssd130x.h ****         else
 5516              		.loc 13 244 42 view .LVU1310
 5517 020c 0AEB8B1A 		add	r10, r10, fp, lsl #6
 5518              	.LVL386:
 243:libDaisy/src/dev/oled_ssd130x.h ****             buffer_[x + (y / 8) * width] |= (1 << (y % 8));
 5519              		.loc 13 243 9 view .LVU1311
 5520 0210 002D     		cmp	r5, #0
 5521 0212 00F0B180 		beq	.L367
 244:libDaisy/src/dev/oled_ssd130x.h ****         else
 5522              		.loc 13 244 54 view .LVU1312
 5523 0216 0EF0070B 		and	fp, lr, #7
 244:libDaisy/src/dev/oled_ssd130x.h ****         else
 5524              		.loc 13 244 42 view .LVU1313
 5525 021a C244     		add	r10, r10, r8
 244:libDaisy/src/dev/oled_ssd130x.h ****         else
 5526              		.loc 13 244 48 view .LVU1314
 5527 021c 4FF0010E 		mov	lr, #1
 5528              	.LVL387:
 244:libDaisy/src/dev/oled_ssd130x.h ****         else
 5529              		.loc 13 244 48 view .LVU1315
 5530 0220 0EFA0BFE 		lsl	lr, lr, fp
 244:libDaisy/src/dev/oled_ssd130x.h ****         else
 5531              		.loc 13 244 42 view .LVU1316
 5532 0224 9AF810B0 		ldrb	fp, [r10, #16]	@ zero_extendqisi2
 5533 0228 4EEA0B0E 		orr	lr, lr, fp
 5534 022c 8AF810E0 		strb	lr, [r10, #16]
 5535              	.LVL388:
 244:libDaisy/src/dev/oled_ssd130x.h ****         else
 5536              		.loc 13 244 42 view .LVU1317
 5537              	.LBE1634:
 5538              	.LBE1633:
 5539              	.LBE1632:
 374:libDaisy/src/hid/disp/display.h ****                 ((ChildType*)(this))
 5540              		.loc 3 374 13 view .LVU1318
 5541 0230 002C     		cmp	r4, #0
 5542 0232 C6D0     		beq	.L368
 5543              	.L414:
ARM GAS  C:\Users\yaman\AppData\Local\Temp\ccCu6FW5.s 			page 162


 376:libDaisy/src/hid/disp/display.h **** 
 5544              		.loc 3 376 43 view .LVU1319
 5545 0234 009D     		ldr	r5, [sp]
 5546 0236 A6EB0C0E 		sub	lr, r6, ip
 5547 023a A5EB000A 		sub	r10, r5, r0
 5548              	.LVL389:
 5549              	.LBB1639:
 5550              	.LBI1639:
  42:libDaisy/src/hid/disp/oled_display.h ****     {
 5551              		.loc 2 42 10 is_stmt 1 view .LVU1320
 5552              	.LBB1640:
 5553              	.LBI1640:
 239:libDaisy/src/dev/oled_ssd130x.h ****     {
 5554              		.loc 13 239 10 view .LVU1321
 5555              	.LBB1641:
 241:libDaisy/src/dev/oled_ssd130x.h ****             return;
 5556              		.loc 13 241 9 is_stmt 0 view .LVU1322
 5557 023e BAF13F0F 		cmp	r10, #63
 5558 0242 BED8     		bhi	.L368
 5559 0244 BEF11F0F 		cmp	lr, #31
 5560 0248 BBD8     		bhi	.L368
 244:libDaisy/src/dev/oled_ssd130x.h ****         else
 5561              		.loc 13 244 28 view .LVU1323
 5562 024a 4FEADE0B 		lsr	fp, lr, #3
 243:libDaisy/src/dev/oled_ssd130x.h ****             buffer_[x + (y / 8) * width] |= (1 << (y % 8));
 5563              		.loc 13 243 9 view .LVU1324
 5564 024e 019D     		ldr	r5, [sp, #4]
 244:libDaisy/src/dev/oled_ssd130x.h ****         else
 5565              		.loc 13 244 42 view .LVU1325
 5566 0250 0AEB8B1A 		add	r10, r10, fp, lsl #6
 5567              	.LVL390:
 243:libDaisy/src/dev/oled_ssd130x.h ****             buffer_[x + (y / 8) * width] |= (1 << (y % 8));
 5568              		.loc 13 243 9 view .LVU1326
 5569 0254 002D     		cmp	r5, #0
 5570 0256 00F0AE80 		beq	.L369
 244:libDaisy/src/dev/oled_ssd130x.h ****         else
 5571              		.loc 13 244 54 view .LVU1327
 5572 025a 0EF0070B 		and	fp, lr, #7
 244:libDaisy/src/dev/oled_ssd130x.h ****         else
 5573              		.loc 13 244 42 view .LVU1328
 5574 025e C244     		add	r10, r10, r8
 244:libDaisy/src/dev/oled_ssd130x.h ****         else
 5575              		.loc 13 244 48 view .LVU1329
 5576 0260 4FF0010E 		mov	lr, #1
 5577              	.LVL391:
 244:libDaisy/src/dev/oled_ssd130x.h ****         else
 5578              		.loc 13 244 48 view .LVU1330
 5579              	.LBE1641:
 5580              	.LBE1640:
 5581              	.LBE1639:
 379:libDaisy/src/hid/disp/display.h ****             {
 5582              		.loc 3 379 13 view .LVU1331
 5583 0264 9C45     		cmp	ip, r3
 5584              	.LBB1648:
 5585              	.LBB1646:
 5586              	.LBB1644:
 244:libDaisy/src/dev/oled_ssd130x.h ****         else
ARM GAS  C:\Users\yaman\AppData\Local\Temp\ccCu6FW5.s 			page 163


 5587              		.loc 13 244 48 view .LVU1332
 5588 0266 0EFA0BFE 		lsl	lr, lr, fp
 244:libDaisy/src/dev/oled_ssd130x.h ****         else
 5589              		.loc 13 244 42 view .LVU1333
 5590 026a 9AF810B0 		ldrb	fp, [r10, #16]	@ zero_extendqisi2
 5591 026e 4EEA0B0E 		orr	lr, lr, fp
 5592 0272 8AF810E0 		strb	lr, [r10, #16]
 5593              	.LVL392:
 244:libDaisy/src/dev/oled_ssd130x.h ****         else
 5594              		.loc 13 244 42 view .LVU1334
 5595              	.LBE1644:
 5596              	.LBE1646:
 5597              	.LBE1648:
 379:libDaisy/src/hid/disp/display.h ****             {
 5598              		.loc 3 379 13 view .LVU1335
 5599 0276 A6DA     		bge	.L416
 5600              	.L385:
 388:libDaisy/src/hid/disp/display.h ****             {
 5601              		.loc 3 388 13 view .LVU1336
 5602 0278 9842     		cmp	r0, r3
 5603 027a 9E46     		mov	lr, r3
 5604              	.LVL393:
 388:libDaisy/src/hid/disp/display.h ****             {
 5605              		.loc 3 388 13 view .LVU1337
 5606 027c AFDA     		bge	.L386
 5607              	.LVL394:
 5608              	.L371:
 390:libDaisy/src/hid/disp/display.h ****                 err = err + (t_x * 2 + 1);
 5609              		.loc 3 390 17 view .LVU1338
 5610 027e 0130     		adds	r0, r0, #1
 5611              	.LVL395:
 391:libDaisy/src/hid/disp/display.h ****             }
 5612              		.loc 3 391 38 view .LVU1339
 5613 0280 0EEB4003 		add	r3, lr, r0, lsl #1
 391:libDaisy/src/hid/disp/display.h ****             }
 5614              		.loc 3 391 21 view .LVU1340
 5615 0284 0133     		adds	r3, r3, #1
 5616              	.LVL396:
 391:libDaisy/src/hid/disp/display.h ****             }
 5617              		.loc 3 391 21 view .LVU1341
 5618 0286 ABE7     		b	.L372
 5619              	.L412:
 370:libDaisy/src/hid/disp/display.h ****             if(d3)
 5620              		.loc 3 370 43 view .LVU1342
 5621 0288 009D     		ldr	r5, [sp]
 5622 028a 0CEB060E 		add	lr, ip, r6
 5623 028e 00EB050A 		add	r10, r0, r5
 5624              	.LVL397:
 5625              	.LBB1649:
 5626              	.LBI1649:
  42:libDaisy/src/hid/disp/oled_display.h ****     {
 5627              		.loc 2 42 10 is_stmt 1 view .LVU1343
 5628              	.LBB1650:
 5629              	.LBI1650:
 239:libDaisy/src/dev/oled_ssd130x.h ****     {
 5630              		.loc 13 239 10 view .LVU1344
 5631              	.LBB1651:
ARM GAS  C:\Users\yaman\AppData\Local\Temp\ccCu6FW5.s 			page 164


 241:libDaisy/src/dev/oled_ssd130x.h ****             return;
 5632              		.loc 13 241 9 is_stmt 0 view .LVU1345
 5633 0292 BAF13F0F 		cmp	r10, #63
 5634 0296 92D8     		bhi	.L364
 5635 0298 BEF11F0F 		cmp	lr, #31
 5636 029c 8FD8     		bhi	.L364
 244:libDaisy/src/dev/oled_ssd130x.h ****         else
 5637              		.loc 13 244 28 view .LVU1346
 5638 029e 4FEADE0B 		lsr	fp, lr, #3
 243:libDaisy/src/dev/oled_ssd130x.h ****             buffer_[x + (y / 8) * width] |= (1 << (y % 8));
 5639              		.loc 13 243 9 view .LVU1347
 5640 02a2 019D     		ldr	r5, [sp, #4]
 244:libDaisy/src/dev/oled_ssd130x.h ****         else
 5641              		.loc 13 244 42 view .LVU1348
 5642 02a4 0AEB8B1A 		add	r10, r10, fp, lsl #6
 5643              	.LVL398:
 243:libDaisy/src/dev/oled_ssd130x.h ****             buffer_[x + (y / 8) * width] |= (1 << (y % 8));
 5644              		.loc 13 243 9 view .LVU1349
 5645 02a8 002D     		cmp	r5, #0
 5646 02aa 73D0     		beq	.L365
 244:libDaisy/src/dev/oled_ssd130x.h ****         else
 5647              		.loc 13 244 54 view .LVU1350
 5648 02ac 0EF0070B 		and	fp, lr, #7
 244:libDaisy/src/dev/oled_ssd130x.h ****         else
 5649              		.loc 13 244 42 view .LVU1351
 5650 02b0 C244     		add	r10, r10, r8
 244:libDaisy/src/dev/oled_ssd130x.h ****         else
 5651              		.loc 13 244 48 view .LVU1352
 5652 02b2 4FF0010E 		mov	lr, #1
 5653              	.LVL399:
 244:libDaisy/src/dev/oled_ssd130x.h ****         else
 5654              		.loc 13 244 48 view .LVU1353
 5655 02b6 0EFA0BFE 		lsl	lr, lr, fp
 244:libDaisy/src/dev/oled_ssd130x.h ****         else
 5656              		.loc 13 244 42 view .LVU1354
 5657 02ba 9AF810B0 		ldrb	fp, [r10, #16]	@ zero_extendqisi2
 5658 02be 4EEA0B0E 		orr	lr, lr, fp
 5659 02c2 8AF810E0 		strb	lr, [r10, #16]
 5660              	.LVL400:
 244:libDaisy/src/dev/oled_ssd130x.h ****         else
 5661              		.loc 13 244 42 view .LVU1355
 5662              	.LBE1651:
 5663              	.LBE1650:
 5664              	.LBE1649:
 371:libDaisy/src/hid/disp/display.h ****                 ((ChildType*)(this))
 5665              		.loc 3 371 13 view .LVU1356
 5666 02c6 002F     		cmp	r7, #0
 5667 02c8 3FF47AAF 		beq	.L366
 5668 02cc 90E7     		b	.L413
 5669              	.L411:
 367:libDaisy/src/hid/disp/display.h ****             if(d2)
 5670              		.loc 3 367 43 view .LVU1357
 5671 02ce 009D     		ldr	r5, [sp]
 5672 02d0 0CEB060E 		add	lr, ip, r6
 5673 02d4 A5EB000A 		sub	r10, r5, r0
 5674              	.LVL401:
 5675              	.LBB1656:
ARM GAS  C:\Users\yaman\AppData\Local\Temp\ccCu6FW5.s 			page 165


 5676              	.LBI1656:
  42:libDaisy/src/hid/disp/oled_display.h ****     {
 5677              		.loc 2 42 10 is_stmt 1 view .LVU1358
 5678              	.LBB1657:
 5679              	.LBI1657:
 239:libDaisy/src/dev/oled_ssd130x.h ****     {
 5680              		.loc 13 239 10 view .LVU1359
 5681              	.LBB1658:
 241:libDaisy/src/dev/oled_ssd130x.h ****             return;
 5682              		.loc 13 241 9 is_stmt 0 view .LVU1360
 5683 02d8 BAF13F0F 		cmp	r10, #63
 5684 02dc 3FF66DAF 		bhi	.L362
 5685 02e0 BEF11F0F 		cmp	lr, #31
 5686 02e4 3FF669AF 		bhi	.L362
 244:libDaisy/src/dev/oled_ssd130x.h ****         else
 5687              		.loc 13 244 28 view .LVU1361
 5688 02e8 4FEADE0B 		lsr	fp, lr, #3
 243:libDaisy/src/dev/oled_ssd130x.h ****             buffer_[x + (y / 8) * width] |= (1 << (y % 8));
 5689              		.loc 13 243 9 view .LVU1362
 5690 02ec 019D     		ldr	r5, [sp, #4]
 244:libDaisy/src/dev/oled_ssd130x.h ****         else
 5691              		.loc 13 244 42 view .LVU1363
 5692 02ee 0AEB8B1A 		add	r10, r10, fp, lsl #6
 5693              	.LVL402:
 243:libDaisy/src/dev/oled_ssd130x.h ****             buffer_[x + (y / 8) * width] |= (1 << (y % 8));
 5694              		.loc 13 243 9 view .LVU1364
 5695 02f2 002D     		cmp	r5, #0
 5696 02f4 6DD0     		beq	.L363
 244:libDaisy/src/dev/oled_ssd130x.h ****         else
 5697              		.loc 13 244 54 view .LVU1365
 5698 02f6 0EF0070B 		and	fp, lr, #7
 244:libDaisy/src/dev/oled_ssd130x.h ****         else
 5699              		.loc 13 244 42 view .LVU1366
 5700 02fa C244     		add	r10, r10, r8
 244:libDaisy/src/dev/oled_ssd130x.h ****         else
 5701              		.loc 13 244 48 view .LVU1367
 5702 02fc 4FF0010E 		mov	lr, #1
 5703              	.LVL403:
 244:libDaisy/src/dev/oled_ssd130x.h ****         else
 5704              		.loc 13 244 48 view .LVU1368
 5705 0300 0EFA0BFE 		lsl	lr, lr, fp
 244:libDaisy/src/dev/oled_ssd130x.h ****         else
 5706              		.loc 13 244 42 view .LVU1369
 5707 0304 9AF810B0 		ldrb	fp, [r10, #16]	@ zero_extendqisi2
 5708 0308 4EEA0B0E 		orr	lr, lr, fp
 5709 030c 8AF810E0 		strb	lr, [r10, #16]
 5710              	.LVL404:
 244:libDaisy/src/dev/oled_ssd130x.h ****         else
 5711              		.loc 13 244 42 view .LVU1370
 5712              	.LBE1658:
 5713              	.LBE1657:
 5714              	.LBE1656:
 368:libDaisy/src/hid/disp/display.h ****                 ((ChildType*)(this))
 5715              		.loc 3 368 13 view .LVU1371
 5716 0310 0029     		cmp	r1, #0
 5717 0312 3FF454AF 		beq	.L364
 5718 0316 B7E7     		b	.L412
ARM GAS  C:\Users\yaman\AppData\Local\Temp\ccCu6FW5.s 			page 166


 5719              	.LVL405:
 5720              	.L351:
 358:libDaisy/src/hid/disp/display.h ****                     d2 = (t_sxy - t_syx < 0 && t_exy - t_eyx > 0);
 5721              		.loc 3 358 46 view .LVU1372
 5722 0318 F1EE10FA 		vmrs	APSR_nzcv, FPSCR
 5723 031c 7ED4     		bmi	.L417
 5724 031e 4A46     		mov	r2, r9
 5725              	.L355:
 5726              	.LVL406:
 359:libDaisy/src/hid/disp/display.h ****                     d3 = (t_sxny - t_syx < 0 && t_exny - t_eyx > 0);
 5727              		.loc 3 359 33 discriminator 6 view .LVU1373
 5728 0320 74EEC54A 		vsub.f32	s9, s9, s10
 5729              	.LVL407:
 359:libDaisy/src/hid/disp/display.h ****                     d3 = (t_sxny - t_syx < 0 && t_exny - t_eyx > 0);
 5730              		.loc 3 359 45 discriminator 6 view .LVU1374
 5731 0324 F5EEC04A 		vcmpe.f32	s9, #0
 5732 0328 F1EE10FA 		vmrs	APSR_nzcv, FPSCR
 5733 032c 6CD4     		bmi	.L418
 359:libDaisy/src/hid/disp/display.h ****                     d3 = (t_sxny - t_syx < 0 && t_exny - t_eyx > 0);
 5734              		.loc 3 359 45 view .LVU1375
 5735 032e 0021     		movs	r1, #0
 5736              	.LVL408:
 5737              	.L357:
 360:libDaisy/src/hid/disp/display.h ****                     d4 = (t_sxny - t_synx < 0 && t_exny - t_eynx > 0);
 5738              		.loc 3 360 34 discriminator 6 view .LVU1376
 5739 0330 35EEC55A 		vsub.f32	s10, s11, s10
 5740              	.LVL409:
 360:libDaisy/src/hid/disp/display.h ****                     d4 = (t_sxny - t_synx < 0 && t_exny - t_eynx > 0);
 5741              		.loc 3 360 46 discriminator 6 view .LVU1377
 5742 0334 B5EEC05A 		vcmpe.f32	s10, #0
 5743 0338 F1EE10FA 		vmrs	APSR_nzcv, FPSCR
 5744 033c 5AD4     		bmi	.L419
 360:libDaisy/src/hid/disp/display.h ****                     d4 = (t_sxny - t_synx < 0 && t_exny - t_eynx > 0);
 5745              		.loc 3 360 46 view .LVU1378
 5746 033e 0027     		movs	r7, #0
 5747              	.LVL410:
 5748              	.L359:
 361:libDaisy/src/hid/disp/display.h ****                 }
 5749              		.loc 3 361 34 discriminator 6 view .LVU1379
 5750 0340 75EEC45A 		vsub.f32	s11, s11, s8
 5751              	.LVL411:
 361:libDaisy/src/hid/disp/display.h ****                 }
 5752              		.loc 3 361 47 discriminator 6 view .LVU1380
 5753 0344 F5EEC05A 		vcmpe.f32	s11, #0
 5754 0348 F1EE10FA 		vmrs	APSR_nzcv, FPSCR
 5755 034c 3FF529AF 		bmi	.L410
 361:libDaisy/src/hid/disp/display.h ****                 }
 5756              		.loc 3 361 47 view .LVU1381
 5757 0350 0024     		movs	r4, #0
 5758              	.LVL412:
 365:libDaisy/src/hid/disp/display.h ****                 ((ChildType*)(this))
 5759              		.loc 3 365 13 view .LVU1382
 5760 0352 002A     		cmp	r2, #0
 5761 0354 3FF431AF 		beq	.L362
 5762 0358 B9E7     		b	.L411
 5763              	.LVL413:
 5764              	.L415:
ARM GAS  C:\Users\yaman\AppData\Local\Temp\ccCu6FW5.s 			page 167


 383:libDaisy/src/hid/disp/display.h ****                 {
 5765              		.loc 3 383 32 discriminator 1 view .LVU1383
 5766 035a 9842     		cmp	r0, r3
 5767 035c 8FDB     		blt	.L371
 385:libDaisy/src/hid/disp/display.h ****                 }
 5768              		.loc 3 385 24 view .LVU1384
 5769 035e 0023     		movs	r3, #0
 5770              	.LVL414:
 385:libDaisy/src/hid/disp/display.h ****                 }
 5771              		.loc 3 385 24 view .LVU1385
 5772 0360 3BE7     		b	.L370
 5773              	.L423:
 5774 0362 00BFAFF3 		.align	3
 5774      0080
 5775              	.L422:
 5776 0368 7A008BFC 		.word	-57999238
 5777 036c FA210940 		.word	1074340346
 5778 0370 00000000 		.word	0
 5779 0374 00806640 		.word	1080459264
 5780              	.LVL415:
 5781              	.L367:
 5782              	.LBB1663:
 5783              	.LBB1638:
 5784              	.LBB1637:
 5785              	.LBB1635:
 5786              	.LBI1635:
 239:libDaisy/src/dev/oled_ssd130x.h ****     {
 5787              		.loc 13 239 10 is_stmt 1 view .LVU1386
 5788              	.LBB1636:
 246:libDaisy/src/dev/oled_ssd130x.h ****     }
 5789              		.loc 13 246 42 is_stmt 0 view .LVU1387
 5790 0378 C244     		add	r10, r10, r8
 5791              	.LVL416:
 246:libDaisy/src/dev/oled_ssd130x.h ****     }
 5792              		.loc 13 246 49 view .LVU1388
 5793 037a 4FF0010B 		mov	fp, #1
 5794              	.LVL417:
 246:libDaisy/src/dev/oled_ssd130x.h ****     }
 5795              		.loc 13 246 55 view .LVU1389
 5796 037e 0EF0070E 		and	lr, lr, #7
 5797              	.LVL418:
 246:libDaisy/src/dev/oled_ssd130x.h ****     }
 5798              		.loc 13 246 49 view .LVU1390
 5799 0382 0BFA0EFE 		lsl	lr, fp, lr
 246:libDaisy/src/dev/oled_ssd130x.h ****     }
 5800              		.loc 13 246 42 view .LVU1391
 5801 0386 9AF810B0 		ldrb	fp, [r10, #16]	@ zero_extendqisi2
 5802 038a 2BEA0E0E 		bic	lr, fp, lr
 5803 038e 8AF810E0 		strb	lr, [r10, #16]
 5804              	.LVL419:
 246:libDaisy/src/dev/oled_ssd130x.h ****     }
 5805              		.loc 13 246 42 view .LVU1392
 5806 0392 15E7     		b	.L366
 5807              	.LVL420:
 5808              	.L365:
 246:libDaisy/src/dev/oled_ssd130x.h ****     }
 5809              		.loc 13 246 42 view .LVU1393
ARM GAS  C:\Users\yaman\AppData\Local\Temp\ccCu6FW5.s 			page 168


 5810              	.LBE1636:
 5811              	.LBE1635:
 5812              	.LBE1637:
 5813              	.LBE1638:
 5814              	.LBE1663:
 5815              	.LBB1664:
 5816              	.LBB1655:
 5817              	.LBB1654:
 5818              	.LBB1652:
 5819              	.LBI1652:
 239:libDaisy/src/dev/oled_ssd130x.h ****     {
 5820              		.loc 13 239 10 is_stmt 1 view .LVU1394
 5821              	.LBB1653:
 246:libDaisy/src/dev/oled_ssd130x.h ****     }
 5822              		.loc 13 246 42 is_stmt 0 view .LVU1395
 5823 0394 C244     		add	r10, r10, r8
 5824              	.LVL421:
 246:libDaisy/src/dev/oled_ssd130x.h ****     }
 5825              		.loc 13 246 49 view .LVU1396
 5826 0396 4FF0010B 		mov	fp, #1
 5827              	.LVL422:
 246:libDaisy/src/dev/oled_ssd130x.h ****     }
 5828              		.loc 13 246 55 view .LVU1397
 5829 039a 0EF0070E 		and	lr, lr, #7
 5830              	.LVL423:
 246:libDaisy/src/dev/oled_ssd130x.h ****     }
 5831              		.loc 13 246 49 view .LVU1398
 5832 039e 0BFA0EFE 		lsl	lr, fp, lr
 246:libDaisy/src/dev/oled_ssd130x.h ****     }
 5833              		.loc 13 246 42 view .LVU1399
 5834 03a2 9AF810B0 		ldrb	fp, [r10, #16]	@ zero_extendqisi2
 5835 03a6 2BEA0E0E 		bic	lr, fp, lr
 5836 03aa 8AF810E0 		strb	lr, [r10, #16]
 5837              	.LVL424:
 246:libDaisy/src/dev/oled_ssd130x.h ****     }
 5838              		.loc 13 246 42 view .LVU1400
 5839              	.LBE1653:
 5840              	.LBE1652:
 5841              	.LBE1654:
 5842              	.LBE1655:
 5843              	.LBE1664:
 371:libDaisy/src/hid/disp/display.h ****                 ((ChildType*)(this))
 5844              		.loc 3 371 13 view .LVU1401
 5845 03ae 002F     		cmp	r7, #0
 5846 03b0 3FF406AF 		beq	.L366
 5847 03b4 1CE7     		b	.L413
 5848              	.LVL425:
 5849              	.L369:
 5850              	.LBB1665:
 5851              	.LBB1647:
 5852              	.LBB1645:
 5853              	.LBB1642:
 5854              	.LBI1642:
 239:libDaisy/src/dev/oled_ssd130x.h ****     {
 5855              		.loc 13 239 10 is_stmt 1 view .LVU1402
 5856              	.LBB1643:
 246:libDaisy/src/dev/oled_ssd130x.h ****     }
ARM GAS  C:\Users\yaman\AppData\Local\Temp\ccCu6FW5.s 			page 169


 5857              		.loc 13 246 42 is_stmt 0 view .LVU1403
 5858 03b6 C244     		add	r10, r10, r8
 5859              	.LVL426:
 246:libDaisy/src/dev/oled_ssd130x.h ****     }
 5860              		.loc 13 246 49 view .LVU1404
 5861 03b8 4FF0010B 		mov	fp, #1
 5862              	.LVL427:
 246:libDaisy/src/dev/oled_ssd130x.h ****     }
 5863              		.loc 13 246 55 view .LVU1405
 5864 03bc 0EF0070E 		and	lr, lr, #7
 5865              	.LVL428:
 246:libDaisy/src/dev/oled_ssd130x.h ****     }
 5866              		.loc 13 246 49 view .LVU1406
 5867 03c0 0BFA0EFE 		lsl	lr, fp, lr
 246:libDaisy/src/dev/oled_ssd130x.h ****     }
 5868              		.loc 13 246 42 view .LVU1407
 5869 03c4 9AF810B0 		ldrb	fp, [r10, #16]	@ zero_extendqisi2
 5870 03c8 2BEA0E0E 		bic	lr, fp, lr
 5871 03cc 8AF810E0 		strb	lr, [r10, #16]
 5872              	.LVL429:
 246:libDaisy/src/dev/oled_ssd130x.h ****     }
 5873              		.loc 13 246 42 view .LVU1408
 5874 03d0 F7E6     		b	.L368
 5875              	.LVL430:
 5876              	.L363:
 246:libDaisy/src/dev/oled_ssd130x.h ****     }
 5877              		.loc 13 246 42 view .LVU1409
 5878              	.LBE1643:
 5879              	.LBE1642:
 5880              	.LBE1645:
 5881              	.LBE1647:
 5882              	.LBE1665:
 5883              	.LBB1666:
 5884              	.LBB1662:
 5885              	.LBB1661:
 5886              	.LBB1659:
 5887              	.LBI1659:
 239:libDaisy/src/dev/oled_ssd130x.h ****     {
 5888              		.loc 13 239 10 is_stmt 1 view .LVU1410
 5889              	.LBB1660:
 246:libDaisy/src/dev/oled_ssd130x.h ****     }
 5890              		.loc 13 246 42 is_stmt 0 view .LVU1411
 5891 03d2 C244     		add	r10, r10, r8
 5892              	.LVL431:
 246:libDaisy/src/dev/oled_ssd130x.h ****     }
 5893              		.loc 13 246 49 view .LVU1412
 5894 03d4 4FF0010B 		mov	fp, #1
 5895              	.LVL432:
 246:libDaisy/src/dev/oled_ssd130x.h ****     }
 5896              		.loc 13 246 55 view .LVU1413
 5897 03d8 0EF0070E 		and	lr, lr, #7
 5898              	.LVL433:
 246:libDaisy/src/dev/oled_ssd130x.h ****     }
 5899              		.loc 13 246 49 view .LVU1414
 5900 03dc 0BFA0EFE 		lsl	lr, fp, lr
 246:libDaisy/src/dev/oled_ssd130x.h ****     }
 5901              		.loc 13 246 42 view .LVU1415
ARM GAS  C:\Users\yaman\AppData\Local\Temp\ccCu6FW5.s 			page 170


 5902 03e0 9AF810B0 		ldrb	fp, [r10, #16]	@ zero_extendqisi2
 5903 03e4 2BEA0E0E 		bic	lr, fp, lr
 5904 03e8 8AF810E0 		strb	lr, [r10, #16]
 5905              	.LVL434:
 246:libDaisy/src/dev/oled_ssd130x.h ****     }
 5906              		.loc 13 246 42 view .LVU1416
 5907              	.LBE1660:
 5908              	.LBE1659:
 5909              	.LBE1661:
 5910              	.LBE1662:
 5911              	.LBE1666:
 368:libDaisy/src/hid/disp/display.h ****                 ((ChildType*)(this))
 5912              		.loc 3 368 13 view .LVU1417
 5913 03ec 0029     		cmp	r1, #0
 5914 03ee 3FF4E6AE 		beq	.L364
 5915 03f2 49E7     		b	.L412
 5916              	.LVL435:
 5917              	.L419:
 360:libDaisy/src/hid/disp/display.h ****                     d4 = (t_sxny - t_synx < 0 && t_exny - t_eynx > 0);
 5918              		.loc 3 360 56 discriminator 1 view .LVU1418
 5919 03f4 77EEE66A 		vsub.f32	s13, s15, s13
 5920              	.LVL436:
 360:libDaisy/src/hid/disp/display.h ****                     d4 = (t_sxny - t_synx < 0 && t_exny - t_eynx > 0);
 5921              		.loc 3 360 46 discriminator 1 view .LVU1419
 5922 03f8 F5EEC06A 		vcmpe.f32	s13, #0
 5923 03fc F1EE10FA 		vmrs	APSR_nzcv, FPSCR
 5924 0400 CCBF     		ite	gt
 5925 0402 0127     		movgt	r7, #1
 5926              	.LVL437:
 360:libDaisy/src/hid/disp/display.h ****                     d4 = (t_sxny - t_synx < 0 && t_exny - t_eynx > 0);
 5927              		.loc 3 360 46 discriminator 1 view .LVU1420
 5928 0404 0027     		movle	r7, #0
 5929 0406 9BE7     		b	.L359
 5930              	.LVL438:
 5931              	.L418:
 359:libDaisy/src/hid/disp/display.h ****                     d3 = (t_sxny - t_syx < 0 && t_exny - t_eyx > 0);
 5932              		.loc 3 359 54 discriminator 1 view .LVU1421
 5933 0408 36EE666A 		vsub.f32	s12, s12, s13
 5934              	.LVL439:
 359:libDaisy/src/hid/disp/display.h ****                     d3 = (t_sxny - t_syx < 0 && t_exny - t_eyx > 0);
 5935              		.loc 3 359 45 discriminator 1 view .LVU1422
 5936 040c B5EEC06A 		vcmpe.f32	s12, #0
 5937 0410 F1EE10FA 		vmrs	APSR_nzcv, FPSCR
 5938 0414 CCBF     		ite	gt
 5939 0416 0121     		movgt	r1, #1
 5940 0418 0021     		movle	r1, #0
 5941 041a 89E7     		b	.L357
 5942              	.LVL440:
 5943              	.L417:
 358:libDaisy/src/hid/disp/display.h ****                     d2 = (t_sxy - t_syx < 0 && t_exy - t_eyx > 0);
 5944              		.loc 3 358 55 discriminator 1 view .LVU1423
 5945 041c 76EE473A 		vsub.f32	s7, s12, s14
 358:libDaisy/src/hid/disp/display.h ****                     d2 = (t_sxy - t_syx < 0 && t_exy - t_eyx > 0);
 5946              		.loc 3 358 46 discriminator 1 view .LVU1424
 5947 0420 F5EEC03A 		vcmpe.f32	s7, #0
 5948 0424 F1EE10FA 		vmrs	APSR_nzcv, FPSCR
 5949 0428 CCBF     		ite	gt
ARM GAS  C:\Users\yaman\AppData\Local\Temp\ccCu6FW5.s 			page 171


 5950 042a 0122     		movgt	r2, #1
 5951 042c 0022     		movle	r2, #0
 5952 042e 77E7     		b	.L355
 5953              	.LVL441:
 5954              	.L380:
 354:libDaisy/src/hid/disp/display.h ****                 }
 5955              		.loc 3 354 47 view .LVU1425
 5956 0430 0124     		movs	r4, #1
 5957              	.LVL442:
 365:libDaisy/src/hid/disp/display.h ****                 ((ChildType*)(this))
 5958              		.loc 3 365 13 view .LVU1426
 5959 0432 002A     		cmp	r2, #0
 5960 0434 3FF4C1AE 		beq	.L362
 365:libDaisy/src/hid/disp/display.h ****                 ((ChildType*)(this))
 5961              		.loc 3 365 13 view .LVU1427
 5962 0438 49E7     		b	.L411
 5963              	.LVL443:
 5964              	.L377:
 352:libDaisy/src/hid/disp/display.h ****                     d3 = (t_sxny - t_syx < 0 || t_exny - t_eyx > 0);
 5965              		.loc 3 352 33 view .LVU1428
 5966 043a 74EEC54A 		vsub.f32	s9, s9, s10
 5967              	.LVL444:
 351:libDaisy/src/hid/disp/display.h ****                     d2 = (t_sxy - t_syx < 0 || t_exy - t_eyx > 0);
 5968              		.loc 3 351 46 view .LVU1429
 5969 043e 0122     		movs	r2, #1
 5970              	.LVL445:
 352:libDaisy/src/hid/disp/display.h ****                     d3 = (t_sxny - t_syx < 0 || t_exny - t_eyx > 0);
 5971              		.loc 3 352 45 view .LVU1430
 5972 0440 F5EEC04A 		vcmpe.f32	s9, #0
 5973 0444 F1EE10FA 		vmrs	APSR_nzcv, FPSCR
 5974 0448 7FF589AE 		bpl	.L420
 5975              	.L378:
 353:libDaisy/src/hid/disp/display.h ****                     d4 = (t_sxny - t_synx < 0 || t_exny - t_eynx > 0);
 5976              		.loc 3 353 34 view .LVU1431
 5977 044c 35EEC55A 		vsub.f32	s10, s11, s10
 5978              	.LVL446:
 352:libDaisy/src/hid/disp/display.h ****                     d3 = (t_sxny - t_syx < 0 || t_exny - t_eyx > 0);
 5979              		.loc 3 352 45 view .LVU1432
 5980 0450 0121     		movs	r1, #1
 5981              	.LVL447:
 353:libDaisy/src/hid/disp/display.h ****                     d4 = (t_sxny - t_synx < 0 || t_exny - t_eynx > 0);
 5982              		.loc 3 353 46 view .LVU1433
 5983 0452 B5EEC05A 		vcmpe.f32	s10, #0
 5984 0456 F1EE10FA 		vmrs	APSR_nzcv, FPSCR
 5985 045a 7FF591AE 		bpl	.L421
 5986              	.LVL448:
 5987              	.L379:
 353:libDaisy/src/hid/disp/display.h ****                     d4 = (t_sxny - t_synx < 0 || t_exny - t_eynx > 0);
 5988              		.loc 3 353 46 view .LVU1434
 5989 045e 0127     		movs	r7, #1
 5990              	.LVL449:
 353:libDaisy/src/hid/disp/display.h ****                     d4 = (t_sxny - t_synx < 0 || t_exny - t_eynx > 0);
 5991              		.loc 3 353 46 view .LVU1435
 5992 0460 97E6     		b	.L354
 5993              	.LVL450:
 5994              	.L346:
 308:libDaisy/src/hid/disp/display.h ****             sweep = -sweep;
ARM GAS  C:\Users\yaman\AppData\Local\Temp\ccCu6FW5.s 			page 172


 5995              		.loc 3 308 25 view .LVU1436
 5996 0462 1293     		str	r3, [sp, #72]
 5997 0464 06EE102A 		vmov	s12, r2	@ int
 5998 0468 139B     		ldr	r3, [sp, #76]
 5999              	.LVL451:
 308:libDaisy/src/hid/disp/display.h ****             sweep = -sweep;
 6000              		.loc 3 308 25 view .LVU1437
 6001 046a 5B42     		rsbs	r3, r3, #0
 6002 046c 1393     		str	r3, [sp, #76]
 6003              	.LVL452:
 308:libDaisy/src/hid/disp/display.h ****             sweep = -sweep;
 6004              		.loc 3 308 25 view .LVU1438
 6005 046e DBE5     		b	.L347
 6006              		.cfi_endproc
 6007              	.LFE5384:
 6009              		.section	.text._ZN5daisy25OneBitGraphicsDisplayImplINS_11OledDisplayINS_13SSD130xDriverILj64ELj32E
 6010              		.align	1
 6011              		.p2align 2,,3
 6012              		.weak	_ZN5daisy25OneBitGraphicsDisplayImplINS_11OledDisplayINS_13SSD130xDriverILj64ELj32ENS_19SSD1
 6013              		.syntax unified
 6014              		.thumb
 6015              		.thumb_func
 6016              		.fpu fpv5-d16
 6018              	_ZN5daisy25OneBitGraphicsDisplayImplINS_11OledDisplayINS_13SSD130xDriverILj64ELj32ENS_19SSD130xI2CT
 6019              	.LVL453:
 6020              	.LFB5109:
 257:libDaisy/src/hid/disp/display.h ****                   uint_fast8_t y1,
 6021              		.loc 3 257 10 is_stmt 1 view -0
 6022              		.cfi_startproc
 6023              		@ args = 12, pretend = 0, frame = 32
 6024              		@ frame_needed = 0, uses_anonymous_args = 0
 257:libDaisy/src/hid/disp/display.h ****                   uint_fast8_t y1,
 6025              		.loc 3 257 10 is_stmt 0 view .LVU1440
 6026 0000 2DE9F04F 		push	{r4, r5, r6, r7, r8, r9, r10, fp, lr}
 6027              		.cfi_def_cfa_offset 36
 6028              		.cfi_offset 4, -36
 6029              		.cfi_offset 5, -32
 6030              		.cfi_offset 6, -28
 6031              		.cfi_offset 7, -24
 6032              		.cfi_offset 8, -20
 6033              		.cfi_offset 9, -16
 6034              		.cfi_offset 10, -12
 6035              		.cfi_offset 11, -8
 6036              		.cfi_offset 14, -4
 6037 0004 89B0     		sub	sp, sp, #36
 6038              		.cfi_def_cfa_offset 72
 257:libDaisy/src/hid/disp/display.h ****                   uint_fast8_t y1,
 6039              		.loc 3 257 10 view .LVU1441
 6040 0006 9DF85050 		ldrb	r5, [sp, #80]	@ zero_extendqisi2
 6041 000a 129C     		ldr	r4, [sp, #72]
 6042 000c 9DF84C70 		ldrb	r7, [sp, #76]	@ zero_extendqisi2
 6043 0010 0595     		str	r5, [sp, #20]
 6044              	.LBB1739:
 264:libDaisy/src/hid/disp/display.h ****         {
 6045              		.loc 3 264 9 view .LVU1442
 6046 0012 002D     		cmp	r5, #0
 6047 0014 40D0     		beq	.L425
ARM GAS  C:\Users\yaman\AppData\Local\Temp\ccCu6FW5.s 			page 173


 6048              	.LVL454:
 6049              	.LBB1740:
 266:libDaisy/src/hid/disp/display.h ****             {
 6050              		.loc 3 266 40 is_stmt 1 view .LVU1443
 6051 0016 9942     		cmp	r1, r3
 6052 0018 21D8     		bhi	.L424
 6053 001a 9C46     		mov	ip, r3
 6054              	.LVL455:
 6055              	.L428:
 6056              	.LBB1741:
 268:libDaisy/src/hid/disp/display.h ****                 {
 6057              		.loc 3 268 44 view .LVU1444
 6058 001c A242     		cmp	r2, r4
 6059 001e 1BD8     		bhi	.L431
 6060              	.LBB1742:
 6061              	.LBB1743:
 6062              	.LBB1744:
 241:libDaisy/src/dev/oled_ssd130x.h ****             return;
 6063              		.loc 13 241 14 is_stmt 0 view .LVU1445
 6064 0020 3F29     		cmp	r1, #63
 6065 0022 1546     		mov	r5, r2
 6066 0024 94BF     		ite	ls
 6067 0026 0023     		movls	r3, #0
 6068 0028 0123     		movhi	r3, #1
 6069 002a DFB9     		cbnz	r7, .L429
 6070              	.LVL456:
 6071              	.L432:
 241:libDaisy/src/dev/oled_ssd130x.h ****             return;
 6072              		.loc 13 241 14 view .LVU1446
 6073              	.LBE1744:
 6074              	.LBE1743:
 6075              	.LBI1742:
  42:libDaisy/src/hid/disp/oled_display.h ****     {
 6076              		.loc 2 42 10 is_stmt 1 view .LVU1447
 6077              	.LBB1761:
 6078              	.LBI1743:
 239:libDaisy/src/dev/oled_ssd130x.h ****     {
 6079              		.loc 13 239 10 view .LVU1448
 6080              	.LBB1756:
 6081              	.LBB1745:
 6082              	.LBI1745:
 239:libDaisy/src/dev/oled_ssd130x.h ****     {
 6083              		.loc 13 239 10 view .LVU1449
 239:libDaisy/src/dev/oled_ssd130x.h ****     {
 6084              		.loc 13 239 10 is_stmt 0 view .LVU1450
 6085              	.LBE1745:
 6086              	.LBE1756:
 6087              	.LBE1761:
 6088              	.LBE1742:
 268:libDaisy/src/hid/disp/display.h ****                 {
 6089              		.loc 3 268 17 is_stmt 1 view .LVU1451
 6090              	.LBB1767:
 6091              	.LBB1762:
 6092              	.LBB1757:
 6093              	.LBB1751:
 6094              	.LBB1746:
 246:libDaisy/src/dev/oled_ssd130x.h ****     }
ARM GAS  C:\Users\yaman\AppData\Local\Temp\ccCu6FW5.s 			page 174


 6095              		.loc 13 246 28 is_stmt 0 view .LVU1452
 6096 002c EE08     		lsrs	r6, r5, #3
 246:libDaisy/src/dev/oled_ssd130x.h ****     }
 6097              		.loc 13 246 55 view .LVU1453
 6098 002e 05F00708 		and	r8, r5, #7
 246:libDaisy/src/dev/oled_ssd130x.h ****     }
 6099              		.loc 13 246 49 view .LVU1454
 6100 0032 4FF0010E 		mov	lr, #1
 6101              	.LBE1746:
 6102              	.LBE1751:
 241:libDaisy/src/dev/oled_ssd130x.h ****             return;
 6103              		.loc 13 241 9 view .LVU1455
 6104 0036 1F2D     		cmp	r5, #31
 6105              	.LBB1752:
 6106              	.LBB1747:
 246:libDaisy/src/dev/oled_ssd130x.h ****     }
 6107              		.loc 13 246 42 view .LVU1456
 6108 0038 01EB8616 		add	r6, r1, r6, lsl #6
 6109              	.LBE1747:
 6110              	.LBE1752:
 6111              	.LBE1757:
 6112              	.LBE1762:
 6113              	.LBE1767:
 268:libDaisy/src/hid/disp/display.h ****                 {
 6114              		.loc 3 268 17 view .LVU1457
 6115 003c 7544     		add	r5, r5, lr
 6116              	.LVL457:
 268:libDaisy/src/hid/disp/display.h ****                 {
 6117              		.loc 3 268 44 is_stmt 1 view .LVU1458
 6118              	.LBB1768:
 6119              	.LBB1763:
 6120              	.LBB1758:
 6121              	.LBB1753:
 6122              	.LBB1748:
 246:libDaisy/src/dev/oled_ssd130x.h ****     }
 6123              		.loc 13 246 49 is_stmt 0 view .LVU1459
 6124 003e 0EFA08FE 		lsl	lr, lr, r8
 6125              	.LBE1748:
 6126              	.LBE1753:
 241:libDaisy/src/dev/oled_ssd130x.h ****             return;
 6127              		.loc 13 241 9 view .LVU1460
 6128 0042 07D8     		bhi	.L430
 6129              	.LBB1754:
 6130              	.LBB1749:
 246:libDaisy/src/dev/oled_ssd130x.h ****     }
 6131              		.loc 13 246 42 view .LVU1461
 6132 0044 0644     		add	r6, r6, r0
 6133              	.LBE1749:
 6134              	.LBE1754:
 241:libDaisy/src/dev/oled_ssd130x.h ****             return;
 6135              		.loc 13 241 9 view .LVU1462
 6136 0046 2BB9     		cbnz	r3, .L430
 6137              	.LBB1755:
 6138              	.LBB1750:
 246:libDaisy/src/dev/oled_ssd130x.h ****     }
 6139              		.loc 13 246 42 view .LVU1463
 6140 0048 96F81080 		ldrb	r8, [r6, #16]	@ zero_extendqisi2
ARM GAS  C:\Users\yaman\AppData\Local\Temp\ccCu6FW5.s 			page 175


 6141 004c 28EA0E0E 		bic	lr, r8, lr
 6142 0050 86F810E0 		strb	lr, [r6, #16]
 6143              	.L430:
 246:libDaisy/src/dev/oled_ssd130x.h ****     }
 6144              		.loc 13 246 42 view .LVU1464
 6145              	.LBE1750:
 6146              	.LBE1755:
 6147              	.LBE1758:
 6148              	.LBE1763:
 6149              	.LBE1768:
 268:libDaisy/src/hid/disp/display.h ****                 {
 6150              		.loc 3 268 44 view .LVU1465
 6151 0054 AC42     		cmp	r4, r5
 6152 0056 E9D2     		bcs	.L432
 6153              	.LVL458:
 6154              	.L431:
 268:libDaisy/src/hid/disp/display.h ****                 {
 6155              		.loc 3 268 44 view .LVU1466
 6156              	.LBE1741:
 266:libDaisy/src/hid/disp/display.h ****             {
 6157              		.loc 3 266 13 is_stmt 1 view .LVU1467
 6158 0058 0131     		adds	r1, r1, #1
 6159              	.LVL459:
 266:libDaisy/src/hid/disp/display.h ****             {
 6160              		.loc 3 266 40 view .LVU1468
 6161 005a 8C45     		cmp	ip, r1
 6162 005c DED2     		bcs	.L428
 6163              	.LVL460:
 6164              	.L424:
 266:libDaisy/src/hid/disp/display.h ****             {
 6165              		.loc 3 266 40 is_stmt 0 view .LVU1469
 6166              	.LBE1740:
 6167              	.LBE1739:
 281:libDaisy/src/hid/disp/display.h **** 
 6168              		.loc 3 281 5 view .LVU1470
 6169 005e 09B0     		add	sp, sp, #36
 6170              		.cfi_remember_state
 6171              		.cfi_def_cfa_offset 36
 6172              		@ sp needed
 6173 0060 BDE8F08F 		pop	{r4, r5, r6, r7, r8, r9, r10, fp, pc}
 6174              	.LVL461:
 6175              	.L429:
 6176              		.cfi_restore_state
 6177              	.LBB1774:
 6178              	.LBB1773:
 6179              	.LBB1772:
 6180              	.LBB1769:
  42:libDaisy/src/hid/disp/oled_display.h ****     {
 6181              		.loc 2 42 10 is_stmt 1 view .LVU1471
 6182              	.LBB1764:
 239:libDaisy/src/dev/oled_ssd130x.h ****     {
 6183              		.loc 13 239 10 view .LVU1472
 239:libDaisy/src/dev/oled_ssd130x.h ****     {
 6184              		.loc 13 239 10 is_stmt 0 view .LVU1473
 6185              	.LBE1764:
 6186              	.LBE1769:
 268:libDaisy/src/hid/disp/display.h ****                 {
ARM GAS  C:\Users\yaman\AppData\Local\Temp\ccCu6FW5.s 			page 176


 6187              		.loc 3 268 17 is_stmt 1 view .LVU1474
 6188              	.LBB1770:
 6189              	.LBB1765:
 6190              	.LBB1759:
 244:libDaisy/src/dev/oled_ssd130x.h ****         else
 6191              		.loc 13 244 28 is_stmt 0 view .LVU1475
 6192 0064 EE08     		lsrs	r6, r5, #3
 244:libDaisy/src/dev/oled_ssd130x.h ****         else
 6193              		.loc 13 244 54 view .LVU1476
 6194 0066 05F00708 		and	r8, r5, #7
 244:libDaisy/src/dev/oled_ssd130x.h ****         else
 6195              		.loc 13 244 48 view .LVU1477
 6196 006a 4FF0010E 		mov	lr, #1
 241:libDaisy/src/dev/oled_ssd130x.h ****             return;
 6197              		.loc 13 241 9 view .LVU1478
 6198 006e 1F2D     		cmp	r5, #31
 244:libDaisy/src/dev/oled_ssd130x.h ****         else
 6199              		.loc 13 244 42 view .LVU1479
 6200 0070 01EB8616 		add	r6, r1, r6, lsl #6
 6201              	.LBE1759:
 6202              	.LBE1765:
 6203              	.LBE1770:
 268:libDaisy/src/hid/disp/display.h ****                 {
 6204              		.loc 3 268 17 view .LVU1480
 6205 0074 7544     		add	r5, r5, lr
 6206              	.LVL462:
 268:libDaisy/src/hid/disp/display.h ****                 {
 6207              		.loc 3 268 44 is_stmt 1 view .LVU1481
 6208              	.LBB1771:
 6209              	.LBB1766:
 6210              	.LBB1760:
 244:libDaisy/src/dev/oled_ssd130x.h ****         else
 6211              		.loc 13 244 48 is_stmt 0 view .LVU1482
 6212 0076 0EFA08FE 		lsl	lr, lr, r8
 241:libDaisy/src/dev/oled_ssd130x.h ****             return;
 6213              		.loc 13 241 9 view .LVU1483
 6214 007a 07D8     		bhi	.L433
 244:libDaisy/src/dev/oled_ssd130x.h ****         else
 6215              		.loc 13 244 42 view .LVU1484
 6216 007c 0644     		add	r6, r6, r0
 241:libDaisy/src/dev/oled_ssd130x.h ****             return;
 6217              		.loc 13 241 9 view .LVU1485
 6218 007e 2BB9     		cbnz	r3, .L433
 244:libDaisy/src/dev/oled_ssd130x.h ****         else
 6219              		.loc 13 244 42 view .LVU1486
 6220 0080 96F81080 		ldrb	r8, [r6, #16]	@ zero_extendqisi2
 6221 0084 4EEA080E 		orr	lr, lr, r8
 6222 0088 86F810E0 		strb	lr, [r6, #16]
 6223              	.L433:
 244:libDaisy/src/dev/oled_ssd130x.h ****         else
 6224              		.loc 13 244 42 view .LVU1487
 6225              	.LBE1760:
 6226              	.LBE1766:
 6227              	.LBE1771:
 268:libDaisy/src/hid/disp/display.h ****                 {
 6228              		.loc 3 268 44 view .LVU1488
 6229 008c AC42     		cmp	r4, r5
ARM GAS  C:\Users\yaman\AppData\Local\Temp\ccCu6FW5.s 			page 177


 6230 008e E9D2     		bcs	.L429
 6231              	.LBE1772:
 266:libDaisy/src/hid/disp/display.h ****             {
 6232              		.loc 3 266 13 is_stmt 1 view .LVU1489
 6233 0090 0131     		adds	r1, r1, #1
 6234              	.LVL463:
 266:libDaisy/src/hid/disp/display.h ****             {
 6235              		.loc 3 266 40 view .LVU1490
 6236 0092 8C45     		cmp	ip, r1
 6237 0094 C2D2     		bcs	.L428
 6238 0096 E2E7     		b	.L424
 6239              	.LVL464:
 6240              	.L425:
 266:libDaisy/src/hid/disp/display.h ****             {
 6241              		.loc 3 266 40 is_stmt 0 view .LVU1491
 6242              	.LBE1773:
 6243              	.LBE1774:
 6244              	.LBB1775:
 6245              	.LBI1775:
 257:libDaisy/src/hid/disp/display.h ****                   uint_fast8_t y1,
 6246              		.loc 3 257 10 is_stmt 1 view .LVU1492
 6247              	.LBB1776:
 6248              	.LBI1776:
 221:libDaisy/src/hid/disp/display.h ****                   uint_fast8_t y1,
 6249              		.loc 3 221 10 view .LVU1493
 6250              	.LBB1777:
 227:libDaisy/src/hid/disp/display.h ****         int_fast16_t deltaY = abs((int_fast16_t)y2 - (int_fast16_t)y1);
 6251              		.loc 3 227 52 is_stmt 0 view .LVU1494
 6252 0098 A3EB010E 		sub	lr, r3, r1
 227:libDaisy/src/hid/disp/display.h ****         int_fast16_t deltaY = abs((int_fast16_t)y2 - (int_fast16_t)y1);
 6253              		.loc 3 227 22 view .LVU1495
 6254 009c BEF1000F 		cmp	lr, #0
 6255 00a0 B8BF     		it	lt
 6256 00a2 CEF1000E 		rsblt	lr, lr, #0
 6257              	.LVL465:
 229:libDaisy/src/hid/disp/display.h ****         int_fast16_t signY  = ((y1 < y2) ? 1 : -1);
 6258              		.loc 3 229 42 view .LVU1496
 6259 00a6 9942     		cmp	r1, r3
 6260 00a8 C0F09C81 		bcc	.L434
 6261              	.LVL466:
 6262              	.LBB1778:
 6263              	.LBI1778:
  42:libDaisy/src/hid/disp/oled_display.h ****     {
 6264              		.loc 2 42 10 is_stmt 1 view .LVU1497
 6265              	.LBB1779:
 6266              	.LBI1779:
 239:libDaisy/src/dev/oled_ssd130x.h ****     {
 6267              		.loc 13 239 10 view .LVU1498
 6268              	.LBB1780:
 241:libDaisy/src/dev/oled_ssd130x.h ****             return;
 6269              		.loc 13 241 14 is_stmt 0 view .LVU1499
 6270 00ac 3F2B     		cmp	r3, #63
 6271 00ae 94BF     		ite	ls
 6272 00b0 0025     		movls	r5, #0
 6273 00b2 0125     		movhi	r5, #1
 241:libDaisy/src/dev/oled_ssd130x.h ****             return;
 6274              		.loc 13 241 28 view .LVU1500
ARM GAS  C:\Users\yaman\AppData\Local\Temp\ccCu6FW5.s 			page 178


 6275 00b4 1F2A     		cmp	r2, #31
 241:libDaisy/src/dev/oled_ssd130x.h ****             return;
 6276              		.loc 13 241 14 view .LVU1501
 6277 00b6 0195     		str	r5, [sp, #4]
 241:libDaisy/src/dev/oled_ssd130x.h ****             return;
 6278              		.loc 13 241 28 view .LVU1502
 6279 00b8 94BF     		ite	ls
 6280 00ba 0026     		movls	r6, #0
 6281 00bc 0126     		movhi	r6, #1
 241:libDaisy/src/dev/oled_ssd130x.h ****             return;
 6282              		.loc 13 241 9 view .LVU1503
 6283 00be 3543     		orrs	r5, r5, r6
 241:libDaisy/src/dev/oled_ssd130x.h ****             return;
 6284              		.loc 13 241 28 view .LVU1504
 6285 00c0 0796     		str	r6, [sp, #28]
 241:libDaisy/src/dev/oled_ssd130x.h ****             return;
 6286              		.loc 13 241 9 view .LVU1505
 6287 00c2 0395     		str	r5, [sp, #12]
 6288 00c4 40F0C483 		bne	.L435
 6289 00c8 4FF0FF3B 		mov	fp, #-1
 6290              	.LVL467:
 6291              	.L528:
 244:libDaisy/src/dev/oled_ssd130x.h ****         else
 6292              		.loc 13 244 28 view .LVU1506
 6293 00cc D508     		lsrs	r5, r2, #3
 244:libDaisy/src/dev/oled_ssd130x.h ****         else
 6294              		.loc 13 244 42 view .LVU1507
 6295 00ce 03EB8515 		add	r5, r3, r5, lsl #6
 6296 00d2 0544     		add	r5, r5, r0
 243:libDaisy/src/dev/oled_ssd130x.h ****             buffer_[x + (y / 8) * width] |= (1 << (y % 8));
 6297              		.loc 13 243 9 view .LVU1508
 6298 00d4 002F     		cmp	r7, #0
 6299 00d6 00F09783 		beq	.L436
 244:libDaisy/src/dev/oled_ssd130x.h ****         else
 6300              		.loc 13 244 54 view .LVU1509
 6301 00da 02F0070C 		and	ip, r2, #7
 244:libDaisy/src/dev/oled_ssd130x.h ****         else
 6302              		.loc 13 244 48 view .LVU1510
 6303 00de 0126     		movs	r6, #1
 6304              	.LBE1780:
 6305              	.LBE1779:
 6306              	.LBE1778:
 239:libDaisy/src/hid/disp/display.h ****         {
 6307              		.loc 3 239 26 view .LVU1511
 6308 00e0 9942     		cmp	r1, r3
 6309              	.LBB1793:
 6310              	.LBB1789:
 6311              	.LBB1785:
 244:libDaisy/src/dev/oled_ssd130x.h ****         else
 6312              		.loc 13 244 48 view .LVU1512
 6313 00e2 06FA0CF6 		lsl	r6, r6, ip
 244:libDaisy/src/dev/oled_ssd130x.h ****         else
 6314              		.loc 13 244 42 view .LVU1513
 6315 00e6 95F810C0 		ldrb	ip, [r5, #16]	@ zero_extendqisi2
 6316 00ea 46EA0C06 		orr	r6, r6, ip
 6317 00ee 2E74     		strb	r6, [r5, #16]
 6318              	.LVL468:
ARM GAS  C:\Users\yaman\AppData\Local\Temp\ccCu6FW5.s 			page 179


 244:libDaisy/src/dev/oled_ssd130x.h ****         else
 6319              		.loc 13 244 42 view .LVU1514
 6320              	.LBE1785:
 6321              	.LBE1789:
 6322              	.LBE1793:
 239:libDaisy/src/hid/disp/display.h ****         {
 6323              		.loc 3 239 26 is_stmt 1 view .LVU1515
 6324 00f0 4FF00005 		mov	r5, #0
 6325 00f4 00F0C683 		beq	.L536
 6326 00f8 0195     		str	r5, [sp, #4]
 6327 00fa 0795     		str	r5, [sp, #28]
 6328              	.LVL469:
 6329              	.L438:
 239:libDaisy/src/hid/disp/display.h ****         {
 6330              		.loc 3 239 26 is_stmt 0 view .LVU1516
 6331 00fc F046     		mov	r8, lr
 6332 00fe 1646     		mov	r6, r2
 6333 0100 8C46     		mov	ip, r1
 6334              	.L633:
 6335              	.LVL470:
 6336              	.LBB1794:
 6337              	.LBI1794:
  42:libDaisy/src/hid/disp/oled_display.h ****     {
 6338              		.loc 2 42 10 is_stmt 1 view .LVU1517
 6339              	.LBB1795:
 6340              	.LBI1795:
 239:libDaisy/src/dev/oled_ssd130x.h ****     {
 6341              		.loc 13 239 10 view .LVU1518
 6342              	.LBB1796:
 244:libDaisy/src/dev/oled_ssd130x.h ****         else
 6343              		.loc 13 244 28 is_stmt 0 view .LVU1519
 6344 0102 F508     		lsrs	r5, r6, #3
 241:libDaisy/src/dev/oled_ssd130x.h ****             return;
 6345              		.loc 13 241 9 view .LVU1520
 6346 0104 BCF13F0F 		cmp	ip, #63
 244:libDaisy/src/dev/oled_ssd130x.h ****         else
 6347              		.loc 13 244 42 view .LVU1521
 6348 0108 0CEB8515 		add	r5, ip, r5, lsl #6
 241:libDaisy/src/dev/oled_ssd130x.h ****             return;
 6349              		.loc 13 241 9 view .LVU1522
 6350 010c 0ED8     		bhi	.L454
 6351 010e 1F2E     		cmp	r6, #31
 244:libDaisy/src/dev/oled_ssd130x.h ****         else
 6352              		.loc 13 244 42 view .LVU1523
 6353 0110 0544     		add	r5, r5, r0
 241:libDaisy/src/dev/oled_ssd130x.h ****             return;
 6354              		.loc 13 241 9 view .LVU1524
 6355 0112 0BD8     		bhi	.L454
 244:libDaisy/src/dev/oled_ssd130x.h ****         else
 6356              		.loc 13 244 54 view .LVU1525
 6357 0114 06F0070A 		and	r10, r6, #7
 244:libDaisy/src/dev/oled_ssd130x.h ****         else
 6358              		.loc 13 244 48 view .LVU1526
 6359 0118 4FF00109 		mov	r9, #1
 6360 011c 09FA0AF9 		lsl	r9, r9, r10
 244:libDaisy/src/dev/oled_ssd130x.h ****         else
 6361              		.loc 13 244 42 view .LVU1527
ARM GAS  C:\Users\yaman\AppData\Local\Temp\ccCu6FW5.s 			page 180


 6362 0120 95F810A0 		ldrb	r10, [r5, #16]	@ zero_extendqisi2
 6363 0124 49EA0A09 		orr	r9, r9, r10
 6364 0128 85F81090 		strb	r9, [r5, #16]
 6365              	.L454:
 244:libDaisy/src/dev/oled_ssd130x.h ****         else
 6366              		.loc 13 244 42 view .LVU1528
 6367              	.LBE1796:
 6368              	.LBE1795:
 6369              	.LBE1794:
 243:libDaisy/src/hid/disp/display.h ****             {
 6370              		.loc 3 243 13 view .LVU1529
 6371 012c 5FEA4805 		lsls	r5, r8, #1
 246:libDaisy/src/hid/disp/display.h ****             }
 6372              		.loc 3 246 20 view .LVU1530
 6373 0130 18BF     		it	ne
 6374 0132 DC44     		addne	ip, ip, fp
 6375              	.LVL471:
 249:libDaisy/src/hid/disp/display.h ****             {
 6376              		.loc 3 249 13 view .LVU1531
 6377 0134 AE45     		cmp	lr, r5
 6378 0136 40F38D81 		ble	.L456
 252:libDaisy/src/hid/disp/display.h ****             }
 6379              		.loc 3 252 20 view .LVU1532
 6380 013a 013E     		subs	r6, r6, #1
 6381              	.LVL472:
 251:libDaisy/src/hid/disp/display.h ****                 y1 += signY;
 6382              		.loc 3 251 23 view .LVU1533
 6383 013c F044     		add	r8, r8, lr
 6384              	.LVL473:
 239:libDaisy/src/hid/disp/display.h ****         {
 6385              		.loc 3 239 26 is_stmt 1 view .LVU1534
 6386 013e B242     		cmp	r2, r6
 6387 0140 DFD1     		bne	.L633
 6388 0142 6345     		cmp	r3, ip
 6389 0144 DDD1     		bne	.L633
 6390              	.L550:
 239:libDaisy/src/hid/disp/display.h ****         {
 6391              		.loc 3 239 26 is_stmt 0 view .LVU1535
 6392 0146 0025     		movs	r5, #0
 6393 0148 0395     		str	r5, [sp, #12]
 6394              	.LVL474:
 6395              	.L437:
 239:libDaisy/src/hid/disp/display.h ****         {
 6396              		.loc 3 239 26 view .LVU1536
 6397              	.LBE1777:
 6398              	.LBE1776:
 6399              	.LBB1835:
 6400              	.LBI1835:
 221:libDaisy/src/hid/disp/display.h ****                   uint_fast8_t y1,
 6401              		.loc 3 221 10 is_stmt 1 view .LVU1537
 6402              	.LBB1836:
 228:libDaisy/src/hid/disp/display.h ****         int_fast16_t signX  = ((x1 < x2) ? 1 : -1);
 6403              		.loc 3 228 52 is_stmt 0 view .LVU1538
 6404 014a A51A     		subs	r5, r4, r2
 230:libDaisy/src/hid/disp/display.h ****         int_fast16_t error  = deltaX - deltaY;
 6405              		.loc 3 230 42 view .LVU1539
 6406 014c A242     		cmp	r2, r4
ARM GAS  C:\Users\yaman\AppData\Local\Temp\ccCu6FW5.s 			page 181


 228:libDaisy/src/hid/disp/display.h ****         int_fast16_t signX  = ((x1 < x2) ? 1 : -1);
 6407              		.loc 3 228 22 view .LVU1540
 6408 014e 85EAE576 		eor	r6, r5, r5, asr #31
 6409 0152 A6EBE576 		sub	r6, r6, r5, asr #31
 6410 0156 3546     		mov	r5, r6
 6411 0158 0496     		str	r6, [sp, #16]
 6412              	.LVL475:
 230:libDaisy/src/hid/disp/display.h ****         int_fast16_t error  = deltaX - deltaY;
 6413              		.loc 3 230 42 view .LVU1541
 6414 015a C0F01C82 		bcc	.L458
 6415              	.LVL476:
 6416              	.LBB1837:
 6417              	.LBB1838:
 6418              	.LBB1839:
 241:libDaisy/src/dev/oled_ssd130x.h ****             return;
 6419              		.loc 13 241 28 view .LVU1542
 6420 015e 1F2C     		cmp	r4, #31
 6421              	.LBE1839:
 6422              	.LBE1838:
 6423              	.LBE1837:
 231:libDaisy/src/hid/disp/display.h ****         int_fast16_t error2;
 6424              		.loc 3 231 22 view .LVU1543
 6425 0160 C5F1000A 		rsb	r10, r5, #0
 6426              	.LVL477:
 6427              	.LBB1856:
 6428              	.LBI1837:
  42:libDaisy/src/hid/disp/oled_display.h ****     {
 6429              		.loc 2 42 10 is_stmt 1 view .LVU1544
 6430              	.LBB1850:
 6431              	.LBI1838:
 239:libDaisy/src/dev/oled_ssd130x.h ****     {
 6432              		.loc 13 239 10 view .LVU1545
 6433              	.LBB1844:
 241:libDaisy/src/dev/oled_ssd130x.h ****             return;
 6434              		.loc 13 241 9 is_stmt 0 view .LVU1546
 6435 0164 019D     		ldr	r5, [sp, #4]
 6436              	.LVL478:
 241:libDaisy/src/dev/oled_ssd130x.h ****             return;
 6437              		.loc 13 241 28 view .LVU1547
 6438 0166 94BF     		ite	ls
 6439 0168 0026     		movls	r6, #0
 6440              	.LVL479:
 241:libDaisy/src/dev/oled_ssd130x.h ****             return;
 6441              		.loc 13 241 28 view .LVU1548
 6442 016a 0126     		movhi	r6, #1
 241:libDaisy/src/dev/oled_ssd130x.h ****             return;
 6443              		.loc 13 241 9 view .LVU1549
 6444 016c 3543     		orrs	r5, r5, r6
 241:libDaisy/src/dev/oled_ssd130x.h ****             return;
 6445              		.loc 13 241 28 view .LVU1550
 6446 016e 0696     		str	r6, [sp, #24]
 241:libDaisy/src/dev/oled_ssd130x.h ****             return;
 6447              		.loc 13 241 9 view .LVU1551
 6448 0170 40F07483 		bne	.L459
 244:libDaisy/src/dev/oled_ssd130x.h ****         else
 6449              		.loc 13 244 28 view .LVU1552
 6450 0174 E608     		lsrs	r6, r4, #3
ARM GAS  C:\Users\yaman\AppData\Local\Temp\ccCu6FW5.s 			page 182


 6451 0176 4FF0FF35 		mov	r5, #-1
 244:libDaisy/src/dev/oled_ssd130x.h ****         else
 6452              		.loc 13 244 42 view .LVU1553
 6453 017a 03EB8616 		add	r6, r3, r6, lsl #6
 6454 017e 0195     		str	r5, [sp, #4]
 6455 0180 0644     		add	r6, r6, r0
 243:libDaisy/src/dev/oled_ssd130x.h ****             buffer_[x + (y / 8) * width] |= (1 << (y % 8));
 6456              		.loc 13 243 9 view .LVU1554
 6457 0182 002F     		cmp	r7, #0
 6458 0184 00F01E82 		beq	.L460
 6459              	.LVL480:
 6460              	.L677:
 244:libDaisy/src/dev/oled_ssd130x.h ****         else
 6461              		.loc 13 244 48 view .LVU1555
 6462 0188 4FF0010E 		mov	lr, #1
 244:libDaisy/src/dev/oled_ssd130x.h ****         else
 6463              		.loc 13 244 54 view .LVU1556
 6464 018c 04F0070C 		and	ip, r4, #7
 6465              	.LBE1844:
 6466              	.LBE1850:
 6467              	.LBE1856:
 239:libDaisy/src/hid/disp/display.h ****         {
 6468              		.loc 3 239 26 view .LVU1557
 6469 0190 A242     		cmp	r2, r4
 6470              	.LBB1857:
 6471              	.LBB1851:
 6472              	.LBB1845:
 244:libDaisy/src/dev/oled_ssd130x.h ****         else
 6473              		.loc 13 244 48 view .LVU1558
 6474 0192 0EFA0CFC 		lsl	ip, lr, ip
 244:libDaisy/src/dev/oled_ssd130x.h ****         else
 6475              		.loc 13 244 42 view .LVU1559
 6476 0196 96F810E0 		ldrb	lr, [r6, #16]	@ zero_extendqisi2
 6477 019a 4CEA0E0C 		orr	ip, ip, lr
 6478 019e 86F810C0 		strb	ip, [r6, #16]
 6479              	.LVL481:
 244:libDaisy/src/dev/oled_ssd130x.h ****         else
 6480              		.loc 13 244 42 view .LVU1560
 6481              	.LBE1845:
 6482              	.LBE1851:
 6483              	.LBE1857:
 239:libDaisy/src/hid/disp/display.h ****         {
 6484              		.loc 3 239 26 is_stmt 1 view .LVU1561
 6485 01a2 00F06B83 		beq	.L539
 239:libDaisy/src/hid/disp/display.h ****         {
 6486              		.loc 3 239 26 is_stmt 0 view .LVU1562
 6487 01a6 0025     		movs	r5, #0
 6488 01a8 D146     		mov	r9, r10
 6489 01aa 0695     		str	r5, [sp, #24]
 6490              	.LVL482:
 6491              	.L462:
 239:libDaisy/src/hid/disp/display.h ****         {
 6492              		.loc 3 239 26 view .LVU1563
 6493 01ac 9446     		mov	ip, r2
 6494 01ae 1E46     		mov	r6, r3
 6495 01b0 5546     		mov	r5, r10
 6496 01b2 0292     		str	r2, [sp, #8]
ARM GAS  C:\Users\yaman\AppData\Local\Temp\ccCu6FW5.s 			page 183


 6497              	.L465:
 6498              	.LVL483:
 6499              	.LBB1858:
 6500              	.LBI1858:
  42:libDaisy/src/hid/disp/oled_display.h ****     {
 6501              		.loc 2 42 10 is_stmt 1 view .LVU1564
 6502              	.LBB1859:
 6503              	.LBI1859:
 239:libDaisy/src/dev/oled_ssd130x.h ****     {
 6504              		.loc 13 239 10 view .LVU1565
 6505              	.LBB1860:
 244:libDaisy/src/dev/oled_ssd130x.h ****         else
 6506              		.loc 13 244 28 is_stmt 0 view .LVU1566
 6507 01b4 4FEADC0E 		lsr	lr, ip, #3
 241:libDaisy/src/dev/oled_ssd130x.h ****             return;
 6508              		.loc 13 241 9 view .LVU1567
 6509 01b8 3F2E     		cmp	r6, #63
 6510              	.LBE1860:
 6511              	.LBE1859:
 6512              	.LBE1858:
 242:libDaisy/src/hid/disp/display.h ****             if(error2 > -deltaY)
 6513              		.loc 3 242 20 view .LVU1568
 6514 01ba 4FEA4508 		lsl	r8, r5, #1
 6515              	.LVL484:
 6516              	.LBB1887:
 6517              	.LBB1882:
 6518              	.LBB1877:
 244:libDaisy/src/dev/oled_ssd130x.h ****         else
 6519              		.loc 13 244 42 view .LVU1569
 6520 01be 06EB8E1E 		add	lr, r6, lr, lsl #6
 241:libDaisy/src/dev/oled_ssd130x.h ****             return;
 6521              		.loc 13 241 9 view .LVU1570
 6522 01c2 0FD8     		bhi	.L478
 6523 01c4 BCF11F0F 		cmp	ip, #31
 244:libDaisy/src/dev/oled_ssd130x.h ****         else
 6524              		.loc 13 244 42 view .LVU1571
 6525 01c8 8644     		add	lr, lr, r0
 241:libDaisy/src/dev/oled_ssd130x.h ****             return;
 6526              		.loc 13 241 9 view .LVU1572
 6527 01ca 0BD8     		bhi	.L478
 244:libDaisy/src/dev/oled_ssd130x.h ****         else
 6528              		.loc 13 244 48 view .LVU1573
 6529 01cc 4FF0010B 		mov	fp, #1
 244:libDaisy/src/dev/oled_ssd130x.h ****         else
 6530              		.loc 13 244 54 view .LVU1574
 6531 01d0 0CF0070A 		and	r10, ip, #7
 244:libDaisy/src/dev/oled_ssd130x.h ****         else
 6532              		.loc 13 244 48 view .LVU1575
 6533 01d4 0BFA0AFA 		lsl	r10, fp, r10
 244:libDaisy/src/dev/oled_ssd130x.h ****         else
 6534              		.loc 13 244 42 view .LVU1576
 6535 01d8 9EF810B0 		ldrb	fp, [lr, #16]	@ zero_extendqisi2
 6536 01dc 4AEA0B0A 		orr	r10, r10, fp
 6537 01e0 8EF810A0 		strb	r10, [lr, #16]
 6538              	.L478:
 244:libDaisy/src/dev/oled_ssd130x.h ****         else
 6539              		.loc 13 244 42 view .LVU1577
ARM GAS  C:\Users\yaman\AppData\Local\Temp\ccCu6FW5.s 			page 184


 6540              	.LBE1877:
 6541              	.LBE1882:
 6542              	.LBE1887:
 243:libDaisy/src/hid/disp/display.h ****             {
 6543              		.loc 3 243 13 view .LVU1578
 6544 01e4 B9EB450F 		cmp	r9, r5, lsl #1
 6545 01e8 02DA     		bge	.L479
 245:libDaisy/src/hid/disp/display.h ****                 x1 += signX;
 6546              		.loc 3 245 23 view .LVU1579
 6547 01ea 049A     		ldr	r2, [sp, #16]
 246:libDaisy/src/hid/disp/display.h ****             }
 6548              		.loc 3 246 20 view .LVU1580
 6549 01ec 013E     		subs	r6, r6, #1
 6550              	.LVL485:
 245:libDaisy/src/hid/disp/display.h ****                 x1 += signX;
 6551              		.loc 3 245 23 view .LVU1581
 6552 01ee AD1A     		subs	r5, r5, r2
 6553              	.LVL486:
 6554              	.L479:
 249:libDaisy/src/hid/disp/display.h ****             {
 6555              		.loc 3 249 13 view .LVU1582
 6556 01f0 B8F1000F 		cmp	r8, #0
 6557 01f4 01D0     		beq	.L480
 252:libDaisy/src/hid/disp/display.h ****             }
 6558              		.loc 3 252 20 view .LVU1583
 6559 01f6 019A     		ldr	r2, [sp, #4]
 6560 01f8 9444     		add	ip, ip, r2
 6561              	.LVL487:
 6562              	.L480:
 239:libDaisy/src/hid/disp/display.h ****         {
 6563              		.loc 3 239 26 is_stmt 1 view .LVU1584
 6564 01fa A3EB060A 		sub	r10, r3, r6
 6565 01fe 6445     		cmp	r4, ip
 6566 0200 08BF     		it	eq
 6567 0202 B342     		cmpeq	r3, r6
 6568 0204 BAFA8AFA 		clz	r10, r10
 6569 0208 4FEA5A1A 		lsr	r10, r10, #5
 6570 020c 00F0C181 		beq	.L672
 239:libDaisy/src/hid/disp/display.h ****         {
 6571              		.loc 3 239 26 is_stmt 0 view .LVU1585
 6572 0210 C845     		cmp	r8, r9
 6573 0212 CFDC     		bgt	.L465
 6574 0214 029A     		ldr	r2, [sp, #8]
 6575 0216 9B46     		mov	fp, r3
 6576              	.LVL488:
 6577              	.L469:
 6578              	.LBB1888:
  42:libDaisy/src/hid/disp/oled_display.h ****     {
 6579              		.loc 2 42 10 is_stmt 1 view .LVU1586
 6580              	.LBB1883:
 239:libDaisy/src/dev/oled_ssd130x.h ****     {
 6581              		.loc 13 239 10 view .LVU1587
 6582              	.LBB1878:
 244:libDaisy/src/dev/oled_ssd130x.h ****         else
 6583              		.loc 13 244 28 is_stmt 0 view .LVU1588
 6584 0218 4FEADC0E 		lsr	lr, ip, #3
 241:libDaisy/src/dev/oled_ssd130x.h ****             return;
ARM GAS  C:\Users\yaman\AppData\Local\Temp\ccCu6FW5.s 			page 185


 6585              		.loc 13 241 9 view .LVU1589
 6586 021c 3F2E     		cmp	r6, #63
 244:libDaisy/src/dev/oled_ssd130x.h ****         else
 6587              		.loc 13 244 54 view .LVU1590
 6588 021e 0CF00708 		and	r8, ip, #7
 244:libDaisy/src/dev/oled_ssd130x.h ****         else
 6589              		.loc 13 244 42 view .LVU1591
 6590 0222 06EB8E1E 		add	lr, r6, lr, lsl #6
 241:libDaisy/src/dev/oled_ssd130x.h ****             return;
 6591              		.loc 13 241 9 view .LVU1592
 6592 0226 0DD8     		bhi	.L466
 241:libDaisy/src/dev/oled_ssd130x.h ****             return;
 6593              		.loc 13 241 9 view .LVU1593
 6594 0228 BCF11F0F 		cmp	ip, #31
 244:libDaisy/src/dev/oled_ssd130x.h ****         else
 6595              		.loc 13 244 42 view .LVU1594
 6596 022c 8644     		add	lr, lr, r0
 241:libDaisy/src/dev/oled_ssd130x.h ****             return;
 6597              		.loc 13 241 9 view .LVU1595
 6598 022e 09D8     		bhi	.L466
 244:libDaisy/src/dev/oled_ssd130x.h ****         else
 6599              		.loc 13 244 48 view .LVU1596
 6600 0230 4FF00109 		mov	r9, #1
 6601 0234 09FA08F8 		lsl	r8, r9, r8
 244:libDaisy/src/dev/oled_ssd130x.h ****         else
 6602              		.loc 13 244 42 view .LVU1597
 6603 0238 9EF81090 		ldrb	r9, [lr, #16]	@ zero_extendqisi2
 6604 023c 48EA0908 		orr	r8, r8, r9
 6605 0240 8EF81080 		strb	r8, [lr, #16]
 6606              	.L466:
 244:libDaisy/src/dev/oled_ssd130x.h ****         else
 6607              		.loc 13 244 42 view .LVU1598
 6608              	.LBE1878:
 6609              	.LBE1883:
 6610              	.LBE1888:
 249:libDaisy/src/hid/disp/display.h ****             {
 6611              		.loc 3 249 13 view .LVU1599
 6612 0244 0DB1     		cbz	r5, .L467
 252:libDaisy/src/hid/disp/display.h ****             }
 6613              		.loc 3 252 20 view .LVU1600
 6614 0246 019B     		ldr	r3, [sp, #4]
 6615 0248 9C44     		add	ip, ip, r3
 6616              	.LVL489:
 6617              	.L467:
 239:libDaisy/src/hid/disp/display.h ****         {
 6618              		.loc 3 239 26 is_stmt 1 view .LVU1601
 6619 024a 6445     		cmp	r4, ip
 6620 024c E4D1     		bne	.L469
 239:libDaisy/src/hid/disp/display.h ****         {
 6621              		.loc 3 239 26 is_stmt 0 view .LVU1602
 6622 024e BAF1000F 		cmp	r10, #0
 6623 0252 E1D0     		beq	.L469
 6624              	.LVL490:
 6625              	.L675:
 239:libDaisy/src/hid/disp/display.h ****         {
 6626              		.loc 3 239 26 view .LVU1603
 6627 0254 0025     		movs	r5, #0
ARM GAS  C:\Users\yaman\AppData\Local\Temp\ccCu6FW5.s 			page 186


 6628 0256 5B46     		mov	r3, fp
 6629 0258 0595     		str	r5, [sp, #20]
 6630              	.LVL491:
 6631              	.L461:
 239:libDaisy/src/hid/disp/display.h ****         {
 6632              		.loc 3 239 26 view .LVU1604
 6633              	.LBE1836:
 6634              	.LBE1835:
 6635              	.LBB1900:
 6636              	.LBI1900:
 221:libDaisy/src/hid/disp/display.h ****                   uint_fast8_t y1,
 6637              		.loc 3 221 10 is_stmt 1 view .LVU1605
 6638              	.LBB1901:
 227:libDaisy/src/hid/disp/display.h ****         int_fast16_t deltaY = abs((int_fast16_t)y2 - (int_fast16_t)y1);
 6639              		.loc 3 227 52 is_stmt 0 view .LVU1606
 6640 025a A1EB030C 		sub	ip, r1, r3
 227:libDaisy/src/hid/disp/display.h ****         int_fast16_t deltaY = abs((int_fast16_t)y2 - (int_fast16_t)y1);
 6641              		.loc 3 227 22 view .LVU1607
 6642 025e BCF1000F 		cmp	ip, #0
 6643 0262 B8BF     		it	lt
 6644 0264 CCF1000C 		rsblt	ip, ip, #0
 6645              	.LVL492:
 6646              	.LBB1902:
 6647              	.LBB1903:
 6648              	.LBB1904:
 241:libDaisy/src/dev/oled_ssd130x.h ****             return;
 6649              		.loc 13 241 14 view .LVU1608
 6650 0268 3F29     		cmp	r1, #63
 6651 026a 94BF     		ite	ls
 6652 026c 4FF0000B 		movls	fp, #0
 6653 0270 4FF0010B 		movhi	fp, #1
 6654              	.LBE1904:
 6655              	.LBE1903:
 6656              	.LBE1902:
 229:libDaisy/src/hid/disp/display.h ****         int_fast16_t signY  = ((y1 < y2) ? 1 : -1);
 6657              		.loc 3 229 42 view .LVU1609
 6658 0274 9942     		cmp	r1, r3
 6659 0276 8CBF     		ite	hi
 6660 0278 4FF0010E 		movhi	lr, #1
 6661 027c 4FF0FF3E 		movls	lr, #-1
 6662              	.LVL493:
 6663              	.LBB1911:
 6664              	.LBI1902:
  42:libDaisy/src/hid/disp/oled_display.h ****     {
 6665              		.loc 2 42 10 is_stmt 1 view .LVU1610
 6666              	.LBB1909:
 6667              	.LBI1903:
 239:libDaisy/src/dev/oled_ssd130x.h ****     {
 6668              		.loc 13 239 10 view .LVU1611
 6669              	.LBB1907:
 241:libDaisy/src/dev/oled_ssd130x.h ****             return;
 6670              		.loc 13 241 9 is_stmt 0 view .LVU1612
 6671 0280 BBF1000F 		cmp	fp, #0
 6672 0284 40F05582 		bne	.L482
 6673 0288 069D     		ldr	r5, [sp, #24]
 6674 028a 002D     		cmp	r5, #0
 6675 028c 40F05182 		bne	.L482
ARM GAS  C:\Users\yaman\AppData\Local\Temp\ccCu6FW5.s 			page 187


 244:libDaisy/src/dev/oled_ssd130x.h ****         else
 6676              		.loc 13 244 28 view .LVU1613
 6677 0290 E508     		lsrs	r5, r4, #3
 244:libDaisy/src/dev/oled_ssd130x.h ****         else
 6678              		.loc 13 244 42 view .LVU1614
 6679 0292 01EB8515 		add	r5, r1, r5, lsl #6
 6680 0296 0544     		add	r5, r5, r0
 243:libDaisy/src/dev/oled_ssd130x.h ****             buffer_[x + (y / 8) * width] |= (1 << (y % 8));
 6681              		.loc 13 243 9 view .LVU1615
 6682 0298 002F     		cmp	r7, #0
 6683 029a 00F0A882 		beq	.L483
 244:libDaisy/src/dev/oled_ssd130x.h ****         else
 6684              		.loc 13 244 48 view .LVU1616
 6685 029e 4FF00108 		mov	r8, #1
 244:libDaisy/src/dev/oled_ssd130x.h ****         else
 6686              		.loc 13 244 54 view .LVU1617
 6687 02a2 04F00706 		and	r6, r4, #7
 244:libDaisy/src/dev/oled_ssd130x.h ****         else
 6688              		.loc 13 244 48 view .LVU1618
 6689 02a6 08FA06F6 		lsl	r6, r8, r6
 244:libDaisy/src/dev/oled_ssd130x.h ****         else
 6690              		.loc 13 244 42 view .LVU1619
 6691 02aa 95F81080 		ldrb	r8, [r5, #16]	@ zero_extendqisi2
 6692 02ae 46EA0806 		orr	r6, r6, r8
 6693 02b2 2E74     		strb	r6, [r5, #16]
 6694              	.LVL494:
 244:libDaisy/src/dev/oled_ssd130x.h ****         else
 6695              		.loc 13 244 42 view .LVU1620
 6696              	.LBE1907:
 6697              	.LBE1909:
 6698              	.LBE1911:
 239:libDaisy/src/hid/disp/display.h ****         {
 6699              		.loc 3 239 26 is_stmt 1 view .LVU1621
 6700 02b4 039D     		ldr	r5, [sp, #12]
 6701 02b6 15BB     		cbnz	r5, .L484
 6702              	.L485:
 229:libDaisy/src/hid/disp/display.h ****         int_fast16_t signY  = ((y1 < y2) ? 1 : -1);
 6703              		.loc 3 229 42 is_stmt 0 view .LVU1622
 6704 02b8 E046     		mov	r8, ip
 6705 02ba 2646     		mov	r6, r4
 6706              	.LVL495:
 6707              	.L634:
 6708              	.LBB1912:
 6709              	.LBI1912:
  42:libDaisy/src/hid/disp/oled_display.h ****     {
 6710              		.loc 2 42 10 is_stmt 1 view .LVU1623
 6711              	.LBB1913:
 6712              	.LBI1913:
 239:libDaisy/src/dev/oled_ssd130x.h ****     {
 6713              		.loc 13 239 10 view .LVU1624
 6714              	.LBB1914:
 244:libDaisy/src/dev/oled_ssd130x.h ****         else
 6715              		.loc 13 244 28 is_stmt 0 view .LVU1625
 6716 02bc F508     		lsrs	r5, r6, #3
 241:libDaisy/src/dev/oled_ssd130x.h ****             return;
 6717              		.loc 13 241 9 view .LVU1626
 6718 02be 3F2B     		cmp	r3, #63
ARM GAS  C:\Users\yaman\AppData\Local\Temp\ccCu6FW5.s 			page 188


 244:libDaisy/src/dev/oled_ssd130x.h ****         else
 6719              		.loc 13 244 42 view .LVU1627
 6720 02c0 03EB8515 		add	r5, r3, r5, lsl #6
 241:libDaisy/src/dev/oled_ssd130x.h ****             return;
 6721              		.loc 13 241 9 view .LVU1628
 6722 02c4 0ED8     		bhi	.L500
 241:libDaisy/src/dev/oled_ssd130x.h ****             return;
 6723              		.loc 13 241 9 view .LVU1629
 6724 02c6 1F2E     		cmp	r6, #31
 244:libDaisy/src/dev/oled_ssd130x.h ****         else
 6725              		.loc 13 244 42 view .LVU1630
 6726 02c8 0544     		add	r5, r5, r0
 241:libDaisy/src/dev/oled_ssd130x.h ****             return;
 6727              		.loc 13 241 9 view .LVU1631
 6728 02ca 0BD8     		bhi	.L500
 244:libDaisy/src/dev/oled_ssd130x.h ****         else
 6729              		.loc 13 244 54 view .LVU1632
 6730 02cc 06F0070A 		and	r10, r6, #7
 244:libDaisy/src/dev/oled_ssd130x.h ****         else
 6731              		.loc 13 244 48 view .LVU1633
 6732 02d0 4FF00109 		mov	r9, #1
 6733 02d4 09FA0AF9 		lsl	r9, r9, r10
 244:libDaisy/src/dev/oled_ssd130x.h ****         else
 6734              		.loc 13 244 42 view .LVU1634
 6735 02d8 95F810A0 		ldrb	r10, [r5, #16]	@ zero_extendqisi2
 6736 02dc 49EA0A09 		orr	r9, r9, r10
 6737 02e0 85F81090 		strb	r9, [r5, #16]
 6738              	.L500:
 244:libDaisy/src/dev/oled_ssd130x.h ****         else
 6739              		.loc 13 244 42 view .LVU1635
 6740              	.LBE1914:
 6741              	.LBE1913:
 6742              	.LBE1912:
 243:libDaisy/src/hid/disp/display.h ****             {
 6743              		.loc 3 243 13 view .LVU1636
 6744 02e4 5FEA4805 		lsls	r5, r8, #1
 246:libDaisy/src/hid/disp/display.h ****             }
 6745              		.loc 3 246 20 view .LVU1637
 6746 02e8 18BF     		it	ne
 6747 02ea 7344     		addne	r3, r3, lr
 6748              	.LVL496:
 249:libDaisy/src/hid/disp/display.h ****             {
 6749              		.loc 3 249 13 view .LVU1638
 6750 02ec AC45     		cmp	ip, r5
 6751 02ee 40F3E780 		ble	.L502
 252:libDaisy/src/hid/disp/display.h ****             }
 6752              		.loc 3 252 20 view .LVU1639
 6753 02f2 013E     		subs	r6, r6, #1
 6754              	.LVL497:
 251:libDaisy/src/hid/disp/display.h ****                 y1 += signY;
 6755              		.loc 3 251 23 view .LVU1640
 6756 02f4 E044     		add	r8, r8, ip
 6757              	.LVL498:
 239:libDaisy/src/hid/disp/display.h ****         {
 6758              		.loc 3 239 26 is_stmt 1 view .LVU1641
 6759 02f6 B442     		cmp	r4, r6
 6760 02f8 E0D1     		bne	.L634
ARM GAS  C:\Users\yaman\AppData\Local\Temp\ccCu6FW5.s 			page 189


 6761 02fa 9942     		cmp	r1, r3
 6762 02fc DED1     		bne	.L634
 6763              	.LVL499:
 6764              	.L484:
 239:libDaisy/src/hid/disp/display.h ****         {
 6765              		.loc 3 239 26 is_stmt 0 view .LVU1642
 6766              	.LBE1901:
 6767              	.LBE1900:
 6768              	.LBB1947:
 6769              	.LBI1947:
 221:libDaisy/src/hid/disp/display.h ****                   uint_fast8_t y1,
 6770              		.loc 3 221 10 is_stmt 1 view .LVU1643
 6771              	.LBB1948:
 228:libDaisy/src/hid/disp/display.h ****         int_fast16_t signX  = ((x1 < x2) ? 1 : -1);
 6772              		.loc 3 228 52 is_stmt 0 view .LVU1644
 6773 02fe A2EB040E 		sub	lr, r2, r4
 228:libDaisy/src/hid/disp/display.h ****         int_fast16_t signX  = ((x1 < x2) ? 1 : -1);
 6774              		.loc 3 228 22 view .LVU1645
 6775 0302 BEF1000F 		cmp	lr, #0
 6776 0306 B8BF     		it	lt
 6777 0308 CEF1000E 		rsblt	lr, lr, #0
 6778              	.LVL500:
 230:libDaisy/src/hid/disp/display.h ****         int_fast16_t error  = deltaX - deltaY;
 6779              		.loc 3 230 42 view .LVU1646
 6780 030c A242     		cmp	r2, r4
 6781 030e 8CBF     		ite	hi
 6782 0310 0125     		movhi	r5, #1
 6783 0312 4FF0FF35 		movls	r5, #-1
 231:libDaisy/src/hid/disp/display.h ****         int_fast16_t error2;
 6784              		.loc 3 231 22 view .LVU1647
 6785 0316 CEF1000C 		rsb	ip, lr, #0
 6786              	.LVL501:
 6787              	.LBB1949:
 6788              	.LBI1949:
  42:libDaisy/src/hid/disp/oled_display.h ****     {
 6789              		.loc 2 42 10 is_stmt 1 view .LVU1648
 6790              	.LBB1950:
 6791              	.LBI1950:
 239:libDaisy/src/dev/oled_ssd130x.h ****     {
 6792              		.loc 13 239 10 view .LVU1649
 6793              	.LBB1951:
 241:libDaisy/src/dev/oled_ssd130x.h ****             return;
 6794              		.loc 13 241 9 is_stmt 0 view .LVU1650
 6795 031a BBF1000F 		cmp	fp, #0
 6796 031e 40F0B681 		bne	.L505
 6797 0322 079B     		ldr	r3, [sp, #28]
 6798 0324 002B     		cmp	r3, #0
 6799 0326 40F0B281 		bne	.L505
 244:libDaisy/src/dev/oled_ssd130x.h ****         else
 6800              		.loc 13 244 28 view .LVU1651
 6801 032a D308     		lsrs	r3, r2, #3
 244:libDaisy/src/dev/oled_ssd130x.h ****         else
 6802              		.loc 13 244 42 view .LVU1652
 6803 032c 01EB8313 		add	r3, r1, r3, lsl #6
 6804 0330 0344     		add	r3, r3, r0
 243:libDaisy/src/dev/oled_ssd130x.h ****             buffer_[x + (y / 8) * width] |= (1 << (y % 8));
 6805              		.loc 13 243 9 view .LVU1653
ARM GAS  C:\Users\yaman\AppData\Local\Temp\ccCu6FW5.s 			page 190


 6806 0332 002F     		cmp	r7, #0
 6807 0334 00F07782 		beq	.L506
 244:libDaisy/src/dev/oled_ssd130x.h ****         else
 6808              		.loc 13 244 54 view .LVU1654
 6809 0338 02F00707 		and	r7, r2, #7
 6810              	.LVL502:
 244:libDaisy/src/dev/oled_ssd130x.h ****         else
 6811              		.loc 13 244 48 view .LVU1655
 6812 033c 0126     		movs	r6, #1
 6813 033e BE40     		lsls	r6, r6, r7
 244:libDaisy/src/dev/oled_ssd130x.h ****         else
 6814              		.loc 13 244 42 view .LVU1656
 6815 0340 1F7C     		ldrb	r7, [r3, #16]	@ zero_extendqisi2
 6816 0342 3E43     		orrs	r6, r6, r7
 6817 0344 1E74     		strb	r6, [r3, #16]
 6818              	.LVL503:
 244:libDaisy/src/dev/oled_ssd130x.h ****         else
 6819              		.loc 13 244 42 view .LVU1657
 6820              	.LBE1951:
 6821              	.LBE1950:
 6822              	.LBE1949:
 239:libDaisy/src/hid/disp/display.h ****         {
 6823              		.loc 3 239 26 is_stmt 1 view .LVU1658
 6824 0346 059B     		ldr	r3, [sp, #20]
 6825 0348 002B     		cmp	r3, #0
 6826 034a 7FF488AE 		bne	.L424
 6827              	.L507:
 230:libDaisy/src/hid/disp/display.h ****         int_fast16_t error  = deltaX - deltaY;
 6828              		.loc 3 230 42 is_stmt 0 view .LVU1659
 6829 034e 6746     		mov	r7, ip
 6830 0350 0E46     		mov	r6, r1
 6831 0352 8946     		mov	r9, r1
 6832              	.LVL504:
 6833              	.L519:
 6834              	.LBB1956:
 6835              	.LBI1956:
  42:libDaisy/src/hid/disp/oled_display.h ****     {
 6836              		.loc 2 42 10 is_stmt 1 view .LVU1660
 6837              	.LBB1957:
 6838              	.LBI1957:
 239:libDaisy/src/dev/oled_ssd130x.h ****     {
 6839              		.loc 13 239 10 view .LVU1661
 6840              	.LBB1958:
 244:libDaisy/src/dev/oled_ssd130x.h ****         else
 6841              		.loc 13 244 28 is_stmt 0 view .LVU1662
 6842 0354 E308     		lsrs	r3, r4, #3
 241:libDaisy/src/dev/oled_ssd130x.h ****             return;
 6843              		.loc 13 241 9 view .LVU1663
 6844 0356 3F2E     		cmp	r6, #63
 6845              	.LBE1958:
 6846              	.LBE1957:
 6847              	.LBE1956:
 242:libDaisy/src/hid/disp/display.h ****             if(error2 > -deltaY)
 6848              		.loc 3 242 20 view .LVU1664
 6849 0358 4FEA4701 		lsl	r1, r7, #1
 6850              	.LVL505:
 6851              	.LBB1985:
ARM GAS  C:\Users\yaman\AppData\Local\Temp\ccCu6FW5.s 			page 191


 6852              	.LBB1980:
 6853              	.LBB1975:
 244:libDaisy/src/dev/oled_ssd130x.h ****         else
 6854              		.loc 13 244 42 view .LVU1665
 6855 035c 06EB8313 		add	r3, r6, r3, lsl #6
 241:libDaisy/src/dev/oled_ssd130x.h ****             return;
 6856              		.loc 13 241 9 view .LVU1666
 6857 0360 0ED8     		bhi	.L524
 241:libDaisy/src/dev/oled_ssd130x.h ****             return;
 6858              		.loc 13 241 9 view .LVU1667
 6859 0362 1F2C     		cmp	r4, #31
 244:libDaisy/src/dev/oled_ssd130x.h ****         else
 6860              		.loc 13 244 42 view .LVU1668
 6861 0364 0344     		add	r3, r3, r0
 241:libDaisy/src/dev/oled_ssd130x.h ****             return;
 6862              		.loc 13 241 9 view .LVU1669
 6863 0366 0BD8     		bhi	.L524
 244:libDaisy/src/dev/oled_ssd130x.h ****         else
 6864              		.loc 13 244 54 view .LVU1670
 6865 0368 04F0070A 		and	r10, r4, #7
 244:libDaisy/src/dev/oled_ssd130x.h ****         else
 6866              		.loc 13 244 48 view .LVU1671
 6867 036c 4FF00108 		mov	r8, #1
 6868 0370 08FA0AF8 		lsl	r8, r8, r10
 244:libDaisy/src/dev/oled_ssd130x.h ****         else
 6869              		.loc 13 244 42 view .LVU1672
 6870 0374 93F810A0 		ldrb	r10, [r3, #16]	@ zero_extendqisi2
 6871 0378 48EA0A08 		orr	r8, r8, r10
 6872 037c 83F81080 		strb	r8, [r3, #16]
 6873              	.L524:
 244:libDaisy/src/dev/oled_ssd130x.h ****         else
 6874              		.loc 13 244 42 view .LVU1673
 6875              	.LBE1975:
 6876              	.LBE1980:
 6877              	.LBE1985:
 243:libDaisy/src/hid/disp/display.h ****             {
 6878              		.loc 3 243 13 view .LVU1674
 6879 0380 BCEB470F 		cmp	ip, r7, lsl #1
 6880 0384 02DA     		bge	.L525
 246:libDaisy/src/hid/disp/display.h ****             }
 6881              		.loc 3 246 20 view .LVU1675
 6882 0386 013E     		subs	r6, r6, #1
 6883              	.LVL506:
 245:libDaisy/src/hid/disp/display.h ****                 x1 += signX;
 6884              		.loc 3 245 23 view .LVU1676
 6885 0388 A7EB0E07 		sub	r7, r7, lr
 6886              	.LVL507:
 6887              	.L525:
 249:libDaisy/src/hid/disp/display.h ****             {
 6888              		.loc 3 249 13 view .LVU1677
 6889 038c 01B1     		cbz	r1, .L526
 252:libDaisy/src/hid/disp/display.h ****             }
 6890              		.loc 3 252 20 view .LVU1678
 6891 038e 2C44     		add	r4, r4, r5
 6892              	.LVL508:
 6893              	.L526:
 239:libDaisy/src/hid/disp/display.h ****         {
ARM GAS  C:\Users\yaman\AppData\Local\Temp\ccCu6FW5.s 			page 192


 6894              		.loc 3 239 26 is_stmt 1 view .LVU1679
 239:libDaisy/src/hid/disp/display.h ****         {
 6895              		.loc 3 239 19 is_stmt 0 view .LVU1680
 6896 0390 A9EB0603 		sub	r3, r9, r6
 239:libDaisy/src/hid/disp/display.h ****         {
 6897              		.loc 3 239 26 view .LVU1681
 6898 0394 A242     		cmp	r2, r4
 239:libDaisy/src/hid/disp/display.h ****         {
 6899              		.loc 3 239 19 view .LVU1682
 6900 0396 B3FA83F3 		clz	r3, r3
 6901 039a 4FEA5313 		lsr	r3, r3, #5
 239:libDaisy/src/hid/disp/display.h ****         {
 6902              		.loc 3 239 26 view .LVU1683
 6903 039e 02D1     		bne	.L561
 239:libDaisy/src/hid/disp/display.h ****         {
 6904              		.loc 3 239 26 view .LVU1684
 6905 03a0 002B     		cmp	r3, #0
 6906 03a2 7FF45CAE 		bne	.L424
 6907              	.L561:
 239:libDaisy/src/hid/disp/display.h ****         {
 6908              		.loc 3 239 26 view .LVU1685
 6909 03a6 8C45     		cmp	ip, r1
 6910 03a8 D4DB     		blt	.L519
 6911 03aa 9846     		mov	r8, r3
 6912              	.LVL509:
 6913              	.L523:
 6914              	.LBB1986:
  42:libDaisy/src/hid/disp/oled_display.h ****     {
 6915              		.loc 2 42 10 is_stmt 1 view .LVU1686
 6916              	.LBB1981:
 239:libDaisy/src/dev/oled_ssd130x.h ****     {
 6917              		.loc 13 239 10 view .LVU1687
 6918              	.LBB1976:
 244:libDaisy/src/dev/oled_ssd130x.h ****         else
 6919              		.loc 13 244 28 is_stmt 0 view .LVU1688
 6920 03ac E308     		lsrs	r3, r4, #3
 241:libDaisy/src/dev/oled_ssd130x.h ****             return;
 6921              		.loc 13 241 9 view .LVU1689
 6922 03ae 1F2C     		cmp	r4, #31
 244:libDaisy/src/dev/oled_ssd130x.h ****         else
 6923              		.loc 13 244 54 view .LVU1690
 6924 03b0 04F0070C 		and	ip, r4, #7
 244:libDaisy/src/dev/oled_ssd130x.h ****         else
 6925              		.loc 13 244 42 view .LVU1691
 6926 03b4 06EB8313 		add	r3, r6, r3, lsl #6
 241:libDaisy/src/dev/oled_ssd130x.h ****             return;
 6927              		.loc 13 241 9 view .LVU1692
 6928 03b8 0AD8     		bhi	.L520
 241:libDaisy/src/dev/oled_ssd130x.h ****             return;
 6929              		.loc 13 241 9 view .LVU1693
 6930 03ba 3F2E     		cmp	r6, #63
 244:libDaisy/src/dev/oled_ssd130x.h ****         else
 6931              		.loc 13 244 42 view .LVU1694
 6932 03bc 0344     		add	r3, r3, r0
 241:libDaisy/src/dev/oled_ssd130x.h ****             return;
 6933              		.loc 13 241 9 view .LVU1695
 6934 03be 07D8     		bhi	.L520
ARM GAS  C:\Users\yaman\AppData\Local\Temp\ccCu6FW5.s 			page 193


 244:libDaisy/src/dev/oled_ssd130x.h ****         else
 6935              		.loc 13 244 48 view .LVU1696
 6936 03c0 0121     		movs	r1, #1
 6937 03c2 01FA0CF1 		lsl	r1, r1, ip
 244:libDaisy/src/dev/oled_ssd130x.h ****         else
 6938              		.loc 13 244 42 view .LVU1697
 6939 03c6 93F810C0 		ldrb	ip, [r3, #16]	@ zero_extendqisi2
 6940 03ca 41EA0C01 		orr	r1, r1, ip
 6941 03ce 1974     		strb	r1, [r3, #16]
 6942              	.L520:
 244:libDaisy/src/dev/oled_ssd130x.h ****         else
 6943              		.loc 13 244 42 view .LVU1698
 6944              	.LBE1976:
 6945              	.LBE1981:
 6946              	.LBE1986:
 249:libDaisy/src/hid/disp/display.h ****             {
 6947              		.loc 3 249 13 view .LVU1699
 6948 03d0 07B1     		cbz	r7, .L521
 252:libDaisy/src/hid/disp/display.h ****             }
 6949              		.loc 3 252 20 view .LVU1700
 6950 03d2 2C44     		add	r4, r4, r5
 6951              	.LVL510:
 6952              	.L521:
 239:libDaisy/src/hid/disp/display.h ****         {
 6953              		.loc 3 239 26 is_stmt 1 view .LVU1701
 6954 03d4 A242     		cmp	r2, r4
 6955 03d6 E9D1     		bne	.L523
 239:libDaisy/src/hid/disp/display.h ****         {
 6956              		.loc 3 239 26 is_stmt 0 view .LVU1702
 6957 03d8 B8F1000F 		cmp	r8, #0
 6958 03dc E6D0     		beq	.L523
 6959              	.LBE1948:
 6960              	.LBE1947:
 6961              	.LBE1775:
 281:libDaisy/src/hid/disp/display.h **** 
 6962              		.loc 3 281 5 view .LVU1703
 6963 03de 09B0     		add	sp, sp, #36
 6964              		.cfi_remember_state
 6965              		.cfi_def_cfa_offset 36
 6966              		@ sp needed
 6967 03e0 BDE8F08F 		pop	{r4, r5, r6, r7, r8, r9, r10, fp, pc}
 6968              	.LVL511:
 6969              	.L434:
 6970              		.cfi_restore_state
 6971              	.LBB2007:
 6972              	.LBB1993:
 6973              	.LBB1829:
 6974              	.LBB1823:
  42:libDaisy/src/hid/disp/oled_display.h ****     {
 6975              		.loc 2 42 10 is_stmt 1 view .LVU1704
 6976              	.LBB1790:
 239:libDaisy/src/dev/oled_ssd130x.h ****     {
 6977              		.loc 13 239 10 view .LVU1705
 6978              	.LBB1786:
 241:libDaisy/src/dev/oled_ssd130x.h ****             return;
 6979              		.loc 13 241 28 is_stmt 0 view .LVU1706
 6980 03e4 1F2A     		cmp	r2, #31
ARM GAS  C:\Users\yaman\AppData\Local\Temp\ccCu6FW5.s 			page 194


 241:libDaisy/src/dev/oled_ssd130x.h ****             return;
 6981              		.loc 13 241 9 view .LVU1707
 6982 03e6 4FF0010B 		mov	fp, #1
 241:libDaisy/src/dev/oled_ssd130x.h ****             return;
 6983              		.loc 13 241 28 view .LVU1708
 6984 03ea 94BF     		ite	ls
 6985 03ec 0025     		movls	r5, #0
 6986 03ee 0125     		movhi	r5, #1
 241:libDaisy/src/dev/oled_ssd130x.h ****             return;
 6987              		.loc 13 241 14 view .LVU1709
 6988 03f0 3F2B     		cmp	r3, #63
 241:libDaisy/src/dev/oled_ssd130x.h ****             return;
 6989              		.loc 13 241 28 view .LVU1710
 6990 03f2 0795     		str	r5, [sp, #28]
 241:libDaisy/src/dev/oled_ssd130x.h ****             return;
 6991              		.loc 13 241 14 view .LVU1711
 6992 03f4 94BF     		ite	ls
 6993 03f6 0026     		movls	r6, #0
 6994 03f8 0126     		movhi	r6, #1
 6995 03fa 0196     		str	r6, [sp, #4]
 241:libDaisy/src/dev/oled_ssd130x.h ****             return;
 6996              		.loc 13 241 9 view .LVU1712
 6997 03fc 15B9     		cbnz	r5, .L440
 6998 03fe 002E     		cmp	r6, #0
 6999 0400 3FF464AE 		beq	.L528
 7000              	.LVL512:
 7001              	.L440:
 241:libDaisy/src/dev/oled_ssd130x.h ****             return;
 7002              		.loc 13 241 9 view .LVU1713
 7003 0404 002F     		cmp	r7, #0
 7004 0406 7FF479AE 		bne	.L438
 7005              	.L439:
 7006              	.LBE1786:
 7007              	.LBE1790:
 7008              	.LBE1823:
 239:libDaisy/src/hid/disp/display.h ****         {
 7009              		.loc 3 239 26 view .LVU1714
 7010 040a F046     		mov	r8, lr
 7011 040c 1646     		mov	r6, r2
 7012 040e 8C46     		mov	ip, r1
 7013              	.L449:
 7014              	.LVL513:
 7015              	.LBB1824:
  42:libDaisy/src/hid/disp/oled_display.h ****     {
 7016              		.loc 2 42 10 is_stmt 1 view .LVU1715
 7017              	.LBB1818:
 239:libDaisy/src/dev/oled_ssd130x.h ****     {
 7018              		.loc 13 239 10 view .LVU1716
 7019              	.LBB1813:
 7020              	.LBB1797:
 7021              	.LBI1797:
 239:libDaisy/src/dev/oled_ssd130x.h ****     {
 7022              		.loc 13 239 10 view .LVU1717
 7023              	.LBB1798:
 246:libDaisy/src/dev/oled_ssd130x.h ****     }
 7024              		.loc 13 246 28 is_stmt 0 view .LVU1718
 7025 0410 F508     		lsrs	r5, r6, #3
ARM GAS  C:\Users\yaman\AppData\Local\Temp\ccCu6FW5.s 			page 195


 7026              	.LBE1798:
 7027              	.LBE1797:
 241:libDaisy/src/dev/oled_ssd130x.h ****             return;
 7028              		.loc 13 241 9 view .LVU1719
 7029 0412 BCF13F0F 		cmp	ip, #63
 7030              	.LBB1806:
 7031              	.LBB1799:
 246:libDaisy/src/dev/oled_ssd130x.h ****     }
 7032              		.loc 13 246 42 view .LVU1720
 7033 0416 0CEB8515 		add	r5, ip, r5, lsl #6
 7034              	.LBE1799:
 7035              	.LBE1806:
 241:libDaisy/src/dev/oled_ssd130x.h ****             return;
 7036              		.loc 13 241 9 view .LVU1721
 7037 041a 0ED8     		bhi	.L445
 7038 041c 1F2E     		cmp	r6, #31
 7039              	.LBB1807:
 7040              	.LBB1800:
 246:libDaisy/src/dev/oled_ssd130x.h ****     }
 7041              		.loc 13 246 42 view .LVU1722
 7042 041e 0544     		add	r5, r5, r0
 7043              	.LBE1800:
 7044              	.LBE1807:
 241:libDaisy/src/dev/oled_ssd130x.h ****             return;
 7045              		.loc 13 241 9 view .LVU1723
 7046 0420 0BD8     		bhi	.L445
 7047              	.LBB1808:
 7048              	.LBB1801:
 246:libDaisy/src/dev/oled_ssd130x.h ****     }
 7049              		.loc 13 246 49 view .LVU1724
 7050 0422 4FF00109 		mov	r9, #1
 246:libDaisy/src/dev/oled_ssd130x.h ****     }
 7051              		.loc 13 246 55 view .LVU1725
 7052 0426 06F0070A 		and	r10, r6, #7
 246:libDaisy/src/dev/oled_ssd130x.h ****     }
 7053              		.loc 13 246 49 view .LVU1726
 7054 042a 09FA0AFA 		lsl	r10, r9, r10
 246:libDaisy/src/dev/oled_ssd130x.h ****     }
 7055              		.loc 13 246 42 view .LVU1727
 7056 042e 95F81090 		ldrb	r9, [r5, #16]	@ zero_extendqisi2
 7057 0432 29EA0A09 		bic	r9, r9, r10
 7058 0436 85F81090 		strb	r9, [r5, #16]
 7059              	.L445:
 246:libDaisy/src/dev/oled_ssd130x.h ****     }
 7060              		.loc 13 246 42 view .LVU1728
 7061              	.LBE1801:
 7062              	.LBE1808:
 7063              	.LBE1813:
 7064              	.LBE1818:
 7065              	.LBE1824:
 243:libDaisy/src/hid/disp/display.h ****             {
 7066              		.loc 3 243 13 view .LVU1729
 7067 043a 5FEA4805 		lsls	r5, r8, #1
 246:libDaisy/src/hid/disp/display.h ****             }
 7068              		.loc 3 246 20 view .LVU1730
 7069 043e 18BF     		it	ne
 7070 0440 DC44     		addne	ip, ip, fp
ARM GAS  C:\Users\yaman\AppData\Local\Temp\ccCu6FW5.s 			page 196


 7071              	.LVL514:
 249:libDaisy/src/hid/disp/display.h ****             {
 7072              		.loc 3 249 13 view .LVU1731
 7073 0442 AE45     		cmp	lr, r5
 7074 0444 6EDD     		ble	.L447
 252:libDaisy/src/hid/disp/display.h ****             }
 7075              		.loc 3 252 20 view .LVU1732
 7076 0446 013E     		subs	r6, r6, #1
 7077              	.LVL515:
 251:libDaisy/src/hid/disp/display.h ****                 y1 += signY;
 7078              		.loc 3 251 23 view .LVU1733
 7079 0448 F044     		add	r8, r8, lr
 7080              	.LVL516:
 239:libDaisy/src/hid/disp/display.h ****         {
 7081              		.loc 3 239 26 is_stmt 1 view .LVU1734
 7082 044a B242     		cmp	r2, r6
 7083 044c E0D1     		bne	.L449
 7084 044e 6345     		cmp	r3, ip
 7085 0450 DED1     		bne	.L449
 7086 0452 78E6     		b	.L550
 7087              	.LVL517:
 7088              	.L456:
 239:libDaisy/src/hid/disp/display.h ****         {
 7089              		.loc 3 239 26 view .LVU1735
 239:libDaisy/src/hid/disp/display.h ****         {
 7090              		.loc 3 239 33 is_stmt 0 view .LVU1736
 7091 0454 951B     		subs	r5, r2, r6
 7092 0456 B5FA85F5 		clz	r5, r5
 7093 045a 6D09     		lsrs	r5, r5, #5
 7094 045c 0295     		str	r5, [sp, #8]
 239:libDaisy/src/hid/disp/display.h ****         {
 7095              		.loc 3 239 26 view .LVU1737
 7096 045e 6345     		cmp	r3, ip
 7097 0460 14BF     		ite	ne
 7098 0462 0025     		movne	r5, #0
 7099 0464 05F00105 		andeq	r5, r5, #1
 7100 0468 0395     		str	r5, [sp, #12]
 7101 046a 002D     		cmp	r5, #0
 7102 046c 7FF46BAE 		bne	.L550
 7103              	.LBB1825:
 7104              	.LBB1819:
 7105              	.LBB1814:
 244:libDaisy/src/dev/oled_ssd130x.h ****         else
 7106              		.loc 13 244 54 view .LVU1738
 7107 0470 06F00709 		and	r9, r6, #7
 244:libDaisy/src/dev/oled_ssd130x.h ****         else
 7108              		.loc 13 244 48 view .LVU1739
 7109 0474 4FF0010E 		mov	lr, #1
 7110              	.LVL518:
 244:libDaisy/src/dev/oled_ssd130x.h ****         else
 7111              		.loc 13 244 48 view .LVU1740
 7112 0478 0EFA09FE 		lsl	lr, lr, r9
 244:libDaisy/src/dev/oled_ssd130x.h ****         else
 7113              		.loc 13 244 42 view .LVU1741
 7114 047c 4FFA8EFA 		sxtb	r10, lr
 244:libDaisy/src/dev/oled_ssd130x.h ****         else
 7115              		.loc 13 244 28 view .LVU1742
ARM GAS  C:\Users\yaman\AppData\Local\Temp\ccCu6FW5.s 			page 197


 7116 0480 4FEAD60E 		lsr	lr, r6, #3
 244:libDaisy/src/dev/oled_ssd130x.h ****         else
 7117              		.loc 13 244 42 view .LVU1743
 7118 0484 4FEA8E15 		lsl	r5, lr, #6
 7119 0488 0495     		str	r5, [sp, #16]
 7120 048a 029D     		ldr	r5, [sp, #8]
 7121 048c 0292     		str	r2, [sp, #8]
 7122              	.LVL519:
 7123              	.L444:
 244:libDaisy/src/dev/oled_ssd130x.h ****         else
 7124              		.loc 13 244 42 view .LVU1744
 7125              	.LBE1814:
 7126              	.LBE1819:
  42:libDaisy/src/hid/disp/oled_display.h ****     {
 7127              		.loc 2 42 10 is_stmt 1 view .LVU1745
 7128              	.LBB1820:
 239:libDaisy/src/dev/oled_ssd130x.h ****     {
 7129              		.loc 13 239 10 view .LVU1746
 7130              	.LBB1815:
 244:libDaisy/src/dev/oled_ssd130x.h ****         else
 7131              		.loc 13 244 42 is_stmt 0 view .LVU1747
 7132 048e 049A     		ldr	r2, [sp, #16]
 241:libDaisy/src/dev/oled_ssd130x.h ****             return;
 7133              		.loc 13 241 9 view .LVU1748
 7134 0490 BCF13F0F 		cmp	ip, #63
 244:libDaisy/src/dev/oled_ssd130x.h ****         else
 7135              		.loc 13 244 42 view .LVU1749
 7136 0494 0CEB020E 		add	lr, ip, r2
 7137 0498 8644     		add	lr, lr, r0
 241:libDaisy/src/dev/oled_ssd130x.h ****             return;
 7138              		.loc 13 241 9 view .LVU1750
 7139 049a 07D8     		bhi	.L441
 241:libDaisy/src/dev/oled_ssd130x.h ****             return;
 7140              		.loc 13 241 9 view .LVU1751
 7141 049c 1F2E     		cmp	r6, #31
 7142 049e 05D8     		bhi	.L441
 244:libDaisy/src/dev/oled_ssd130x.h ****         else
 7143              		.loc 13 244 42 view .LVU1752
 7144 04a0 9EF81090 		ldrb	r9, [lr, #16]	@ zero_extendqisi2
 7145 04a4 4AEA0909 		orr	r9, r10, r9
 7146 04a8 8EF81090 		strb	r9, [lr, #16]
 7147              	.L441:
 7148              	.LBE1815:
 7149              	.LBE1820:
 7150              	.LBE1825:
 243:libDaisy/src/hid/disp/display.h ****             {
 7151              		.loc 3 243 13 view .LVU1753
 7152 04ac B8F1000F 		cmp	r8, #0
 7153 04b0 00D0     		beq	.L442
 246:libDaisy/src/hid/disp/display.h ****             }
 7154              		.loc 3 246 20 view .LVU1754
 7155 04b2 DC44     		add	ip, ip, fp
 7156              	.LVL520:
 7157              	.L442:
 239:libDaisy/src/hid/disp/display.h ****         {
 7158              		.loc 3 239 26 is_stmt 1 view .LVU1755
 7159 04b4 6345     		cmp	r3, ip
ARM GAS  C:\Users\yaman\AppData\Local\Temp\ccCu6FW5.s 			page 198


 7160 04b6 EAD1     		bne	.L444
 239:libDaisy/src/hid/disp/display.h ****         {
 7161              		.loc 3 239 26 is_stmt 0 view .LVU1756
 7162 04b8 002D     		cmp	r5, #0
 7163 04ba E8D0     		beq	.L444
 7164              	.LVL521:
 7165              	.L674:
 239:libDaisy/src/hid/disp/display.h ****         {
 7166              		.loc 3 239 26 view .LVU1757
 7167 04bc 029A     		ldr	r2, [sp, #8]
 7168 04be 44E6     		b	.L437
 7169              	.LVL522:
 7170              	.L502:
 239:libDaisy/src/hid/disp/display.h ****         {
 7171              		.loc 3 239 26 view .LVU1758
 7172              	.LBE1829:
 7173              	.LBE1993:
 7174              	.LBB1994:
 7175              	.LBB1945:
 239:libDaisy/src/hid/disp/display.h ****         {
 7176              		.loc 3 239 26 is_stmt 1 view .LVU1759
 239:libDaisy/src/hid/disp/display.h ****         {
 7177              		.loc 3 239 33 is_stmt 0 view .LVU1760
 7178 04c0 A51B     		subs	r5, r4, r6
 239:libDaisy/src/hid/disp/display.h ****         {
 7179              		.loc 3 239 26 view .LVU1761
 7180 04c2 9942     		cmp	r1, r3
 239:libDaisy/src/hid/disp/display.h ****         {
 7181              		.loc 3 239 33 view .LVU1762
 7182 04c4 B5FA85F5 		clz	r5, r5
 7183 04c8 4FEA5515 		lsr	r5, r5, #5
 7184 04cc 0195     		str	r5, [sp, #4]
 239:libDaisy/src/hid/disp/display.h ****         {
 7185              		.loc 3 239 26 view .LVU1763
 7186 04ce 02D1     		bne	.L532
 7187 04d0 002D     		cmp	r5, #0
 7188 04d2 7FF414AF 		bne	.L484
 7189              	.L532:
 7190              	.LBB1941:
 7191              	.LBB1936:
 7192              	.LBB1931:
 244:libDaisy/src/dev/oled_ssd130x.h ****         else
 7193              		.loc 13 244 54 view .LVU1764
 7194 04d6 06F00709 		and	r9, r6, #7
 244:libDaisy/src/dev/oled_ssd130x.h ****         else
 7195              		.loc 13 244 48 view .LVU1765
 7196 04da 4FF0010C 		mov	ip, #1
 7197              	.LVL523:
 244:libDaisy/src/dev/oled_ssd130x.h ****         else
 7198              		.loc 13 244 48 view .LVU1766
 7199 04de 0CFA09FC 		lsl	ip, ip, r9
 244:libDaisy/src/dev/oled_ssd130x.h ****         else
 7200              		.loc 13 244 42 view .LVU1767
 7201 04e2 4FFA8CFA 		sxtb	r10, ip
 244:libDaisy/src/dev/oled_ssd130x.h ****         else
 7202              		.loc 13 244 28 view .LVU1768
 7203 04e6 4FEAD60C 		lsr	ip, r6, #3
ARM GAS  C:\Users\yaman\AppData\Local\Temp\ccCu6FW5.s 			page 199


 244:libDaisy/src/dev/oled_ssd130x.h ****         else
 7204              		.loc 13 244 42 view .LVU1769
 7205 04ea 4FEA8C15 		lsl	r5, ip, #6
 7206 04ee 0295     		str	r5, [sp, #8]
 7207 04f0 019D     		ldr	r5, [sp, #4]
 7208 04f2 0192     		str	r2, [sp, #4]
 7209              	.LVL524:
 7210              	.L499:
 244:libDaisy/src/dev/oled_ssd130x.h ****         else
 7211              		.loc 13 244 42 view .LVU1770
 7212              	.LBE1931:
 7213              	.LBE1936:
  42:libDaisy/src/hid/disp/oled_display.h ****     {
 7214              		.loc 2 42 10 is_stmt 1 view .LVU1771
 7215              	.LBB1937:
 239:libDaisy/src/dev/oled_ssd130x.h ****     {
 7216              		.loc 13 239 10 view .LVU1772
 7217              	.LBB1932:
 244:libDaisy/src/dev/oled_ssd130x.h ****         else
 7218              		.loc 13 244 42 is_stmt 0 view .LVU1773
 7219 04f4 029A     		ldr	r2, [sp, #8]
 241:libDaisy/src/dev/oled_ssd130x.h ****             return;
 7220              		.loc 13 241 9 view .LVU1774
 7221 04f6 3F2B     		cmp	r3, #63
 244:libDaisy/src/dev/oled_ssd130x.h ****         else
 7222              		.loc 13 244 42 view .LVU1775
 7223 04f8 02EB030C 		add	ip, r2, r3
 7224 04fc 8444     		add	ip, ip, r0
 241:libDaisy/src/dev/oled_ssd130x.h ****             return;
 7225              		.loc 13 241 9 view .LVU1776
 7226 04fe 07D8     		bhi	.L496
 241:libDaisy/src/dev/oled_ssd130x.h ****             return;
 7227              		.loc 13 241 9 view .LVU1777
 7228 0500 1F2E     		cmp	r6, #31
 7229 0502 05D8     		bhi	.L496
 244:libDaisy/src/dev/oled_ssd130x.h ****         else
 7230              		.loc 13 244 42 view .LVU1778
 7231 0504 9CF81090 		ldrb	r9, [ip, #16]	@ zero_extendqisi2
 7232 0508 4AEA0909 		orr	r9, r10, r9
 7233 050c 8CF81090 		strb	r9, [ip, #16]
 7234              	.L496:
 7235              	.LBE1932:
 7236              	.LBE1937:
 7237              	.LBE1941:
 243:libDaisy/src/hid/disp/display.h ****             {
 7238              		.loc 3 243 13 view .LVU1779
 7239 0510 B8F1000F 		cmp	r8, #0
 7240 0514 00D0     		beq	.L497
 246:libDaisy/src/hid/disp/display.h ****             }
 7241              		.loc 3 246 20 view .LVU1780
 7242 0516 7344     		add	r3, r3, lr
 7243              	.LVL525:
 7244              	.L497:
 239:libDaisy/src/hid/disp/display.h ****         {
 7245              		.loc 3 239 26 is_stmt 1 view .LVU1781
 7246 0518 9942     		cmp	r1, r3
 7247 051a EBD1     		bne	.L499
ARM GAS  C:\Users\yaman\AppData\Local\Temp\ccCu6FW5.s 			page 200


 239:libDaisy/src/hid/disp/display.h ****         {
 7248              		.loc 3 239 26 is_stmt 0 view .LVU1782
 7249 051c 002D     		cmp	r5, #0
 7250 051e E9D0     		beq	.L499
 7251              	.LVL526:
 7252              	.L676:
 239:libDaisy/src/hid/disp/display.h ****         {
 7253              		.loc 3 239 26 view .LVU1783
 7254 0520 019A     		ldr	r2, [sp, #4]
 7255 0522 ECE6     		b	.L484
 7256              	.LVL527:
 7257              	.L447:
 239:libDaisy/src/hid/disp/display.h ****         {
 7258              		.loc 3 239 26 view .LVU1784
 7259              	.LBE1945:
 7260              	.LBE1994:
 7261              	.LBB1995:
 7262              	.LBB1830:
 239:libDaisy/src/hid/disp/display.h ****         {
 7263              		.loc 3 239 26 is_stmt 1 view .LVU1785
 239:libDaisy/src/hid/disp/display.h ****         {
 7264              		.loc 3 239 33 is_stmt 0 view .LVU1786
 7265 0524 951B     		subs	r5, r2, r6
 7266 0526 B5FA85F5 		clz	r5, r5
 7267 052a 6D09     		lsrs	r5, r5, #5
 7268 052c 0295     		str	r5, [sp, #8]
 239:libDaisy/src/hid/disp/display.h ****         {
 7269              		.loc 3 239 26 view .LVU1787
 7270 052e 6345     		cmp	r3, ip
 7271 0530 14BF     		ite	ne
 7272 0532 0025     		movne	r5, #0
 7273 0534 05F00105 		andeq	r5, r5, #1
 7274 0538 0395     		str	r5, [sp, #12]
 7275 053a 002D     		cmp	r5, #0
 7276 053c 7FF403AE 		bne	.L550
 7277              	.LBB1826:
 7278              	.LBB1821:
 7279              	.LBB1816:
 7280              	.LBB1809:
 7281              	.LBB1802:
 246:libDaisy/src/dev/oled_ssd130x.h ****     }
 7282              		.loc 13 246 55 view .LVU1788
 7283 0540 06F00709 		and	r9, r6, #7
 246:libDaisy/src/dev/oled_ssd130x.h ****     }
 7284              		.loc 13 246 49 view .LVU1789
 7285 0544 4FF0010E 		mov	lr, #1
 7286              	.LVL528:
 246:libDaisy/src/dev/oled_ssd130x.h ****     }
 7287              		.loc 13 246 49 view .LVU1790
 7288 0548 0EFA09FE 		lsl	lr, lr, r9
 246:libDaisy/src/dev/oled_ssd130x.h ****     }
 7289              		.loc 13 246 42 view .LVU1791
 7290 054c 6FEA0E0E 		mvn	lr, lr
 7291 0550 4FFA8EFA 		sxtb	r10, lr
 246:libDaisy/src/dev/oled_ssd130x.h ****     }
 7292              		.loc 13 246 28 view .LVU1792
 7293 0554 4FEAD60E 		lsr	lr, r6, #3
ARM GAS  C:\Users\yaman\AppData\Local\Temp\ccCu6FW5.s 			page 201


 246:libDaisy/src/dev/oled_ssd130x.h ****     }
 7294              		.loc 13 246 42 view .LVU1793
 7295 0558 4FEA8E15 		lsl	r5, lr, #6
 7296 055c 0495     		str	r5, [sp, #16]
 7297 055e 029D     		ldr	r5, [sp, #8]
 7298 0560 0292     		str	r2, [sp, #8]
 7299              	.LVL529:
 7300              	.L453:
 246:libDaisy/src/dev/oled_ssd130x.h ****     }
 7301              		.loc 13 246 42 view .LVU1794
 7302              	.LBE1802:
 7303              	.LBE1809:
 7304              	.LBE1816:
 7305              	.LBE1821:
  42:libDaisy/src/hid/disp/oled_display.h ****     {
 7306              		.loc 2 42 10 is_stmt 1 view .LVU1795
 7307              	.LBB1822:
 239:libDaisy/src/dev/oled_ssd130x.h ****     {
 7308              		.loc 13 239 10 view .LVU1796
 7309              	.LBB1817:
 7310              	.LBB1810:
 239:libDaisy/src/dev/oled_ssd130x.h ****     {
 7311              		.loc 13 239 10 view .LVU1797
 7312              	.LBB1803:
 246:libDaisy/src/dev/oled_ssd130x.h ****     }
 7313              		.loc 13 246 42 is_stmt 0 view .LVU1798
 7314 0562 049A     		ldr	r2, [sp, #16]
 7315              	.LBE1803:
 7316              	.LBE1810:
 241:libDaisy/src/dev/oled_ssd130x.h ****             return;
 7317              		.loc 13 241 9 view .LVU1799
 7318 0564 BCF13F0F 		cmp	ip, #63
 7319              	.LBB1811:
 7320              	.LBB1804:
 246:libDaisy/src/dev/oled_ssd130x.h ****     }
 7321              		.loc 13 246 42 view .LVU1800
 7322 0568 0CEB020E 		add	lr, ip, r2
 7323 056c 8644     		add	lr, lr, r0
 7324              	.LBE1804:
 7325              	.LBE1811:
 241:libDaisy/src/dev/oled_ssd130x.h ****             return;
 7326              		.loc 13 241 9 view .LVU1801
 7327 056e 07D8     		bhi	.L450
 241:libDaisy/src/dev/oled_ssd130x.h ****             return;
 7328              		.loc 13 241 9 view .LVU1802
 7329 0570 1F2E     		cmp	r6, #31
 7330 0572 05D8     		bhi	.L450
 7331              	.LBB1812:
 7332              	.LBB1805:
 246:libDaisy/src/dev/oled_ssd130x.h ****     }
 7333              		.loc 13 246 42 view .LVU1803
 7334 0574 9EF81090 		ldrb	r9, [lr, #16]	@ zero_extendqisi2
 7335 0578 0AEA0909 		and	r9, r10, r9
 7336 057c 8EF81090 		strb	r9, [lr, #16]
 7337              	.L450:
 7338              	.LBE1805:
 7339              	.LBE1812:
ARM GAS  C:\Users\yaman\AppData\Local\Temp\ccCu6FW5.s 			page 202


 7340              	.LBE1817:
 7341              	.LBE1822:
 7342              	.LBE1826:
 243:libDaisy/src/hid/disp/display.h ****             {
 7343              		.loc 3 243 13 view .LVU1804
 7344 0580 B8F1000F 		cmp	r8, #0
 7345 0584 00D0     		beq	.L451
 246:libDaisy/src/hid/disp/display.h ****             }
 7346              		.loc 3 246 20 view .LVU1805
 7347 0586 DC44     		add	ip, ip, fp
 7348              	.LVL530:
 7349              	.L451:
 239:libDaisy/src/hid/disp/display.h ****         {
 7350              		.loc 3 239 26 is_stmt 1 view .LVU1806
 7351 0588 6345     		cmp	r3, ip
 7352 058a EAD1     		bne	.L453
 239:libDaisy/src/hid/disp/display.h ****         {
 7353              		.loc 3 239 26 is_stmt 0 view .LVU1807
 7354 058c 002D     		cmp	r5, #0
 7355 058e E8D0     		beq	.L453
 7356 0590 94E7     		b	.L674
 7357              	.LVL531:
 7358              	.L672:
 239:libDaisy/src/hid/disp/display.h ****         {
 7359              		.loc 3 239 26 view .LVU1808
 7360 0592 029A     		ldr	r2, [sp, #8]
 7361 0594 61E6     		b	.L461
 7362              	.LVL532:
 7363              	.L458:
 239:libDaisy/src/hid/disp/display.h ****         {
 7364              		.loc 3 239 26 view .LVU1809
 7365              	.LBE1830:
 7366              	.LBE1995:
 7367              	.LBB1996:
 7368              	.LBB1896:
 7369              	.LBB1889:
 7370              	.LBB1852:
 7371              	.LBB1846:
 241:libDaisy/src/dev/oled_ssd130x.h ****             return;
 7372              		.loc 13 241 28 view .LVU1810
 7373 0596 1F2C     		cmp	r4, #31
 7374              	.LBE1846:
 7375              	.LBE1852:
 7376              	.LBE1889:
 231:libDaisy/src/hid/disp/display.h ****         int_fast16_t error2;
 7377              		.loc 3 231 22 view .LVU1811
 7378 0598 C6F1000A 		rsb	r10, r6, #0
 7379              	.LVL533:
 7380              	.LBB1890:
  42:libDaisy/src/hid/disp/oled_display.h ****     {
 7381              		.loc 2 42 10 is_stmt 1 view .LVU1812
 7382              	.LBB1853:
 239:libDaisy/src/dev/oled_ssd130x.h ****     {
 7383              		.loc 13 239 10 view .LVU1813
 7384              	.LBB1847:
 241:libDaisy/src/dev/oled_ssd130x.h ****             return;
 7385              		.loc 13 241 28 is_stmt 0 view .LVU1814
ARM GAS  C:\Users\yaman\AppData\Local\Temp\ccCu6FW5.s 			page 203


 7386 059c 94BF     		ite	ls
 7387 059e 0025     		movls	r5, #0
 7388              	.LVL534:
 241:libDaisy/src/dev/oled_ssd130x.h ****             return;
 7389              		.loc 13 241 28 view .LVU1815
 7390 05a0 0125     		movhi	r5, #1
 7391 05a2 0695     		str	r5, [sp, #24]
 241:libDaisy/src/dev/oled_ssd130x.h ****             return;
 7392              		.loc 13 241 9 view .LVU1816
 7393 05a4 002D     		cmp	r5, #0
 7394 05a6 40F04C81 		bne	.L547
 7395 05aa 019D     		ldr	r5, [sp, #4]
 7396 05ac 002D     		cmp	r5, #0
 7397 05ae 40F04881 		bne	.L547
 244:libDaisy/src/dev/oled_ssd130x.h ****         else
 7398              		.loc 13 244 28 view .LVU1817
 7399 05b2 E608     		lsrs	r6, r4, #3
 7400              	.LVL535:
 241:libDaisy/src/dev/oled_ssd130x.h ****             return;
 7401              		.loc 13 241 9 view .LVU1818
 7402 05b4 0125     		movs	r5, #1
 244:libDaisy/src/dev/oled_ssd130x.h ****         else
 7403              		.loc 13 244 42 view .LVU1819
 7404 05b6 03EB8616 		add	r6, r3, r6, lsl #6
 241:libDaisy/src/dev/oled_ssd130x.h ****             return;
 7405              		.loc 13 241 9 view .LVU1820
 7406 05ba 0195     		str	r5, [sp, #4]
 244:libDaisy/src/dev/oled_ssd130x.h ****         else
 7407              		.loc 13 244 42 view .LVU1821
 7408 05bc 0644     		add	r6, r6, r0
 243:libDaisy/src/dev/oled_ssd130x.h ****             buffer_[x + (y / 8) * width] |= (1 << (y % 8));
 7409              		.loc 13 243 9 view .LVU1822
 7410 05be 002F     		cmp	r7, #0
 7411 05c0 7FF4E2AD 		bne	.L677
 7412              	.LVL536:
 7413              	.L460:
 7414              	.LBB1840:
 7415              	.LBI1840:
 239:libDaisy/src/dev/oled_ssd130x.h ****     {
 7416              		.loc 13 239 10 is_stmt 1 view .LVU1823
 7417              	.LBB1841:
 246:libDaisy/src/dev/oled_ssd130x.h ****     }
 7418              		.loc 13 246 55 is_stmt 0 view .LVU1824
 7419 05c4 04F0070E 		and	lr, r4, #7
 246:libDaisy/src/dev/oled_ssd130x.h ****     }
 7420              		.loc 13 246 49 view .LVU1825
 7421 05c8 4FF00108 		mov	r8, #1
 246:libDaisy/src/dev/oled_ssd130x.h ****     }
 7422              		.loc 13 246 42 view .LVU1826
 7423 05cc 96F810C0 		ldrb	ip, [r6, #16]	@ zero_extendqisi2
 7424              	.LBE1841:
 7425              	.LBE1840:
 7426              	.LBE1847:
 7427              	.LBE1853:
 7428              	.LBE1890:
 239:libDaisy/src/hid/disp/display.h ****         {
 7429              		.loc 3 239 26 view .LVU1827
ARM GAS  C:\Users\yaman\AppData\Local\Temp\ccCu6FW5.s 			page 204


 7430 05d0 A242     		cmp	r2, r4
 7431              	.LBB1891:
 7432              	.LBB1854:
 7433              	.LBB1848:
 7434              	.LBB1843:
 7435              	.LBB1842:
 246:libDaisy/src/dev/oled_ssd130x.h ****     }
 7436              		.loc 13 246 49 view .LVU1828
 7437 05d2 08FA0EFE 		lsl	lr, r8, lr
 246:libDaisy/src/dev/oled_ssd130x.h ****     }
 7438              		.loc 13 246 42 view .LVU1829
 7439 05d6 2CEA0E0C 		bic	ip, ip, lr
 7440 05da 86F810C0 		strb	ip, [r6, #16]
 7441              	.LVL537:
 246:libDaisy/src/dev/oled_ssd130x.h ****     }
 7442              		.loc 13 246 42 view .LVU1830
 7443              	.LBE1842:
 7444              	.LBE1843:
 7445              	.LBE1848:
 7446              	.LBE1854:
 7447              	.LBE1891:
 239:libDaisy/src/hid/disp/display.h ****         {
 7448              		.loc 3 239 26 is_stmt 1 view .LVU1831
 7449 05de 00F04581 		beq	.L540
 239:libDaisy/src/hid/disp/display.h ****         {
 7450              		.loc 3 239 26 is_stmt 0 view .LVU1832
 7451 05e2 D146     		mov	r9, r10
 7452 05e4 0697     		str	r7, [sp, #24]
 7453              	.LVL538:
 7454              	.L463:
 239:libDaisy/src/hid/disp/display.h ****         {
 7455              		.loc 3 239 26 view .LVU1833
 7456 05e6 9446     		mov	ip, r2
 7457 05e8 1E46     		mov	r6, r3
 7458 05ea 5546     		mov	r5, r10
 7459 05ec 0292     		str	r2, [sp, #8]
 7460              	.L473:
 7461              	.LVL539:
 7462              	.LBB1892:
  42:libDaisy/src/hid/disp/oled_display.h ****     {
 7463              		.loc 2 42 10 is_stmt 1 view .LVU1834
 7464              	.LBB1884:
 239:libDaisy/src/dev/oled_ssd130x.h ****     {
 7465              		.loc 13 239 10 view .LVU1835
 7466              	.LBB1879:
 7467              	.LBB1861:
 7468              	.LBI1861:
 239:libDaisy/src/dev/oled_ssd130x.h ****     {
 7469              		.loc 13 239 10 view .LVU1836
 7470              	.LBB1862:
 246:libDaisy/src/dev/oled_ssd130x.h ****     }
 7471              		.loc 13 246 28 is_stmt 0 view .LVU1837
 7472 05ee 4FEADC0E 		lsr	lr, ip, #3
 7473              	.LBE1862:
 7474              	.LBE1861:
 241:libDaisy/src/dev/oled_ssd130x.h ****             return;
 7475              		.loc 13 241 9 view .LVU1838
ARM GAS  C:\Users\yaman\AppData\Local\Temp\ccCu6FW5.s 			page 205


 7476 05f2 3F2E     		cmp	r6, #63
 7477              	.LBE1879:
 7478              	.LBE1884:
 7479              	.LBE1892:
 242:libDaisy/src/hid/disp/display.h ****             if(error2 > -deltaY)
 7480              		.loc 3 242 20 view .LVU1839
 7481 05f4 4FEA4508 		lsl	r8, r5, #1
 7482              	.LVL540:
 7483              	.LBB1893:
 7484              	.LBB1885:
 7485              	.LBB1880:
 7486              	.LBB1870:
 7487              	.LBB1863:
 246:libDaisy/src/dev/oled_ssd130x.h ****     }
 7488              		.loc 13 246 42 view .LVU1840
 7489 05f8 06EB8E1E 		add	lr, r6, lr, lsl #6
 7490              	.LBE1863:
 7491              	.LBE1870:
 241:libDaisy/src/dev/oled_ssd130x.h ****             return;
 7492              		.loc 13 241 9 view .LVU1841
 7493 05fc 0FD8     		bhi	.L470
 7494 05fe BCF11F0F 		cmp	ip, #31
 7495              	.LBB1871:
 7496              	.LBB1864:
 246:libDaisy/src/dev/oled_ssd130x.h ****     }
 7497              		.loc 13 246 42 view .LVU1842
 7498 0602 8644     		add	lr, lr, r0
 7499              	.LBE1864:
 7500              	.LBE1871:
 241:libDaisy/src/dev/oled_ssd130x.h ****             return;
 7501              		.loc 13 241 9 view .LVU1843
 7502 0604 0BD8     		bhi	.L470
 7503              	.LBB1872:
 7504              	.LBB1865:
 246:libDaisy/src/dev/oled_ssd130x.h ****     }
 7505              		.loc 13 246 49 view .LVU1844
 7506 0606 4FF0010A 		mov	r10, #1
 246:libDaisy/src/dev/oled_ssd130x.h ****     }
 7507              		.loc 13 246 55 view .LVU1845
 7508 060a 0CF0070B 		and	fp, ip, #7
 246:libDaisy/src/dev/oled_ssd130x.h ****     }
 7509              		.loc 13 246 49 view .LVU1846
 7510 060e 0AFA0BFB 		lsl	fp, r10, fp
 246:libDaisy/src/dev/oled_ssd130x.h ****     }
 7511              		.loc 13 246 42 view .LVU1847
 7512 0612 9EF810A0 		ldrb	r10, [lr, #16]	@ zero_extendqisi2
 7513 0616 2AEA0B0A 		bic	r10, r10, fp
 7514 061a 8EF810A0 		strb	r10, [lr, #16]
 7515              	.L470:
 246:libDaisy/src/dev/oled_ssd130x.h ****     }
 7516              		.loc 13 246 42 view .LVU1848
 7517              	.LBE1865:
 7518              	.LBE1872:
 7519              	.LBE1880:
 7520              	.LBE1885:
 7521              	.LBE1893:
 243:libDaisy/src/hid/disp/display.h ****             {
ARM GAS  C:\Users\yaman\AppData\Local\Temp\ccCu6FW5.s 			page 206


 7522              		.loc 3 243 13 view .LVU1849
 7523 061e B9EB450F 		cmp	r9, r5, lsl #1
 7524 0622 02DA     		bge	.L471
 245:libDaisy/src/hid/disp/display.h ****                 x1 += signX;
 7525              		.loc 3 245 23 view .LVU1850
 7526 0624 049A     		ldr	r2, [sp, #16]
 246:libDaisy/src/hid/disp/display.h ****             }
 7527              		.loc 3 246 20 view .LVU1851
 7528 0626 013E     		subs	r6, r6, #1
 7529              	.LVL541:
 245:libDaisy/src/hid/disp/display.h ****                 x1 += signX;
 7530              		.loc 3 245 23 view .LVU1852
 7531 0628 AD1A     		subs	r5, r5, r2
 7532              	.LVL542:
 7533              	.L471:
 249:libDaisy/src/hid/disp/display.h ****             {
 7534              		.loc 3 249 13 view .LVU1853
 7535 062a B8F1000F 		cmp	r8, #0
 7536 062e 01D0     		beq	.L472
 252:libDaisy/src/hid/disp/display.h ****             }
 7537              		.loc 3 252 20 view .LVU1854
 7538 0630 019A     		ldr	r2, [sp, #4]
 7539 0632 9444     		add	ip, ip, r2
 7540              	.LVL543:
 7541              	.L472:
 239:libDaisy/src/hid/disp/display.h ****         {
 7542              		.loc 3 239 26 is_stmt 1 view .LVU1855
 7543 0634 A3EB060A 		sub	r10, r3, r6
 7544 0638 6445     		cmp	r4, ip
 7545 063a 08BF     		it	eq
 7546 063c B342     		cmpeq	r3, r6
 7547 063e BAFA8AFA 		clz	r10, r10
 7548 0642 4FEA5A1A 		lsr	r10, r10, #5
 7549 0646 A4D0     		beq	.L672
 239:libDaisy/src/hid/disp/display.h ****         {
 7550              		.loc 3 239 26 is_stmt 0 view .LVU1856
 7551 0648 C845     		cmp	r8, r9
 7552 064a D0DC     		bgt	.L473
 7553 064c 029A     		ldr	r2, [sp, #8]
 7554 064e 9B46     		mov	fp, r3
 7555              	.LVL544:
 7556              	.L477:
 7557              	.LBB1894:
  42:libDaisy/src/hid/disp/oled_display.h ****     {
 7558              		.loc 2 42 10 is_stmt 1 view .LVU1857
 7559              	.LBB1886:
 239:libDaisy/src/dev/oled_ssd130x.h ****     {
 7560              		.loc 13 239 10 view .LVU1858
 7561              	.LBB1881:
 7562              	.LBB1873:
 239:libDaisy/src/dev/oled_ssd130x.h ****     {
 7563              		.loc 13 239 10 view .LVU1859
 7564              	.LBB1866:
 246:libDaisy/src/dev/oled_ssd130x.h ****     }
 7565              		.loc 13 246 28 is_stmt 0 view .LVU1860
 7566 0650 4FEADC0E 		lsr	lr, ip, #3
 7567              	.LBE1866:
ARM GAS  C:\Users\yaman\AppData\Local\Temp\ccCu6FW5.s 			page 207


 7568              	.LBE1873:
 241:libDaisy/src/dev/oled_ssd130x.h ****             return;
 7569              		.loc 13 241 9 view .LVU1861
 7570 0654 3F2E     		cmp	r6, #63
 7571              	.LBB1874:
 7572              	.LBB1867:
 246:libDaisy/src/dev/oled_ssd130x.h ****     }
 7573              		.loc 13 246 55 view .LVU1862
 7574 0656 0CF00708 		and	r8, ip, #7
 246:libDaisy/src/dev/oled_ssd130x.h ****     }
 7575              		.loc 13 246 42 view .LVU1863
 7576 065a 06EB8E1E 		add	lr, r6, lr, lsl #6
 7577              	.LBE1867:
 7578              	.LBE1874:
 241:libDaisy/src/dev/oled_ssd130x.h ****             return;
 7579              		.loc 13 241 9 view .LVU1864
 7580 065e 0DD8     		bhi	.L474
 241:libDaisy/src/dev/oled_ssd130x.h ****             return;
 7581              		.loc 13 241 9 view .LVU1865
 7582 0660 BCF11F0F 		cmp	ip, #31
 7583              	.LBB1875:
 7584              	.LBB1868:
 246:libDaisy/src/dev/oled_ssd130x.h ****     }
 7585              		.loc 13 246 42 view .LVU1866
 7586 0664 8644     		add	lr, lr, r0
 7587              	.LBE1868:
 7588              	.LBE1875:
 241:libDaisy/src/dev/oled_ssd130x.h ****             return;
 7589              		.loc 13 241 9 view .LVU1867
 7590 0666 09D8     		bhi	.L474
 7591              	.LBB1876:
 7592              	.LBB1869:
 246:libDaisy/src/dev/oled_ssd130x.h ****     }
 7593              		.loc 13 246 49 view .LVU1868
 7594 0668 4FF00109 		mov	r9, #1
 7595 066c 09FA08F9 		lsl	r9, r9, r8
 246:libDaisy/src/dev/oled_ssd130x.h ****     }
 7596              		.loc 13 246 42 view .LVU1869
 7597 0670 9EF81080 		ldrb	r8, [lr, #16]	@ zero_extendqisi2
 7598 0674 28EA0908 		bic	r8, r8, r9
 7599 0678 8EF81080 		strb	r8, [lr, #16]
 7600              	.L474:
 246:libDaisy/src/dev/oled_ssd130x.h ****     }
 7601              		.loc 13 246 42 view .LVU1870
 7602              	.LBE1869:
 7603              	.LBE1876:
 7604              	.LBE1881:
 7605              	.LBE1886:
 7606              	.LBE1894:
 249:libDaisy/src/hid/disp/display.h ****             {
 7607              		.loc 3 249 13 view .LVU1871
 7608 067c 0DB1     		cbz	r5, .L475
 252:libDaisy/src/hid/disp/display.h ****             }
 7609              		.loc 3 252 20 view .LVU1872
 7610 067e 019B     		ldr	r3, [sp, #4]
 7611 0680 9C44     		add	ip, ip, r3
 7612              	.LVL545:
ARM GAS  C:\Users\yaman\AppData\Local\Temp\ccCu6FW5.s 			page 208


 7613              	.L475:
 239:libDaisy/src/hid/disp/display.h ****         {
 7614              		.loc 3 239 26 is_stmt 1 view .LVU1873
 7615 0682 6445     		cmp	r4, ip
 7616 0684 E4D1     		bne	.L477
 239:libDaisy/src/hid/disp/display.h ****         {
 7617              		.loc 3 239 26 is_stmt 0 view .LVU1874
 7618 0686 BAF1000F 		cmp	r10, #0
 7619 068a E1D0     		beq	.L477
 7620 068c E2E5     		b	.L675
 7621              	.LVL546:
 7622              	.L505:
 239:libDaisy/src/hid/disp/display.h ****         {
 7623              		.loc 3 239 26 view .LVU1875
 7624              	.LBE1896:
 7625              	.LBE1996:
 7626              	.LBB1997:
 7627              	.LBB1991:
 239:libDaisy/src/hid/disp/display.h ****         {
 7628              		.loc 3 239 26 is_stmt 1 view .LVU1876
 7629 068e 059B     		ldr	r3, [sp, #20]
 7630 0690 002B     		cmp	r3, #0
 7631 0692 7FF4E4AC 		bne	.L424
 7632 0696 002F     		cmp	r7, #0
 7633 0698 7FF459AE 		bne	.L507
 7634              	.LVL547:
 7635              	.L508:
 230:libDaisy/src/hid/disp/display.h ****         int_fast16_t error  = deltaX - deltaY;
 7636              		.loc 3 230 42 is_stmt 0 view .LVU1877
 7637 069c 6746     		mov	r7, ip
 7638 069e 0E46     		mov	r6, r1
 7639 06a0 8946     		mov	r9, r1
 7640              	.LVL548:
 7641              	.L513:
 7642              	.LBB1987:
  42:libDaisy/src/hid/disp/oled_display.h ****     {
 7643              		.loc 2 42 10 is_stmt 1 view .LVU1878
 7644              	.LBB1982:
 239:libDaisy/src/dev/oled_ssd130x.h ****     {
 7645              		.loc 13 239 10 view .LVU1879
 7646              	.LBB1977:
 7647              	.LBB1959:
 7648              	.LBI1959:
 239:libDaisy/src/dev/oled_ssd130x.h ****     {
 7649              		.loc 13 239 10 view .LVU1880
 7650              	.LBB1960:
 246:libDaisy/src/dev/oled_ssd130x.h ****     }
 7651              		.loc 13 246 28 is_stmt 0 view .LVU1881
 7652 06a2 E308     		lsrs	r3, r4, #3
 7653              	.LBE1960:
 7654              	.LBE1959:
 241:libDaisy/src/dev/oled_ssd130x.h ****             return;
 7655              		.loc 13 241 9 view .LVU1882
 7656 06a4 1F2C     		cmp	r4, #31
 7657              	.LBE1977:
 7658              	.LBE1982:
 7659              	.LBE1987:
ARM GAS  C:\Users\yaman\AppData\Local\Temp\ccCu6FW5.s 			page 209


 242:libDaisy/src/hid/disp/display.h ****             if(error2 > -deltaY)
 7660              		.loc 3 242 20 view .LVU1883
 7661 06a6 4FEA4701 		lsl	r1, r7, #1
 7662              	.LVL549:
 7663              	.LBB1988:
 7664              	.LBB1983:
 7665              	.LBB1978:
 7666              	.LBB1968:
 7667              	.LBB1961:
 246:libDaisy/src/dev/oled_ssd130x.h ****     }
 7668              		.loc 13 246 42 view .LVU1884
 7669 06aa 06EB8313 		add	r3, r6, r3, lsl #6
 7670              	.LBE1961:
 7671              	.LBE1968:
 241:libDaisy/src/dev/oled_ssd130x.h ****             return;
 7672              		.loc 13 241 9 view .LVU1885
 7673 06ae 0ED8     		bhi	.L509
 241:libDaisy/src/dev/oled_ssd130x.h ****             return;
 7674              		.loc 13 241 9 view .LVU1886
 7675 06b0 3F2E     		cmp	r6, #63
 7676              	.LBB1969:
 7677              	.LBB1962:
 246:libDaisy/src/dev/oled_ssd130x.h ****     }
 7678              		.loc 13 246 42 view .LVU1887
 7679 06b2 0344     		add	r3, r3, r0
 7680              	.LBE1962:
 7681              	.LBE1969:
 241:libDaisy/src/dev/oled_ssd130x.h ****             return;
 7682              		.loc 13 241 9 view .LVU1888
 7683 06b4 0BD8     		bhi	.L509
 7684              	.LBB1970:
 7685              	.LBB1963:
 246:libDaisy/src/dev/oled_ssd130x.h ****     }
 7686              		.loc 13 246 49 view .LVU1889
 7687 06b6 4FF00108 		mov	r8, #1
 246:libDaisy/src/dev/oled_ssd130x.h ****     }
 7688              		.loc 13 246 55 view .LVU1890
 7689 06ba 04F0070A 		and	r10, r4, #7
 246:libDaisy/src/dev/oled_ssd130x.h ****     }
 7690              		.loc 13 246 49 view .LVU1891
 7691 06be 08FA0AFA 		lsl	r10, r8, r10
 246:libDaisy/src/dev/oled_ssd130x.h ****     }
 7692              		.loc 13 246 42 view .LVU1892
 7693 06c2 93F81080 		ldrb	r8, [r3, #16]	@ zero_extendqisi2
 7694 06c6 28EA0A08 		bic	r8, r8, r10
 7695 06ca 83F81080 		strb	r8, [r3, #16]
 7696              	.L509:
 246:libDaisy/src/dev/oled_ssd130x.h ****     }
 7697              		.loc 13 246 42 view .LVU1893
 7698              	.LBE1963:
 7699              	.LBE1970:
 7700              	.LBE1978:
 7701              	.LBE1983:
 7702              	.LBE1988:
 243:libDaisy/src/hid/disp/display.h ****             {
 7703              		.loc 3 243 13 view .LVU1894
 7704 06ce BCEB470F 		cmp	ip, r7, lsl #1
ARM GAS  C:\Users\yaman\AppData\Local\Temp\ccCu6FW5.s 			page 210


 7705 06d2 02DA     		bge	.L510
 246:libDaisy/src/hid/disp/display.h ****             }
 7706              		.loc 3 246 20 view .LVU1895
 7707 06d4 013E     		subs	r6, r6, #1
 7708              	.LVL550:
 245:libDaisy/src/hid/disp/display.h ****                 x1 += signX;
 7709              		.loc 3 245 23 view .LVU1896
 7710 06d6 A7EB0E07 		sub	r7, r7, lr
 7711              	.LVL551:
 7712              	.L510:
 249:libDaisy/src/hid/disp/display.h ****             {
 7713              		.loc 3 249 13 view .LVU1897
 7714 06da 01B1     		cbz	r1, .L511
 252:libDaisy/src/hid/disp/display.h ****             }
 7715              		.loc 3 252 20 view .LVU1898
 7716 06dc 2C44     		add	r4, r4, r5
 7717              	.LVL552:
 7718              	.L511:
 239:libDaisy/src/hid/disp/display.h ****         {
 7719              		.loc 3 239 26 is_stmt 1 view .LVU1899
 239:libDaisy/src/hid/disp/display.h ****         {
 7720              		.loc 3 239 19 is_stmt 0 view .LVU1900
 7721 06de A9EB0603 		sub	r3, r9, r6
 239:libDaisy/src/hid/disp/display.h ****         {
 7722              		.loc 3 239 26 view .LVU1901
 7723 06e2 A242     		cmp	r2, r4
 239:libDaisy/src/hid/disp/display.h ****         {
 7724              		.loc 3 239 19 view .LVU1902
 7725 06e4 B3FA83F3 		clz	r3, r3
 7726 06e8 4FEA5313 		lsr	r3, r3, #5
 239:libDaisy/src/hid/disp/display.h ****         {
 7727              		.loc 3 239 26 view .LVU1903
 7728 06ec 02D1     		bne	.L559
 239:libDaisy/src/hid/disp/display.h ****         {
 7729              		.loc 3 239 26 view .LVU1904
 7730 06ee 002B     		cmp	r3, #0
 7731 06f0 7FF4B5AC 		bne	.L424
 7732              	.L559:
 239:libDaisy/src/hid/disp/display.h ****         {
 7733              		.loc 3 239 26 view .LVU1905
 7734 06f4 8C45     		cmp	ip, r1
 7735 06f6 D4DB     		blt	.L513
 7736 06f8 9846     		mov	r8, r3
 7737              	.LVL553:
 7738              	.L517:
 7739              	.LBB1989:
  42:libDaisy/src/hid/disp/oled_display.h ****     {
 7740              		.loc 2 42 10 is_stmt 1 view .LVU1906
 7741              	.LBB1984:
 239:libDaisy/src/dev/oled_ssd130x.h ****     {
 7742              		.loc 13 239 10 view .LVU1907
 7743              	.LBB1979:
 7744              	.LBB1971:
 239:libDaisy/src/dev/oled_ssd130x.h ****     {
 7745              		.loc 13 239 10 view .LVU1908
 7746              	.LBB1964:
 246:libDaisy/src/dev/oled_ssd130x.h ****     }
ARM GAS  C:\Users\yaman\AppData\Local\Temp\ccCu6FW5.s 			page 211


 7747              		.loc 13 246 28 is_stmt 0 view .LVU1909
 7748 06fa E308     		lsrs	r3, r4, #3
 7749              	.LBE1964:
 7750              	.LBE1971:
 241:libDaisy/src/dev/oled_ssd130x.h ****             return;
 7751              		.loc 13 241 9 view .LVU1910
 7752 06fc 3F2E     		cmp	r6, #63
 7753              	.LBB1972:
 7754              	.LBB1965:
 246:libDaisy/src/dev/oled_ssd130x.h ****     }
 7755              		.loc 13 246 55 view .LVU1911
 7756 06fe 04F00701 		and	r1, r4, #7
 246:libDaisy/src/dev/oled_ssd130x.h ****     }
 7757              		.loc 13 246 42 view .LVU1912
 7758 0702 06EB8313 		add	r3, r6, r3, lsl #6
 7759              	.LBE1965:
 7760              	.LBE1972:
 241:libDaisy/src/dev/oled_ssd130x.h ****             return;
 7761              		.loc 13 241 9 view .LVU1913
 7762 0706 0AD8     		bhi	.L514
 241:libDaisy/src/dev/oled_ssd130x.h ****             return;
 7763              		.loc 13 241 9 view .LVU1914
 7764 0708 1F2C     		cmp	r4, #31
 7765              	.LBB1973:
 7766              	.LBB1966:
 246:libDaisy/src/dev/oled_ssd130x.h ****     }
 7767              		.loc 13 246 42 view .LVU1915
 7768 070a 0344     		add	r3, r3, r0
 7769              	.LBE1966:
 7770              	.LBE1973:
 241:libDaisy/src/dev/oled_ssd130x.h ****             return;
 7771              		.loc 13 241 9 view .LVU1916
 7772 070c 07D8     		bhi	.L514
 7773              	.LBB1974:
 7774              	.LBB1967:
 246:libDaisy/src/dev/oled_ssd130x.h ****     }
 7775              		.loc 13 246 49 view .LVU1917
 7776 070e 4FF0010C 		mov	ip, #1
 7777 0712 0CFA01FC 		lsl	ip, ip, r1
 246:libDaisy/src/dev/oled_ssd130x.h ****     }
 7778              		.loc 13 246 42 view .LVU1918
 7779 0716 197C     		ldrb	r1, [r3, #16]	@ zero_extendqisi2
 7780 0718 21EA0C01 		bic	r1, r1, ip
 7781 071c 1974     		strb	r1, [r3, #16]
 7782              	.L514:
 246:libDaisy/src/dev/oled_ssd130x.h ****     }
 7783              		.loc 13 246 42 view .LVU1919
 7784              	.LBE1967:
 7785              	.LBE1974:
 7786              	.LBE1979:
 7787              	.LBE1984:
 7788              	.LBE1989:
 249:libDaisy/src/hid/disp/display.h ****             {
 7789              		.loc 3 249 13 view .LVU1920
 7790 071e 07B1     		cbz	r7, .L515
 252:libDaisy/src/hid/disp/display.h ****             }
 7791              		.loc 3 252 20 view .LVU1921
ARM GAS  C:\Users\yaman\AppData\Local\Temp\ccCu6FW5.s 			page 212


 7792 0720 2C44     		add	r4, r4, r5
 7793              	.LVL554:
 7794              	.L515:
 239:libDaisy/src/hid/disp/display.h ****         {
 7795              		.loc 3 239 26 is_stmt 1 view .LVU1922
 7796 0722 A242     		cmp	r2, r4
 7797 0724 E9D1     		bne	.L517
 239:libDaisy/src/hid/disp/display.h ****         {
 7798              		.loc 3 239 26 is_stmt 0 view .LVU1923
 7799 0726 B8F1000F 		cmp	r8, #0
 7800 072a E6D0     		beq	.L517
 7801              	.LBE1991:
 7802              	.LBE1997:
 7803              	.LBE2007:
 281:libDaisy/src/hid/disp/display.h **** 
 7804              		.loc 3 281 5 view .LVU1924
 7805 072c 09B0     		add	sp, sp, #36
 7806              		.cfi_remember_state
 7807              		.cfi_def_cfa_offset 36
 7808              		@ sp needed
 7809 072e BDE8F08F 		pop	{r4, r5, r6, r7, r8, r9, r10, fp, pc}
 7810              	.LVL555:
 7811              	.L482:
 7812              		.cfi_restore_state
 7813              	.LBB2008:
 7814              	.LBB1998:
 7815              	.LBB1946:
 239:libDaisy/src/hid/disp/display.h ****         {
 7816              		.loc 3 239 26 is_stmt 1 view .LVU1925
 7817 0732 039D     		ldr	r5, [sp, #12]
 7818 0734 002D     		cmp	r5, #0
 7819 0736 7FF4E2AD 		bne	.L484
 7820 073a 002F     		cmp	r7, #0
 7821 073c 7FF4BCAD 		bne	.L485
 7822              	.L486:
 229:libDaisy/src/hid/disp/display.h ****         int_fast16_t signY  = ((y1 < y2) ? 1 : -1);
 7823              		.loc 3 229 42 is_stmt 0 view .LVU1926
 7824 0740 E046     		mov	r8, ip
 7825 0742 2646     		mov	r6, r4
 7826              	.LVL556:
 7827              	.L491:
 7828              	.LBB1942:
  42:libDaisy/src/hid/disp/oled_display.h ****     {
 7829              		.loc 2 42 10 is_stmt 1 view .LVU1927
 7830              	.LBB1938:
 239:libDaisy/src/dev/oled_ssd130x.h ****     {
 7831              		.loc 13 239 10 view .LVU1928
 7832              	.LBB1933:
 7833              	.LBB1915:
 7834              	.LBI1915:
 239:libDaisy/src/dev/oled_ssd130x.h ****     {
 7835              		.loc 13 239 10 view .LVU1929
 7836              	.LBB1916:
 246:libDaisy/src/dev/oled_ssd130x.h ****     }
 7837              		.loc 13 246 28 is_stmt 0 view .LVU1930
 7838 0744 F508     		lsrs	r5, r6, #3
 7839              	.LBE1916:
ARM GAS  C:\Users\yaman\AppData\Local\Temp\ccCu6FW5.s 			page 213


 7840              	.LBE1915:
 241:libDaisy/src/dev/oled_ssd130x.h ****             return;
 7841              		.loc 13 241 9 view .LVU1931
 7842 0746 1F2E     		cmp	r6, #31
 7843              	.LBB1924:
 7844              	.LBB1917:
 246:libDaisy/src/dev/oled_ssd130x.h ****     }
 7845              		.loc 13 246 42 view .LVU1932
 7846 0748 03EB8515 		add	r5, r3, r5, lsl #6
 7847              	.LBE1917:
 7848              	.LBE1924:
 241:libDaisy/src/dev/oled_ssd130x.h ****             return;
 7849              		.loc 13 241 9 view .LVU1933
 7850 074c 0ED8     		bhi	.L487
 241:libDaisy/src/dev/oled_ssd130x.h ****             return;
 7851              		.loc 13 241 9 view .LVU1934
 7852 074e 3F2B     		cmp	r3, #63
 7853              	.LBB1925:
 7854              	.LBB1918:
 246:libDaisy/src/dev/oled_ssd130x.h ****     }
 7855              		.loc 13 246 42 view .LVU1935
 7856 0750 0544     		add	r5, r5, r0
 7857              	.LBE1918:
 7858              	.LBE1925:
 241:libDaisy/src/dev/oled_ssd130x.h ****             return;
 7859              		.loc 13 241 9 view .LVU1936
 7860 0752 0BD8     		bhi	.L487
 7861              	.LBB1926:
 7862              	.LBB1919:
 246:libDaisy/src/dev/oled_ssd130x.h ****     }
 7863              		.loc 13 246 49 view .LVU1937
 7864 0754 4FF00109 		mov	r9, #1
 246:libDaisy/src/dev/oled_ssd130x.h ****     }
 7865              		.loc 13 246 55 view .LVU1938
 7866 0758 06F0070A 		and	r10, r6, #7
 246:libDaisy/src/dev/oled_ssd130x.h ****     }
 7867              		.loc 13 246 49 view .LVU1939
 7868 075c 09FA0AFA 		lsl	r10, r9, r10
 246:libDaisy/src/dev/oled_ssd130x.h ****     }
 7869              		.loc 13 246 42 view .LVU1940
 7870 0760 95F81090 		ldrb	r9, [r5, #16]	@ zero_extendqisi2
 7871 0764 29EA0A09 		bic	r9, r9, r10
 7872 0768 85F81090 		strb	r9, [r5, #16]
 7873              	.L487:
 246:libDaisy/src/dev/oled_ssd130x.h ****     }
 7874              		.loc 13 246 42 view .LVU1941
 7875              	.LBE1919:
 7876              	.LBE1926:
 7877              	.LBE1933:
 7878              	.LBE1938:
 7879              	.LBE1942:
 243:libDaisy/src/hid/disp/display.h ****             {
 7880              		.loc 3 243 13 view .LVU1942
 7881 076c 5FEA4805 		lsls	r5, r8, #1
 246:libDaisy/src/hid/disp/display.h ****             }
 7882              		.loc 3 246 20 view .LVU1943
 7883 0770 18BF     		it	ne
ARM GAS  C:\Users\yaman\AppData\Local\Temp\ccCu6FW5.s 			page 214


 7884 0772 7344     		addne	r3, r3, lr
 7885              	.LVL557:
 249:libDaisy/src/hid/disp/display.h ****             {
 7886              		.loc 3 249 13 view .LVU1944
 7887 0774 AC45     		cmp	ip, r5
 7888 0776 07DD     		ble	.L489
 239:libDaisy/src/hid/disp/display.h ****         {
 7889              		.loc 3 239 26 view .LVU1945
 7890 0778 9942     		cmp	r1, r3
 252:libDaisy/src/hid/disp/display.h ****             }
 7891              		.loc 3 252 20 view .LVU1946
 7892 077a 06F1FF36 		add	r6, r6, #-1
 7893              	.LVL558:
 251:libDaisy/src/hid/disp/display.h ****                 y1 += signY;
 7894              		.loc 3 251 23 view .LVU1947
 7895 077e E044     		add	r8, r8, ip
 7896              	.LVL559:
 239:libDaisy/src/hid/disp/display.h ****         {
 7897              		.loc 3 239 26 is_stmt 1 view .LVU1948
 7898 0780 E0D1     		bne	.L491
 7899 0782 B442     		cmp	r4, r6
 7900 0784 DED1     		bne	.L491
 7901 0786 BAE5     		b	.L484
 7902              	.LVL560:
 7903              	.L489:
 239:libDaisy/src/hid/disp/display.h ****         {
 7904              		.loc 3 239 26 view .LVU1949
 239:libDaisy/src/hid/disp/display.h ****         {
 7905              		.loc 3 239 33 is_stmt 0 view .LVU1950
 7906 0788 A51B     		subs	r5, r4, r6
 239:libDaisy/src/hid/disp/display.h ****         {
 7907              		.loc 3 239 26 view .LVU1951
 7908 078a 9942     		cmp	r1, r3
 239:libDaisy/src/hid/disp/display.h ****         {
 7909              		.loc 3 239 33 view .LVU1952
 7910 078c B5FA85F5 		clz	r5, r5
 7911 0790 4FEA5515 		lsr	r5, r5, #5
 7912 0794 0195     		str	r5, [sp, #4]
 239:libDaisy/src/hid/disp/display.h ****         {
 7913              		.loc 3 239 26 view .LVU1953
 7914 0796 02D1     		bne	.L530
 7915 0798 002D     		cmp	r5, #0
 7916 079a 7FF4B0AD 		bne	.L484
 7917              	.L530:
 7918              	.LBB1943:
 7919              	.LBB1939:
 7920              	.LBB1934:
 7921              	.LBB1927:
 7922              	.LBB1920:
 246:libDaisy/src/dev/oled_ssd130x.h ****     }
 7923              		.loc 13 246 49 view .LVU1954
 7924 079e 4FF0010C 		mov	ip, #1
 7925              	.LVL561:
 246:libDaisy/src/dev/oled_ssd130x.h ****     }
 7926              		.loc 13 246 55 view .LVU1955
 7927 07a2 06F00709 		and	r9, r6, #7
 246:libDaisy/src/dev/oled_ssd130x.h ****     }
ARM GAS  C:\Users\yaman\AppData\Local\Temp\ccCu6FW5.s 			page 215


 7928              		.loc 13 246 49 view .LVU1956
 7929 07a6 0CFA09FA 		lsl	r10, ip, r9
 246:libDaisy/src/dev/oled_ssd130x.h ****     }
 7930              		.loc 13 246 28 view .LVU1957
 7931 07aa 4FEAD60C 		lsr	ip, r6, #3
 246:libDaisy/src/dev/oled_ssd130x.h ****     }
 7932              		.loc 13 246 42 view .LVU1958
 7933 07ae 6FEA0A0A 		mvn	r10, r10
 7934 07b2 4FEA8C15 		lsl	r5, ip, #6
 7935 07b6 4FFA8AFA 		sxtb	r10, r10
 7936 07ba 0295     		str	r5, [sp, #8]
 7937 07bc 019D     		ldr	r5, [sp, #4]
 7938 07be 0192     		str	r2, [sp, #4]
 7939              	.LVL562:
 7940              	.L495:
 246:libDaisy/src/dev/oled_ssd130x.h ****     }
 7941              		.loc 13 246 42 view .LVU1959
 7942              	.LBE1920:
 7943              	.LBE1927:
 7944              	.LBE1934:
 7945              	.LBE1939:
  42:libDaisy/src/hid/disp/oled_display.h ****     {
 7946              		.loc 2 42 10 is_stmt 1 view .LVU1960
 7947              	.LBB1940:
 239:libDaisy/src/dev/oled_ssd130x.h ****     {
 7948              		.loc 13 239 10 view .LVU1961
 7949              	.LBB1935:
 7950              	.LBB1928:
 239:libDaisy/src/dev/oled_ssd130x.h ****     {
 7951              		.loc 13 239 10 view .LVU1962
 7952              	.LBB1921:
 246:libDaisy/src/dev/oled_ssd130x.h ****     }
 7953              		.loc 13 246 42 is_stmt 0 view .LVU1963
 7954 07c0 029A     		ldr	r2, [sp, #8]
 7955              	.LBE1921:
 7956              	.LBE1928:
 241:libDaisy/src/dev/oled_ssd130x.h ****             return;
 7957              		.loc 13 241 9 view .LVU1964
 7958 07c2 3F2B     		cmp	r3, #63
 7959              	.LBB1929:
 7960              	.LBB1922:
 246:libDaisy/src/dev/oled_ssd130x.h ****     }
 7961              		.loc 13 246 42 view .LVU1965
 7962 07c4 03EB020C 		add	ip, r3, r2
 7963 07c8 8444     		add	ip, ip, r0
 7964              	.LBE1922:
 7965              	.LBE1929:
 241:libDaisy/src/dev/oled_ssd130x.h ****             return;
 7966              		.loc 13 241 9 view .LVU1966
 7967 07ca 07D8     		bhi	.L492
 241:libDaisy/src/dev/oled_ssd130x.h ****             return;
 7968              		.loc 13 241 9 view .LVU1967
 7969 07cc 1F2E     		cmp	r6, #31
 7970 07ce 05D8     		bhi	.L492
 7971              	.LBB1930:
 7972              	.LBB1923:
 246:libDaisy/src/dev/oled_ssd130x.h ****     }
ARM GAS  C:\Users\yaman\AppData\Local\Temp\ccCu6FW5.s 			page 216


 7973              		.loc 13 246 42 view .LVU1968
 7974 07d0 9CF81090 		ldrb	r9, [ip, #16]	@ zero_extendqisi2
 7975 07d4 0AEA0909 		and	r9, r10, r9
 7976 07d8 8CF81090 		strb	r9, [ip, #16]
 7977              	.L492:
 7978              	.LBE1923:
 7979              	.LBE1930:
 7980              	.LBE1935:
 7981              	.LBE1940:
 7982              	.LBE1943:
 243:libDaisy/src/hid/disp/display.h ****             {
 7983              		.loc 3 243 13 view .LVU1969
 7984 07dc B8F1000F 		cmp	r8, #0
 7985 07e0 00D0     		beq	.L493
 246:libDaisy/src/hid/disp/display.h ****             }
 7986              		.loc 3 246 20 view .LVU1970
 7987 07e2 7344     		add	r3, r3, lr
 7988              	.LVL563:
 7989              	.L493:
 239:libDaisy/src/hid/disp/display.h ****         {
 7990              		.loc 3 239 26 is_stmt 1 view .LVU1971
 7991 07e4 9942     		cmp	r1, r3
 7992 07e6 EBD1     		bne	.L495
 239:libDaisy/src/hid/disp/display.h ****         {
 7993              		.loc 3 239 26 is_stmt 0 view .LVU1972
 7994 07e8 002D     		cmp	r5, #0
 7995 07ea E9D0     		beq	.L495
 7996 07ec 98E6     		b	.L676
 7997              	.LVL564:
 7998              	.L483:
 7999              	.LBB1944:
 8000              	.LBB1910:
 8001              	.LBB1908:
 8002              	.LBB1905:
 8003              	.LBI1905:
 239:libDaisy/src/dev/oled_ssd130x.h ****     {
 8004              		.loc 13 239 10 is_stmt 1 view .LVU1973
 8005              	.LBB1906:
 246:libDaisy/src/dev/oled_ssd130x.h ****     }
 8006              		.loc 13 246 49 is_stmt 0 view .LVU1974
 8007 07ee 0126     		movs	r6, #1
 246:libDaisy/src/dev/oled_ssd130x.h ****     }
 8008              		.loc 13 246 55 view .LVU1975
 8009 07f0 04F00708 		and	r8, r4, #7
 246:libDaisy/src/dev/oled_ssd130x.h ****     }
 8010              		.loc 13 246 49 view .LVU1976
 8011 07f4 06FA08F8 		lsl	r8, r6, r8
 246:libDaisy/src/dev/oled_ssd130x.h ****     }
 8012              		.loc 13 246 42 view .LVU1977
 8013 07f8 2E7C     		ldrb	r6, [r5, #16]	@ zero_extendqisi2
 8014 07fa 26EA0806 		bic	r6, r6, r8
 8015 07fe 2E74     		strb	r6, [r5, #16]
 8016              	.LVL565:
 246:libDaisy/src/dev/oled_ssd130x.h ****     }
 8017              		.loc 13 246 42 view .LVU1978
 8018              	.LBE1906:
 8019              	.LBE1905:
ARM GAS  C:\Users\yaman\AppData\Local\Temp\ccCu6FW5.s 			page 217


 8020              	.LBE1908:
 8021              	.LBE1910:
 8022              	.LBE1944:
 239:libDaisy/src/hid/disp/display.h ****         {
 8023              		.loc 3 239 26 is_stmt 1 view .LVU1979
 8024 0800 039D     		ldr	r5, [sp, #12]
 8025 0802 002D     		cmp	r5, #0
 8026 0804 9CD0     		beq	.L486
 8027 0806 7AE5     		b	.L484
 8028              	.LVL566:
 8029              	.L436:
 239:libDaisy/src/hid/disp/display.h ****         {
 8030              		.loc 3 239 26 is_stmt 0 view .LVU1980
 8031              	.LBE1946:
 8032              	.LBE1998:
 8033              	.LBB1999:
 8034              	.LBB1831:
 8035              	.LBB1827:
 8036              	.LBB1791:
 8037              	.LBB1787:
 8038              	.LBB1781:
 8039              	.LBI1781:
 239:libDaisy/src/dev/oled_ssd130x.h ****     {
 8040              		.loc 13 239 10 is_stmt 1 view .LVU1981
 8041              	.LBB1782:
 246:libDaisy/src/dev/oled_ssd130x.h ****     }
 8042              		.loc 13 246 55 is_stmt 0 view .LVU1982
 8043 0808 02F00706 		and	r6, r2, #7
 246:libDaisy/src/dev/oled_ssd130x.h ****     }
 8044              		.loc 13 246 49 view .LVU1983
 8045 080c 4FF00108 		mov	r8, #1
 8046              	.LBE1782:
 8047              	.LBE1781:
 8048              	.LBE1787:
 8049              	.LBE1791:
 8050              	.LBE1827:
 239:libDaisy/src/hid/disp/display.h ****         {
 8051              		.loc 3 239 26 view .LVU1984
 8052 0810 9942     		cmp	r1, r3
 8053              	.LBB1828:
 8054              	.LBB1792:
 8055              	.LBB1788:
 8056              	.LBB1784:
 8057              	.LBB1783:
 246:libDaisy/src/dev/oled_ssd130x.h ****     }
 8058              		.loc 13 246 49 view .LVU1985
 8059 0812 08FA06FC 		lsl	ip, r8, r6
 246:libDaisy/src/dev/oled_ssd130x.h ****     }
 8060              		.loc 13 246 42 view .LVU1986
 8061 0816 2E7C     		ldrb	r6, [r5, #16]	@ zero_extendqisi2
 8062 0818 26EA0C06 		bic	r6, r6, ip
 8063 081c 2E74     		strb	r6, [r5, #16]
 8064              	.LVL567:
 246:libDaisy/src/dev/oled_ssd130x.h ****     }
 8065              		.loc 13 246 42 view .LVU1987
 8066              	.LBE1783:
 8067              	.LBE1784:
ARM GAS  C:\Users\yaman\AppData\Local\Temp\ccCu6FW5.s 			page 218


 8068              	.LBE1788:
 8069              	.LBE1792:
 8070              	.LBE1828:
 239:libDaisy/src/hid/disp/display.h ****         {
 8071              		.loc 3 239 26 is_stmt 1 view .LVU1988
 8072 081e 28D0     		beq	.L537
 8073 0820 0197     		str	r7, [sp, #4]
 8074 0822 0797     		str	r7, [sp, #28]
 8075 0824 F1E5     		b	.L439
 8076              	.LVL568:
 8077              	.L506:
 239:libDaisy/src/hid/disp/display.h ****         {
 8078              		.loc 3 239 26 is_stmt 0 view .LVU1989
 8079              	.LBE1831:
 8080              	.LBE1999:
 8081              	.LBB2000:
 8082              	.LBB1992:
 8083              	.LBB1990:
 8084              	.LBB1955:
 8085              	.LBB1954:
 8086              	.LBB1952:
 8087              	.LBI1952:
 239:libDaisy/src/dev/oled_ssd130x.h ****     {
 8088              		.loc 13 239 10 is_stmt 1 view .LVU1990
 8089              	.LBB1953:
 246:libDaisy/src/dev/oled_ssd130x.h ****     }
 8090              		.loc 13 246 49 is_stmt 0 view .LVU1991
 8091 0826 0126     		movs	r6, #1
 246:libDaisy/src/dev/oled_ssd130x.h ****     }
 8092              		.loc 13 246 55 view .LVU1992
 8093 0828 02F00707 		and	r7, r2, #7
 8094              	.LVL569:
 246:libDaisy/src/dev/oled_ssd130x.h ****     }
 8095              		.loc 13 246 49 view .LVU1993
 8096 082c 06FA07F7 		lsl	r7, r6, r7
 246:libDaisy/src/dev/oled_ssd130x.h ****     }
 8097              		.loc 13 246 42 view .LVU1994
 8098 0830 1E7C     		ldrb	r6, [r3, #16]	@ zero_extendqisi2
 8099 0832 26EA0706 		bic	r6, r6, r7
 8100 0836 1E74     		strb	r6, [r3, #16]
 8101              	.LVL570:
 246:libDaisy/src/dev/oled_ssd130x.h ****     }
 8102              		.loc 13 246 42 view .LVU1995
 8103              	.LBE1953:
 8104              	.LBE1952:
 8105              	.LBE1954:
 8106              	.LBE1955:
 8107              	.LBE1990:
 239:libDaisy/src/hid/disp/display.h ****         {
 8108              		.loc 3 239 26 is_stmt 1 view .LVU1996
 8109 0838 059B     		ldr	r3, [sp, #20]
 8110 083a 002B     		cmp	r3, #0
 8111 083c 3FF42EAF 		beq	.L508
 8112 0840 0DE4     		b	.L424
 8113              	.LVL571:
 8114              	.L547:
 239:libDaisy/src/hid/disp/display.h ****         {
ARM GAS  C:\Users\yaman\AppData\Local\Temp\ccCu6FW5.s 			page 219


 8115              		.loc 3 239 26 is_stmt 0 view .LVU1997
 8116              	.LBE1992:
 8117              	.LBE2000:
 8118              	.LBB2001:
 8119              	.LBB1897:
 8120              	.LBB1895:
 8121              	.LBB1855:
 8122              	.LBB1849:
 241:libDaisy/src/dev/oled_ssd130x.h ****             return;
 8123              		.loc 13 241 9 view .LVU1998
 8124 0842 0125     		movs	r5, #1
 8125 0844 0195     		str	r5, [sp, #4]
 8126              	.LVL572:
 8127              	.L464:
 241:libDaisy/src/dev/oled_ssd130x.h ****             return;
 8128              		.loc 13 241 9 view .LVU1999
 8129              	.LBE1849:
 8130              	.LBE1855:
 8131              	.LBE1895:
 239:libDaisy/src/hid/disp/display.h ****         {
 8132              		.loc 3 239 26 view .LVU2000
 8133 0846 D146     		mov	r9, r10
 8134 0848 002F     		cmp	r7, #0
 8135 084a 7FF4AFAC 		bne	.L462
 8136 084e CAE6     		b	.L463
 8137              	.LVL573:
 8138              	.L435:
 239:libDaisy/src/hid/disp/display.h ****         {
 8139              		.loc 3 239 26 view .LVU2001
 8140              	.LBE1897:
 8141              	.LBE2001:
 8142              	.LBB2002:
 8143              	.LBB1832:
 239:libDaisy/src/hid/disp/display.h ****         {
 8144              		.loc 3 239 26 is_stmt 1 view .LVU2002
 8145 0850 9942     		cmp	r1, r3
 8146 0852 3FF47AAC 		beq	.L437
 8147 0856 4FF0FF3B 		mov	fp, #-1
 8148 085a D3E5     		b	.L440
 8149              	.LVL574:
 8150              	.L459:
 239:libDaisy/src/hid/disp/display.h ****         {
 8151              		.loc 3 239 26 is_stmt 0 view .LVU2003
 8152              	.LBE1832:
 8153              	.LBE2002:
 8154              	.LBB2003:
 8155              	.LBB1898:
 239:libDaisy/src/hid/disp/display.h ****         {
 8156              		.loc 3 239 26 is_stmt 1 view .LVU2004
 8157 085c A242     		cmp	r2, r4
 8158 085e 03D0     		beq	.L541
 8159 0860 4FF0FF35 		mov	r5, #-1
 8160 0864 0195     		str	r5, [sp, #4]
 8161 0866 EEE7     		b	.L464
 8162              	.L541:
 239:libDaisy/src/hid/disp/display.h ****         {
 8163              		.loc 3 239 33 is_stmt 0 view .LVU2005
ARM GAS  C:\Users\yaman\AppData\Local\Temp\ccCu6FW5.s 			page 220


 8164 0868 0595     		str	r5, [sp, #20]
 8165 086a F6E4     		b	.L461
 8166              	.LVL575:
 8167              	.L540:
 239:libDaisy/src/hid/disp/display.h ****         {
 8168              		.loc 3 239 26 view .LVU2006
 8169 086c CDE90587 		strd	r8, r7, [sp, #20]
 8170 0870 F3E4     		b	.L461
 8171              	.LVL576:
 8172              	.L537:
 239:libDaisy/src/hid/disp/display.h ****         {
 8173              		.loc 3 239 26 view .LVU2007
 8174              	.LBE1898:
 8175              	.LBE2003:
 8176              	.LBB2004:
 8177              	.LBB1833:
 239:libDaisy/src/hid/disp/display.h ****         {
 8178              		.loc 3 239 19 view .LVU2008
 8179 0872 CDF80C80 		str	r8, [sp, #12]
 239:libDaisy/src/hid/disp/display.h ****         {
 8180              		.loc 3 239 26 view .LVU2009
 8181 0876 0797     		str	r7, [sp, #28]
 8182 0878 0197     		str	r7, [sp, #4]
 8183 087a 66E4     		b	.L437
 8184              	.LVL577:
 8185              	.L539:
 239:libDaisy/src/hid/disp/display.h ****         {
 8186              		.loc 3 239 26 view .LVU2010
 8187              	.LBE1833:
 8188              	.LBE2004:
 8189              	.LBB2005:
 8190              	.LBB1899:
 8191 087c 0025     		movs	r5, #0
 239:libDaisy/src/hid/disp/display.h ****         {
 8192              		.loc 3 239 33 view .LVU2011
 8193 087e CDE90575 		strd	r7, r5, [sp, #20]
 8194 0882 EAE4     		b	.L461
 8195              	.LVL578:
 8196              	.L536:
 239:libDaisy/src/hid/disp/display.h ****         {
 8197              		.loc 3 239 33 view .LVU2012
 8198              	.LBE1899:
 8199              	.LBE2005:
 8200              	.LBB2006:
 8201              	.LBB1834:
 239:libDaisy/src/hid/disp/display.h ****         {
 8202              		.loc 3 239 26 view .LVU2013
 8203 0884 0795     		str	r5, [sp, #28]
 239:libDaisy/src/hid/disp/display.h ****         {
 8204              		.loc 3 239 19 view .LVU2014
 8205 0886 0397     		str	r7, [sp, #12]
 239:libDaisy/src/hid/disp/display.h ****         {
 8206              		.loc 3 239 26 view .LVU2015
 8207 0888 0195     		str	r5, [sp, #4]
 8208 088a 5EE4     		b	.L437
 8209              	.LBE1834:
 8210              	.LBE2006:
ARM GAS  C:\Users\yaman\AppData\Local\Temp\ccCu6FW5.s 			page 221


 8211              	.LBE2008:
 8212              		.cfi_endproc
 8213              	.LFE5109:
 8215              		.section	.text._Z15ProcessControlsv,"ax",%progbits
 8216              		.align	1
 8217              		.p2align 2,,3
 8218              		.global	_Z15ProcessControlsv
 8219              		.syntax unified
 8220              		.thumb
 8221              		.thumb_func
 8222              		.fpu fpv5-d16
 8224              	_Z15ProcessControlsv:
 8225              	.LFB4757:
 159:examples/looper.cpp **** 
 160:examples/looper.cpp **** void ProcessControls() {
 8226              		.loc 14 160 24 is_stmt 1 view -0
 8227              		.cfi_startproc
 8228              		@ args = 0, pretend = 0, frame = 0
 8229              		@ frame_needed = 0, uses_anonymous_args = 0
 161:examples/looper.cpp ****     bluemchen.ProcessAllControls();
 8230              		.loc 14 161 5 view .LVU2017
 8231              	.LVL579:
 8232              	.LBB2009:
 8233              	.LBI2009:
  26:examples/../src/kxmx_bluemchen.h **** 
  27:examples/../src/kxmx_bluemchen.h ****     /** Initializes the daisy seed, and bluemchen hardware.*/
  28:examples/../src/kxmx_bluemchen.h ****     void Init();
  29:examples/../src/kxmx_bluemchen.h **** 
  30:examples/../src/kxmx_bluemchen.h ****     /** Audio Block size defaults to 48.
  31:examples/../src/kxmx_bluemchen.h ****   Change it using this function before StartingAudio
  32:examples/../src/kxmx_bluemchen.h ****   \param size Audio block size.
  33:examples/../src/kxmx_bluemchen.h ****   */
  34:examples/../src/kxmx_bluemchen.h ****     void SetAudioBlockSize(size_t size);
  35:examples/../src/kxmx_bluemchen.h **** 
  36:examples/../src/kxmx_bluemchen.h ****     /** Set the sample rate for the audio */
  37:examples/../src/kxmx_bluemchen.h ****     void SetAudioSampleRate(daisy::SaiHandle::Config::SampleRate samplerate);
  38:examples/../src/kxmx_bluemchen.h **** 
  39:examples/../src/kxmx_bluemchen.h ****     /** Get sample rate */
  40:examples/../src/kxmx_bluemchen.h ****     float AudioSampleRate();
  41:examples/../src/kxmx_bluemchen.h **** 
  42:examples/../src/kxmx_bluemchen.h ****     /** Get block size */
  43:examples/../src/kxmx_bluemchen.h ****     size_t AudioBlockSize();
  44:examples/../src/kxmx_bluemchen.h **** 
  45:examples/../src/kxmx_bluemchen.h ****     /** Get callback rate */
  46:examples/../src/kxmx_bluemchen.h ****     float AudioCallbackRate();
  47:examples/../src/kxmx_bluemchen.h **** 
  48:examples/../src/kxmx_bluemchen.h ****     /** Start the bluemchen audio with the given callback function
  49:examples/../src/kxmx_bluemchen.h ****     \cb AudioCallback callback function
  50:examples/../src/kxmx_bluemchen.h ****     */
  51:examples/../src/kxmx_bluemchen.h ****     void StartAudio(daisy::AudioHandle::AudioCallback cb);
  52:examples/../src/kxmx_bluemchen.h **** 
  53:examples/../src/kxmx_bluemchen.h ****     /** Starts the callback
  54:examples/../src/kxmx_bluemchen.h ****     \param cb Interleaved callback function
  55:examples/../src/kxmx_bluemchen.h ****     */
  56:examples/../src/kxmx_bluemchen.h ****     void StartAudio(daisy::AudioHandle::InterleavingAudioCallback cb);
  57:examples/../src/kxmx_bluemchen.h **** 
  58:examples/../src/kxmx_bluemchen.h ****     /**
ARM GAS  C:\Users\yaman\AppData\Local\Temp\ccCu6FW5.s 			page 222


  59:examples/../src/kxmx_bluemchen.h ****      Change the AudioCallback function
  60:examples/../src/kxmx_bluemchen.h ****      \param cb The new callback function.
  61:examples/../src/kxmx_bluemchen.h ****   */
  62:examples/../src/kxmx_bluemchen.h ****     void ChangeAudioCallback(daisy::AudioHandle::AudioCallback cb);
  63:examples/../src/kxmx_bluemchen.h **** 
  64:examples/../src/kxmx_bluemchen.h ****     /** Stops the audio */
  65:examples/../src/kxmx_bluemchen.h ****     void StopAudio();
  66:examples/../src/kxmx_bluemchen.h **** 
  67:examples/../src/kxmx_bluemchen.h ****     /** Start the ADC */
  68:examples/../src/kxmx_bluemchen.h ****     void StartAdc();
  69:examples/../src/kxmx_bluemchen.h **** 
  70:examples/../src/kxmx_bluemchen.h ****     /** Stop the ADC */
  71:examples/../src/kxmx_bluemchen.h ****     void StopAdc();
  72:examples/../src/kxmx_bluemchen.h **** 
  73:examples/../src/kxmx_bluemchen.h ****     /** Process all analog controls */
  74:examples/../src/kxmx_bluemchen.h ****     void ProcessAnalogControls();
  75:examples/../src/kxmx_bluemchen.h **** 
  76:examples/../src/kxmx_bluemchen.h ****     /** Process all digital controls */
  77:examples/../src/kxmx_bluemchen.h ****     void ProcessDigitalControls();
  78:examples/../src/kxmx_bluemchen.h **** 
  79:examples/../src/kxmx_bluemchen.h ****     /** Process Analog and Digital Controls */
  80:examples/../src/kxmx_bluemchen.h ****     inline void ProcessAllControls()
 8234              		.loc 1 80 17 view .LVU2018
 8235              	.LBB2010:
  81:examples/../src/kxmx_bluemchen.h ****     {
  82:examples/../src/kxmx_bluemchen.h ****         ProcessAnalogControls();
 8236              		.loc 1 82 9 view .LVU2019
 8237              	.LBE2010:
 8238              	.LBE2009:
 160:examples/looper.cpp ****     bluemchen.ProcessAllControls();
 8239              		.loc 14 160 24 is_stmt 0 view .LVU2020
 8240 0000 10B5     		push	{r4, lr}
 8241              		.cfi_def_cfa_offset 8
 8242              		.cfi_offset 4, -8
 8243              		.cfi_offset 14, -4
 8244              	.LBB2012:
 8245              	.LBB2011:
 8246              		.loc 1 82 30 view .LVU2021
 8247 0002 2F4C     		ldr	r4, .L693+8
 8248 0004 2046     		mov	r0, r4
 8249 0006 FFF7FEFF 		bl	_ZN4kxmx9Bluemchen21ProcessAnalogControlsEv
 8250              	.LVL580:
  83:examples/../src/kxmx_bluemchen.h ****         ProcessDigitalControls();
 8251              		.loc 1 83 9 is_stmt 1 view .LVU2022
 8252              		.loc 1 83 31 is_stmt 0 view .LVU2023
 8253 000a 2046     		mov	r0, r4
 8254 000c FFF7FEFF 		bl	_ZN4kxmx9Bluemchen22ProcessDigitalControlsEv
 8255              	.LVL581:
 8256              		.loc 1 83 31 view .LVU2024
 8257              	.LBE2011:
 8258              	.LBE2012:
 162:examples/looper.cpp ****     
 163:examples/looper.cpp ****     // CV
 164:examples/looper.cpp ****     shared_cv_l.store(bluemchen.controls[bluemchen.CTRL_3].Value(), std::memory_order_relaxed);
 8259              		.loc 14 164 5 is_stmt 1 view .LVU2025
 8260              	.LBB2013:
 8261              	.LBI2013:
ARM GAS  C:\Users\yaman\AppData\Local\Temp\ccCu6FW5.s 			page 223


 8262              		.file 18 "libDaisy/src/hid/ctrl.h"
   1:libDaisy/src/hid/ctrl.h **** #pragma once
   2:libDaisy/src/hid/ctrl.h **** #ifndef DSY_KNOB_H
   3:libDaisy/src/hid/ctrl.h **** #define DSY_KNOB_H /**< & */
   4:libDaisy/src/hid/ctrl.h **** #include <stdint.h>
   5:libDaisy/src/hid/ctrl.h **** 
   6:libDaisy/src/hid/ctrl.h **** #ifdef __cplusplus
   7:libDaisy/src/hid/ctrl.h **** namespace daisy
   8:libDaisy/src/hid/ctrl.h **** {
   9:libDaisy/src/hid/ctrl.h **** /**
  10:libDaisy/src/hid/ctrl.h ****     @brief Hardware Interface for control inputs \n 
  11:libDaisy/src/hid/ctrl.h ****     Primarily designed for ADC input controls such as \n 
  12:libDaisy/src/hid/ctrl.h ****     potentiometers, and control voltage. \n 
  13:libDaisy/src/hid/ctrl.h ****     @author Stephen Hensley
  14:libDaisy/src/hid/ctrl.h ****     @date November 2019
  15:libDaisy/src/hid/ctrl.h ****     @ingroup controls
  16:libDaisy/src/hid/ctrl.h **** */
  17:libDaisy/src/hid/ctrl.h **** class AnalogControl
  18:libDaisy/src/hid/ctrl.h **** {
  19:libDaisy/src/hid/ctrl.h ****   public:
  20:libDaisy/src/hid/ctrl.h ****     /** Constructor */
  21:libDaisy/src/hid/ctrl.h ****     AnalogControl() {}
  22:libDaisy/src/hid/ctrl.h ****     /** destructor */
  23:libDaisy/src/hid/ctrl.h ****     ~AnalogControl() {}
  24:libDaisy/src/hid/ctrl.h **** 
  25:libDaisy/src/hid/ctrl.h ****     /** 
  26:libDaisy/src/hid/ctrl.h ****     Initializes the control
  27:libDaisy/src/hid/ctrl.h ****     \param *adcptr is a pointer to the raw adc read value -- This can be acquired with dsy_adc_get_
  28:libDaisy/src/hid/ctrl.h ****     \param sr is the samplerate in Hz that the Process function will be called at.
  29:libDaisy/src/hid/ctrl.h ****     \param flip determines whether the input is flipped (i.e. 1.f - input) or not before being proc
  30:libDaisy/src/hid/ctrl.h ****     \param invert determines whether the input is inverted (i.e. -1.f * input) or note before being
  31:libDaisy/src/hid/ctrl.h ****     \param slew_seconds is the slew time in seconds that it takes for the control to change to a ne
  32:libDaisy/src/hid/ctrl.h ****     */
  33:libDaisy/src/hid/ctrl.h ****     void Init(uint16_t *adcptr,
  34:libDaisy/src/hid/ctrl.h ****               float     sr,
  35:libDaisy/src/hid/ctrl.h ****               bool      flip         = false,
  36:libDaisy/src/hid/ctrl.h ****               bool      invert       = false,
  37:libDaisy/src/hid/ctrl.h ****               float     slew_seconds = 0.002f);
  38:libDaisy/src/hid/ctrl.h **** 
  39:libDaisy/src/hid/ctrl.h ****     /** 
  40:libDaisy/src/hid/ctrl.h ****     This Initializes the AnalogControl for a -5V to 5V inverted input
  41:libDaisy/src/hid/ctrl.h ****     All of the Init details are the same otherwise
  42:libDaisy/src/hid/ctrl.h ****     \param *adcptr Pointer to analog digital converter
  43:libDaisy/src/hid/ctrl.h ****     \param sr Audio engine sample rate
  44:libDaisy/src/hid/ctrl.h ****     */
  45:libDaisy/src/hid/ctrl.h ****     void InitBipolarCv(uint16_t *adcptr, float sr);
  46:libDaisy/src/hid/ctrl.h **** 
  47:libDaisy/src/hid/ctrl.h ****     /** 
  48:libDaisy/src/hid/ctrl.h ****     Filters, and transforms a raw ADC read into a normalized range.
  49:libDaisy/src/hid/ctrl.h ****     this should be called at the rate of specified by samplerate at Init time.   
  50:libDaisy/src/hid/ctrl.h ****     Default Initializations will return 0.0 -> 1.0
  51:libDaisy/src/hid/ctrl.h ****     Bi-polar CV inputs will return -1.0 -> 1.0
  52:libDaisy/src/hid/ctrl.h ****     */
  53:libDaisy/src/hid/ctrl.h ****     float Process();
  54:libDaisy/src/hid/ctrl.h **** 
  55:libDaisy/src/hid/ctrl.h ****     /** Returns the current stored value, without reprocessing */
  56:libDaisy/src/hid/ctrl.h ****     inline float Value() const { return val_; }
ARM GAS  C:\Users\yaman\AppData\Local\Temp\ccCu6FW5.s 			page 224


 8263              		.loc 18 56 18 view .LVU2026
 8264              	.LBB2014:
 8265              		.loc 18 56 34 view .LVU2027
 8266              		.loc 18 56 34 is_stmt 0 view .LVU2028
 8267              	.LBE2014:
 8268              	.LBE2013:
 8269              	.LBB2015:
 8270              	.LBI2015:
 246:c:\users\yaman\downloads\daisytoolchain-0.3.3\daisytoolchain-0.3.3\windows\arm-none-eabi\include\c++\10.2.1\atomic ****       { __atomic_store(std::__addressof(_M_i), std::__addressof(__i), int(__m)); }
 8271              		.loc 15 246 7 is_stmt 1 view .LVU2029
 8272              	.LBB2016:
 247:c:\users\yaman\downloads\daisytoolchain-0.3.3\daisytoolchain-0.3.3\windows\arm-none-eabi\include\c++\10.2.1\atomic **** 
 8273              		.loc 15 247 23 is_stmt 0 view .LVU2030
 8274 0010 D4F8A410 		ldr	r1, [r4, #164]
 8275 0014 2B4A     		ldr	r2, .L693+12
 8276              	.LBE2016:
 8277              	.LBE2015:
 8278              	.LBB2018:
 8279              	.LBB2019:
 8280 0016 2C4B     		ldr	r3, .L693+16
 8281              	.LBE2019:
 8282              	.LBE2018:
 8283              	.LBB2022:
 8284              	.LBB2017:
 8285 0018 1160     		str	r1, [r2]
 8286              	.LVL582:
 247:c:\users\yaman\downloads\daisytoolchain-0.3.3\daisytoolchain-0.3.3\windows\arm-none-eabi\include\c++\10.2.1\atomic **** 
 8287              		.loc 15 247 23 view .LVU2031
 8288              	.LBE2017:
 8289              	.LBE2022:
 165:examples/looper.cpp ****     shared_cv_r.store(bluemchen.controls[bluemchen.CTRL_4].Value(), std::memory_order_relaxed);
 8290              		.loc 14 165 5 is_stmt 1 view .LVU2032
 8291              	.LBB2023:
 8292              	.LBI2023:
 8293              		.loc 18 56 18 view .LVU2033
 8294              	.LBB2024:
 8295              		.loc 18 56 34 view .LVU2034
 8296              		.loc 18 56 34 is_stmt 0 view .LVU2035
 8297              	.LBE2024:
 8298              	.LBE2023:
 8299              	.LBB2025:
 8300              	.LBI2018:
 246:c:\users\yaman\downloads\daisytoolchain-0.3.3\daisytoolchain-0.3.3\windows\arm-none-eabi\include\c++\10.2.1\atomic ****       { __atomic_store(std::__addressof(_M_i), std::__addressof(__i), int(__m)); }
 8301              		.loc 15 246 7 is_stmt 1 view .LVU2036
 8302              	.LBB2020:
 247:c:\users\yaman\downloads\daisytoolchain-0.3.3\daisytoolchain-0.3.3\windows\arm-none-eabi\include\c++\10.2.1\atomic **** 
 8303              		.loc 15 247 23 is_stmt 0 view .LVU2037
 8304 001a D4F8C410 		ldr	r1, [r4, #196]
 8305              	.LBE2020:
 8306              	.LBE2025:
 8307              	.LBB2026:
 8308              	.LBB2027:
 8309 001e 2B4A     		ldr	r2, .L693+20
 8310              	.LBE2027:
 8311              	.LBE2026:
 8312              	.LBB2030:
 8313              	.LBB2021:
ARM GAS  C:\Users\yaman\AppData\Local\Temp\ccCu6FW5.s 			page 225


 8314 0020 1960     		str	r1, [r3]
 8315              	.LVL583:
 247:c:\users\yaman\downloads\daisytoolchain-0.3.3\daisytoolchain-0.3.3\windows\arm-none-eabi\include\c++\10.2.1\atomic **** 
 8316              		.loc 15 247 23 view .LVU2038
 8317              	.LBE2021:
 8318              	.LBE2030:
 166:examples/looper.cpp ****     
 167:examples/looper.cpp ****     // Knob (CTRL_1, CTRL_2)
 168:examples/looper.cpp ****     shared_knob_l.store(bluemchen.controls[bluemchen.CTRL_1].Value(), std::memory_order_relaxed);
 8319              		.loc 14 168 5 is_stmt 1 view .LVU2039
 8320              	.LBB2031:
 8321              	.LBI2031:
 8322              		.loc 18 56 18 view .LVU2040
 8323              	.LBB2032:
 8324              		.loc 18 56 34 view .LVU2041
 8325              		.loc 18 56 34 is_stmt 0 view .LVU2042
 8326              	.LBE2032:
 8327              	.LBE2031:
 8328              	.LBB2033:
 8329              	.LBI2026:
 246:c:\users\yaman\downloads\daisytoolchain-0.3.3\daisytoolchain-0.3.3\windows\arm-none-eabi\include\c++\10.2.1\atomic ****       { __atomic_store(std::__addressof(_M_i), std::__addressof(__i), int(__m)); }
 8330              		.loc 15 246 7 is_stmt 1 view .LVU2043
 8331              	.LBB2028:
 247:c:\users\yaman\downloads\daisytoolchain-0.3.3\daisytoolchain-0.3.3\windows\arm-none-eabi\include\c++\10.2.1\atomic **** 
 8332              		.loc 15 247 23 is_stmt 0 view .LVU2044
 8333 0022 616E     		ldr	r1, [r4, #100]
 8334              	.LBE2028:
 8335              	.LBE2033:
 8336              	.LBB2034:
 8337              	.LBB2035:
 8338 0024 2A4B     		ldr	r3, .L693+24
 8339              	.LBE2035:
 8340              	.LBE2034:
 8341              	.LBB2037:
 8342              	.LBB2029:
 8343 0026 1160     		str	r1, [r2]
 8344              	.LVL584:
 247:c:\users\yaman\downloads\daisytoolchain-0.3.3\daisytoolchain-0.3.3\windows\arm-none-eabi\include\c++\10.2.1\atomic **** 
 8345              		.loc 15 247 23 view .LVU2045
 8346              	.LBE2029:
 8347              	.LBE2037:
 169:examples/looper.cpp ****     shared_knob_r.store(bluemchen.controls[bluemchen.CTRL_2].Value(), std::memory_order_relaxed);
 8348              		.loc 14 169 5 is_stmt 1 view .LVU2046
 8349              	.LBB2038:
 8350              	.LBI2038:
 8351              		.loc 18 56 18 view .LVU2047
 8352              	.LBB2039:
 8353              		.loc 18 56 34 view .LVU2048
 8354              		.loc 18 56 34 is_stmt 0 view .LVU2049
 8355              	.LBE2039:
 8356              	.LBE2038:
 8357              	.LBB2040:
 8358              	.LBI2034:
 246:c:\users\yaman\downloads\daisytoolchain-0.3.3\daisytoolchain-0.3.3\windows\arm-none-eabi\include\c++\10.2.1\atomic ****       { __atomic_store(std::__addressof(_M_i), std::__addressof(__i), int(__m)); }
 8359              		.loc 15 246 7 is_stmt 1 view .LVU2050
 8360              	.LBB2036:
 247:c:\users\yaman\downloads\daisytoolchain-0.3.3\daisytoolchain-0.3.3\windows\arm-none-eabi\include\c++\10.2.1\atomic **** 
ARM GAS  C:\Users\yaman\AppData\Local\Temp\ccCu6FW5.s 			page 226


 8361              		.loc 15 247 23 is_stmt 0 view .LVU2051
 8362 0028 D4F88420 		ldr	r2, [r4, #132]
 8363 002c 1A60     		str	r2, [r3]
 8364              	.LVL585:
 247:c:\users\yaman\downloads\daisytoolchain-0.3.3\daisytoolchain-0.3.3\windows\arm-none-eabi\include\c++\10.2.1\atomic **** 
 8365              		.loc 15 247 23 view .LVU2052
 8366              	.LBE2036:
 8367              	.LBE2040:
 170:examples/looper.cpp **** 
 171:examples/looper.cpp ****     if (bluemchen.encoder.TimeHeldMs() >= 1000) {
 8368              		.loc 14 171 5 is_stmt 1 view .LVU2053
 8369              	.LBB2041:
 8370              	.LBI2041:
  22:libDaisy/src/hid/encoder.h **** 
  23:libDaisy/src/hid/encoder.h ****     /** Initializes the encoder with the specified hardware pins.
  24:libDaisy/src/hid/encoder.h ****      * Update rate is to be deprecated in a future release
  25:libDaisy/src/hid/encoder.h ****      */
  26:libDaisy/src/hid/encoder.h ****     void Init(dsy_gpio_pin a,
  27:libDaisy/src/hid/encoder.h ****               dsy_gpio_pin b,
  28:libDaisy/src/hid/encoder.h ****               dsy_gpio_pin click,
  29:libDaisy/src/hid/encoder.h ****               float        update_rate = 0.f);
  30:libDaisy/src/hid/encoder.h ****     /** Called at update_rate to debounce and handle timing for the switch.
  31:libDaisy/src/hid/encoder.h ****      * In order for events not to be missed, its important that the Edge/Pressed checks be made at 
  32:libDaisy/src/hid/encoder.h ****      */
  33:libDaisy/src/hid/encoder.h ****     void Debounce();
  34:libDaisy/src/hid/encoder.h **** 
  35:libDaisy/src/hid/encoder.h ****     /** Returns +1 if the encoder was turned clockwise, -1 if it was turned counter-clockwise, or 0
  36:libDaisy/src/hid/encoder.h ****     inline int32_t Increment() const { return inc_; }
  37:libDaisy/src/hid/encoder.h **** 
  38:libDaisy/src/hid/encoder.h ****     /** Returns true if the encoder was just pressed. */
  39:libDaisy/src/hid/encoder.h ****     inline bool RisingEdge() const { return sw_.RisingEdge(); }
  40:libDaisy/src/hid/encoder.h **** 
  41:libDaisy/src/hid/encoder.h ****     /** Returns true if the encoder was just released. */
  42:libDaisy/src/hid/encoder.h ****     inline bool FallingEdge() const { return sw_.FallingEdge(); }
  43:libDaisy/src/hid/encoder.h **** 
  44:libDaisy/src/hid/encoder.h ****     /** Returns true while the encoder is held down.*/
  45:libDaisy/src/hid/encoder.h ****     inline bool Pressed() const { return sw_.Pressed(); }
  46:libDaisy/src/hid/encoder.h **** 
  47:libDaisy/src/hid/encoder.h ****     /** Returns the time in milliseconds that the encoder has been held down. */
  48:libDaisy/src/hid/encoder.h ****     inline float TimeHeldMs() const { return sw_.TimeHeldMs(); }
 8371              		.loc 6 48 18 view .LVU2054
 8372              	.LBE2041:
 8373              		.loc 6 48 39 view .LVU2055
 8374              	.LBB2050:
 8375              	.LBB2042:
 8376              	.LBI2042:
  43:libDaisy/src/hid/switch.h **** 
  44:libDaisy/src/hid/switch.h ****     /** 
  45:libDaisy/src/hid/switch.h ****     Initializes the switch object with a given port/pin combo.
  46:libDaisy/src/hid/switch.h ****     \param pin port/pin object to tell the switch which hardware pin to use.
  47:libDaisy/src/hid/switch.h ****     \param update_rate Does nothing. Backwards compatibility until next breaking update.
  48:libDaisy/src/hid/switch.h ****     \param t switch type -- Default: TYPE_MOMENTARY
  49:libDaisy/src/hid/switch.h ****     \param pol switch polarity -- Default: POLARITY_INVERTED
  50:libDaisy/src/hid/switch.h ****     \param pu switch pull up/down -- Default: PULL_UP
  51:libDaisy/src/hid/switch.h ****     */
  52:libDaisy/src/hid/switch.h ****     void
  53:libDaisy/src/hid/switch.h ****     Init(dsy_gpio_pin pin, float update_rate, Type t, Polarity pol, Pull pu);
ARM GAS  C:\Users\yaman\AppData\Local\Temp\ccCu6FW5.s 			page 227


  54:libDaisy/src/hid/switch.h **** 
  55:libDaisy/src/hid/switch.h ****     /**
  56:libDaisy/src/hid/switch.h ****        Simplified Init.
  57:libDaisy/src/hid/switch.h ****        \param pin port/pin object to tell the switch which hardware pin to use.
  58:libDaisy/src/hid/switch.h ****        \param update_rate Left for backwards compatibility until next breaking change.
  59:libDaisy/src/hid/switch.h ****     */
  60:libDaisy/src/hid/switch.h ****     void Init(dsy_gpio_pin pin, float update_rate = 0.f);
  61:libDaisy/src/hid/switch.h **** 
  62:libDaisy/src/hid/switch.h ****     /** 
  63:libDaisy/src/hid/switch.h ****     Called at update_rate to debounce and handle timing for the switch.
  64:libDaisy/src/hid/switch.h ****     In order for events not to be missed, its important that the Edge/Pressed checks
  65:libDaisy/src/hid/switch.h ****     be made at the same rate as the debounce function is being called.
  66:libDaisy/src/hid/switch.h ****     */
  67:libDaisy/src/hid/switch.h ****     void Debounce();
  68:libDaisy/src/hid/switch.h **** 
  69:libDaisy/src/hid/switch.h ****     /** \return true if a button was just pressed. */
  70:libDaisy/src/hid/switch.h ****     inline bool RisingEdge() const { return state_ == 0x7f; }
  71:libDaisy/src/hid/switch.h **** 
  72:libDaisy/src/hid/switch.h ****     /** \return true if the button was just released */
  73:libDaisy/src/hid/switch.h ****     inline bool FallingEdge() const { return state_ == 0x80; }
  74:libDaisy/src/hid/switch.h **** 
  75:libDaisy/src/hid/switch.h ****     /** \return true if the button is held down (or if the toggle is on) */
  76:libDaisy/src/hid/switch.h ****     inline bool Pressed() const { return state_ == 0xff; }
  77:libDaisy/src/hid/switch.h **** 
  78:libDaisy/src/hid/switch.h ****     /** \return true if the button is held down, without debouncing */
  79:libDaisy/src/hid/switch.h ****     inline bool RawState()
  80:libDaisy/src/hid/switch.h ****     {
  81:libDaisy/src/hid/switch.h ****         return flip_ ? !dsy_gpio_read(&hw_gpio_) : dsy_gpio_read(&hw_gpio_);
  82:libDaisy/src/hid/switch.h ****     }
  83:libDaisy/src/hid/switch.h **** 
  84:libDaisy/src/hid/switch.h ****     /** \return the time in milliseconds that the button has been held (or toggle has been on) */
  85:libDaisy/src/hid/switch.h ****     inline float TimeHeldMs() const
 8377              		.loc 7 85 18 view .LVU2056
 8378              	.LBB2043:
  86:libDaisy/src/hid/switch.h ****     {
  87:libDaisy/src/hid/switch.h ****         return Pressed() ? System::GetNow() - rising_edge_time_ : 0;
 8379              		.loc 7 87 9 view .LVU2057
 8380              	.LBB2044:
 8381              	.LBI2044:
  76:libDaisy/src/hid/switch.h **** 
 8382              		.loc 7 76 17 view .LVU2058
 8383              	.LBB2045:
  76:libDaisy/src/hid/switch.h **** 
 8384              		.loc 7 76 35 view .LVU2059
  76:libDaisy/src/hid/switch.h **** 
 8385              		.loc 7 76 42 is_stmt 0 view .LVU2060
 8386 002e 94F84130 		ldrb	r3, [r4, #65]	@ zero_extendqisi2
 8387              	.LVL586:
  76:libDaisy/src/hid/switch.h **** 
 8388              		.loc 7 76 42 view .LVU2061
 8389              	.LBE2045:
 8390              	.LBE2044:
 8391              		.loc 7 87 26 view .LVU2062
 8392 0032 FF2B     		cmp	r3, #255
 8393 0034 02D0     		beq	.L689
 8394              	.LVL587:
 8395              	.L679:
ARM GAS  C:\Users\yaman\AppData\Local\Temp\ccCu6FW5.s 			page 228


 8396              		.loc 7 87 26 view .LVU2063
 8397              	.LBE2043:
 8398              	.LBE2042:
 8399              	.LBE2050:
 172:examples/looper.cpp ****         looper_l.Reset(); looper_r.Reset();
 173:examples/looper.cpp ****         ignore_release = true;
 174:examples/looper.cpp ****     }
 175:examples/looper.cpp ****     if (bluemchen.encoder.FallingEdge()) {
 8400              		.loc 14 175 5 is_stmt 1 view .LVU2064
 8401              	.LBB2051:
 8402              	.LBI2051:
  42:libDaisy/src/hid/encoder.h **** 
 8403              		.loc 6 42 17 view .LVU2065
 8404              	.LBE2051:
  42:libDaisy/src/hid/encoder.h **** 
 8405              		.loc 6 42 39 view .LVU2066
 8406              	.LBB2058:
 8407              	.LBB2052:
 8408              	.LBI2052:
  73:libDaisy/src/hid/switch.h **** 
 8409              		.loc 7 73 17 view .LVU2067
 8410              	.LBB2053:
  73:libDaisy/src/hid/switch.h **** 
 8411              		.loc 7 73 39 view .LVU2068
  73:libDaisy/src/hid/switch.h **** 
 8412              		.loc 7 73 39 is_stmt 0 view .LVU2069
 8413              	.LBE2053:
 8414              	.LBE2052:
 8415              	.LBE2058:
 8416              		.loc 14 175 5 view .LVU2070
 8417 0036 802B     		cmp	r3, #128
 8418 0038 2CD0     		beq	.L690
 8419              	.L678:
 176:examples/looper.cpp ****         if (!ignore_release) { looper_l.Arm(); looper_r.Arm(); }
 177:examples/looper.cpp ****         ignore_release = false;
 178:examples/looper.cpp ****     }
 179:examples/looper.cpp **** }
 8420              		.loc 14 179 1 view .LVU2071
 8421 003a 10BD     		pop	{r4, pc}
 8422              	.LVL588:
 8423              	.L689:
 8424              	.LBB2059:
 8425              	.LBB2048:
 8426              	.LBB2046:
 8427              		.loc 7 87 42 view .LVU2072
 8428 003c FFF7FEFF 		bl	_ZN5daisy6System6GetNowEv
 8429              	.LVL589:
 8430              		.loc 7 87 45 view .LVU2073
 8431 0040 07EE900A 		vmov	s15, r0	@ int
 8432              		.loc 7 87 26 view .LVU2074
 8433 0044 D4ED116A 		vldr.32	s13, [r4, #68]
 8434              		.loc 7 87 45 view .LVU2075
 8435 0048 F8EE677A 		vcvt.f32.u32	s15, s15
 8436              	.LBE2046:
 8437              	.LBE2048:
 8438              	.LBE2059:
 171:examples/looper.cpp ****         looper_l.Reset(); looper_r.Reset();
ARM GAS  C:\Users\yaman\AppData\Local\Temp\ccCu6FW5.s 			page 229


 8439              		.loc 14 171 5 view .LVU2076
 8440 004c 9FED217A 		vldr.32	s14, .L693+28
 8441              	.LBB2060:
 8442              	.LBB2049:
 8443              	.LBB2047:
 8444              		.loc 7 87 26 view .LVU2077
 8445 0050 77EEE67A 		vsub.f32	s15, s15, s13
 8446              	.LBE2047:
 8447              	.LBE2049:
 8448              	.LBE2060:
 171:examples/looper.cpp ****         looper_l.Reset(); looper_r.Reset();
 8449              		.loc 14 171 5 view .LVU2078
 8450 0054 F4EEC77A 		vcmpe.f32	s15, s14
 8451 0058 F1EE10FA 		vmrs	APSR_nzcv, FPSCR
 8452 005c 26DB     		blt	.L691
 172:examples/looper.cpp ****         ignore_release = true;
 8453              		.loc 14 172 9 is_stmt 1 view .LVU2079
 8454              	.LVL590:
 8455              	.LBB2061:
 8456              	.LBI2061:
  37:examples/looper.cpp ****         state = IDLE;
 8457              		.loc 14 37 10 view .LVU2080
 8458              	.LBB2062:
  38:examples/looper.cpp ****         pos = 0; loop_len = 0;
 8459              		.loc 14 38 9 view .LVU2081
  38:examples/looper.cpp ****         pos = 0; loop_len = 0;
 8460              		.loc 14 38 15 is_stmt 0 view .LVU2082
 8461 005e 1E4A     		ldr	r2, .L693+32
 8462 0060 0021     		movs	r1, #0
 8463              	.LBE2062:
 8464              	.LBE2061:
 8465              	.LBB2067:
 8466              	.LBB2068:
 8467 0062 1E4B     		ldr	r3, .L693+36
 8468              	.LBE2068:
 8469              	.LBE2067:
 8470              	.LBB2073:
 8471              	.LBB2063:
 8472 0064 1171     		strb	r1, [r2, #4]
  39:examples/looper.cpp ****         mod_len = MAX_SIZE_PER_CHANNEL;
 8473              		.loc 14 39 9 is_stmt 1 view .LVU2083
  39:examples/looper.cpp ****         mod_len = MAX_SIZE_PER_CHANNEL;
 8474              		.loc 14 39 18 view .LVU2084
  41:examples/looper.cpp ****     }
 8475              		.loc 14 41 31 is_stmt 0 view .LVU2085
 8476 0066 1175     		strb	r1, [r2, #20]
 8477              	.LBE2063:
 8478              	.LBE2073:
 175:examples/looper.cpp ****         if (!ignore_release) { looper_l.Arm(); looper_r.Arm(); }
 8479              		.loc 14 175 5 view .LVU2086
 8480 0068 94F84140 		ldrb	r4, [r4, #65]	@ zero_extendqisi2
 8481              	.LBB2074:
 8482              	.LBB2069:
  38:examples/looper.cpp ****         pos = 0; loop_len = 0;
 8483              		.loc 14 38 15 view .LVU2087
 8484 006c 1971     		strb	r1, [r3, #4]
  41:examples/looper.cpp ****     }
ARM GAS  C:\Users\yaman\AppData\Local\Temp\ccCu6FW5.s 			page 230


 8485              		.loc 14 41 31 view .LVU2088
 8486 006e 1975     		strb	r1, [r3, #20]
 8487              	.LBE2069:
 8488              	.LBE2074:
 175:examples/looper.cpp ****         if (!ignore_release) { looper_l.Arm(); looper_r.Arm(); }
 8489              		.loc 14 175 5 view .LVU2089
 8490 0070 802C     		cmp	r4, #128
 8491              	.LBB2075:
 8492              	.LBB2064:
  40:examples/looper.cpp ****         is_triggered_internal = false;
 8493              		.loc 14 40 17 view .LVU2090
 8494 0072 1B49     		ldr	r1, .L693+40
 8495              	.LBE2064:
 8496              	.LBE2075:
 173:examples/looper.cpp ****     }
 8497              		.loc 14 173 24 view .LVU2091
 8498 0074 1B48     		ldr	r0, .L693+44
 8499              	.LBB2076:
 8500              	.LBB2065:
  40:examples/looper.cpp ****         is_triggered_internal = false;
 8501              		.loc 14 40 17 view .LVU2092
 8502 0076 1161     		str	r1, [r2, #16]
 8503              	.LBE2065:
 8504              	.LBE2076:
 8505              	.LBB2077:
 8506              	.LBB2070:
 8507 0078 1961     		str	r1, [r3, #16]
 8508              	.LBE2070:
 8509              	.LBE2077:
 8510              	.LBB2078:
 8511              	.LBB2066:
  39:examples/looper.cpp ****         mod_len = MAX_SIZE_PER_CHANNEL;
 8512              		.loc 14 39 13 view .LVU2093
 8513 007a 9FED0F7B 		vldr.64	d7, .L693	@ int
 8514 007e 82ED027B 		vstr.64	d7, [r2, #8]	@ int
  40:examples/looper.cpp ****         is_triggered_internal = false;
 8515              		.loc 14 40 9 is_stmt 1 view .LVU2094
  41:examples/looper.cpp ****     }
 8516              		.loc 14 41 9 view .LVU2095
 8517              	.LVL591:
  41:examples/looper.cpp ****     }
 8518              		.loc 14 41 9 is_stmt 0 view .LVU2096
 8519              	.LBE2066:
 8520              	.LBE2078:
 172:examples/looper.cpp ****         ignore_release = true;
 8521              		.loc 14 172 27 is_stmt 1 view .LVU2097
 8522              	.LBB2079:
 8523              	.LBI2067:
  37:examples/looper.cpp ****         state = IDLE;
 8524              		.loc 14 37 10 view .LVU2098
 8525              	.LBB2071:
  38:examples/looper.cpp ****         pos = 0; loop_len = 0;
 8526              		.loc 14 38 9 view .LVU2099
  39:examples/looper.cpp ****         mod_len = MAX_SIZE_PER_CHANNEL;
 8527              		.loc 14 39 9 view .LVU2100
  39:examples/looper.cpp ****         mod_len = MAX_SIZE_PER_CHANNEL;
 8528              		.loc 14 39 18 view .LVU2101
ARM GAS  C:\Users\yaman\AppData\Local\Temp\ccCu6FW5.s 			page 231


  40:examples/looper.cpp ****         is_triggered_internal = false;
 8529              		.loc 14 40 9 view .LVU2102
  41:examples/looper.cpp ****     }
 8530              		.loc 14 41 9 view .LVU2103
  41:examples/looper.cpp ****     }
 8531              		.loc 14 41 9 is_stmt 0 view .LVU2104
 8532              	.LBE2071:
 8533              	.LBE2079:
 173:examples/looper.cpp ****     }
 8534              		.loc 14 173 9 is_stmt 1 view .LVU2105
 173:examples/looper.cpp ****     }
 8535              		.loc 14 173 24 is_stmt 0 view .LVU2106
 8536 0082 4FF00102 		mov	r2, #1
 8537              	.LBB2080:
 8538              	.LBB2072:
  39:examples/looper.cpp ****         mod_len = MAX_SIZE_PER_CHANNEL;
 8539              		.loc 14 39 13 view .LVU2107
 8540 0086 83ED027B 		vstr.64	d7, [r3, #8]	@ int
 8541              	.LBE2072:
 8542              	.LBE2080:
 173:examples/looper.cpp ****     }
 8543              		.loc 14 173 24 view .LVU2108
 8544 008a 0270     		strb	r2, [r0]
 175:examples/looper.cpp ****         if (!ignore_release) { looper_l.Arm(); looper_r.Arm(); }
 8545              		.loc 14 175 5 is_stmt 1 view .LVU2109
 8546              	.LVL592:
 8547              	.LBB2081:
  42:libDaisy/src/hid/encoder.h **** 
 8548              		.loc 6 42 17 view .LVU2110
 8549              	.LBE2081:
  42:libDaisy/src/hid/encoder.h **** 
 8550              		.loc 6 42 39 view .LVU2111
 8551              	.LBB2082:
 8552              	.LBB2056:
  73:libDaisy/src/hid/switch.h **** 
 8553              		.loc 7 73 17 view .LVU2112
 8554              	.LBB2054:
  73:libDaisy/src/hid/switch.h **** 
 8555              		.loc 7 73 39 view .LVU2113
  73:libDaisy/src/hid/switch.h **** 
 8556              		.loc 7 73 39 is_stmt 0 view .LVU2114
 8557              	.LBE2054:
 8558              	.LBE2056:
 8559              	.LBE2082:
 175:examples/looper.cpp ****         if (!ignore_release) { looper_l.Arm(); looper_r.Arm(); }
 8560              		.loc 14 175 5 view .LVU2115
 8561 008c D5D1     		bne	.L678
 8562              	.L683:
 177:examples/looper.cpp ****     }
 8563              		.loc 14 177 9 is_stmt 1 view .LVU2116
 177:examples/looper.cpp ****     }
 8564              		.loc 14 177 24 is_stmt 0 view .LVU2117
 8565 008e 0023     		movs	r3, #0
 8566 0090 0370     		strb	r3, [r0]
 8567              	.L692:
 8568              		.loc 14 179 1 view .LVU2118
 8569 0092 10BD     		pop	{r4, pc}
ARM GAS  C:\Users\yaman\AppData\Local\Temp\ccCu6FW5.s 			page 232


 8570              	.L690:
 176:examples/looper.cpp ****         ignore_release = false;
 8571              		.loc 14 176 9 is_stmt 1 view .LVU2119
 176:examples/looper.cpp ****         ignore_release = false;
 8572              		.loc 14 176 13 is_stmt 0 view .LVU2120
 8573 0094 1348     		ldr	r0, .L693+44
 176:examples/looper.cpp ****         ignore_release = false;
 8574              		.loc 14 176 9 view .LVU2121
 8575 0096 0378     		ldrb	r3, [r0]	@ zero_extendqisi2
 8576 0098 002B     		cmp	r3, #0
 8577 009a F8D1     		bne	.L683
 176:examples/looper.cpp ****         ignore_release = false;
 8578              		.loc 14 176 32 is_stmt 1 view .LVU2122
 8579              	.LVL593:
 8580              	.LBB2083:
 8581              	.LBI2083:
  44:examples/looper.cpp **** 
 8582              		.loc 14 44 10 view .LVU2123
 8583              	.LBB2084:
  44:examples/looper.cpp **** 
 8584              		.loc 14 44 18 view .LVU2124
  44:examples/looper.cpp **** 
 8585              		.loc 14 44 24 is_stmt 0 view .LVU2125
 8586 009c 0123     		movs	r3, #1
 8587 009e 0E49     		ldr	r1, .L693+32
 8588              	.LBE2084:
 8589              	.LBE2083:
 8590              	.LBB2086:
 8591              	.LBB2087:
 8592 00a0 0E4A     		ldr	r2, .L693+36
 8593              	.LBE2087:
 8594              	.LBE2086:
 8595              	.LBB2089:
 8596              	.LBB2085:
 8597 00a2 0B71     		strb	r3, [r1, #4]
 8598              	.LVL594:
  44:examples/looper.cpp **** 
 8599              		.loc 14 44 24 view .LVU2126
 8600              	.LBE2085:
 8601              	.LBE2089:
 176:examples/looper.cpp ****         ignore_release = false;
 8602              		.loc 14 176 48 is_stmt 1 view .LVU2127
 8603              	.LBB2090:
 8604              	.LBI2086:
  44:examples/looper.cpp **** 
 8605              		.loc 14 44 10 view .LVU2128
 8606              	.LBB2088:
  44:examples/looper.cpp **** 
 8607              		.loc 14 44 18 view .LVU2129
  44:examples/looper.cpp **** 
 8608              		.loc 14 44 24 is_stmt 0 view .LVU2130
 8609 00a4 1371     		strb	r3, [r2, #4]
 8610              	.LVL595:
  44:examples/looper.cpp **** 
 8611              		.loc 14 44 24 view .LVU2131
 8612              	.LBE2088:
 8613              	.LBE2090:
ARM GAS  C:\Users\yaman\AppData\Local\Temp\ccCu6FW5.s 			page 233


 177:examples/looper.cpp ****     }
 8614              		.loc 14 177 9 is_stmt 1 view .LVU2132
 177:examples/looper.cpp ****     }
 8615              		.loc 14 177 24 is_stmt 0 view .LVU2133
 8616 00a6 0023     		movs	r3, #0
 8617 00a8 0370     		strb	r3, [r0]
 8618 00aa F2E7     		b	.L692
 8619              	.L691:
 8620              	.LBB2091:
 8621              	.LBB2057:
 8622              	.LBB2055:
  73:libDaisy/src/hid/switch.h **** 
 8623              		.loc 7 73 46 view .LVU2134
 8624 00ac 94F84130 		ldrb	r3, [r4, #65]	@ zero_extendqisi2
 8625 00b0 C1E7     		b	.L679
 8626              	.L694:
 8627 00b2 00BFAFF3 		.align	3
 8627      0080
 8628              	.L693:
 8629 00b8 00000000 		.word	0
 8630 00bc 00000000 		.word	0
 8631 00c0 00000000 		.word	bluemchen
 8632 00c4 00000000 		.word	.LANCHOR0
 8633 00c8 00000000 		.word	.LANCHOR1
 8634 00cc 00000000 		.word	.LANCHOR2
 8635 00d0 00000000 		.word	.LANCHOR3
 8636 00d4 00007A44 		.word	1148846080
 8637 00d8 00000000 		.word	.LANCHOR4
 8638 00dc 00000000 		.word	.LANCHOR5
 8639 00e0 00F22B00 		.word	2880000
 8640 00e4 00000000 		.word	.LANCHOR6
 8641              	.LBE2055:
 8642              	.LBE2057:
 8643              	.LBE2091:
 8644              		.cfi_endproc
 8645              	.LFE4757:
 8647              		.section	.rodata.main.str1.4,"aMS",%progbits,1
 8648              		.align	2
 8649              	.LC2:
 8650 0000 45525200 		.ascii	"ERR\000"
 8651              		.align	2
 8652              	.LC3:
 8653 0004 4E4F524D 		.ascii	"NORM\000"
 8653      00
 8654 0009 000000   		.align	2
 8655              	.LC4:
 8656 000c 2F256400 		.ascii	"/%d\000"
 8657              		.section	.text.startup.main,"ax",%progbits
 8658              		.align	1
 8659              		.p2align 2,,3
 8660              		.global	main
 8661              		.syntax unified
 8662              		.thumb
 8663              		.thumb_func
 8664              		.fpu fpv5-d16
 8666              	main:
 8667              	.LFB4758:
ARM GAS  C:\Users\yaman\AppData\Local\Temp\ccCu6FW5.s 			page 234


 180:examples/looper.cpp **** 
 181:examples/looper.cpp **** int main(void) {
 8668              		.loc 14 181 16 is_stmt 1 view -0
 8669              		.cfi_startproc
 8670              		@ args = 0, pretend = 0, frame = 48
 8671              		@ frame_needed = 0, uses_anonymous_args = 0
 182:examples/looper.cpp ****     bluemchen.Init();
 8672              		.loc 14 182 5 view .LVU2136
 181:examples/looper.cpp ****     bluemchen.Init();
 8673              		.loc 14 181 16 is_stmt 0 view .LVU2137
 8674 0000 2DE9F04F 		push	{r4, r5, r6, r7, r8, r9, r10, fp, lr}
 8675              		.cfi_def_cfa_offset 36
 8676              		.cfi_offset 4, -36
 8677              		.cfi_offset 5, -32
 8678              		.cfi_offset 6, -28
 8679              		.cfi_offset 7, -24
 8680              		.cfi_offset 8, -20
 8681              		.cfi_offset 9, -16
 8682              		.cfi_offset 10, -12
 8683              		.cfi_offset 11, -8
 8684              		.cfi_offset 14, -4
 8685              	.LBB2314:
 8686              	.LBB2315:
  30:examples/looper.cpp ****         is_triggered_internal = false;
 8687              		.loc 14 30 16 view .LVU2138
 8688 0004 A24D     		ldr	r5, .L840
 8689              	.LBE2315:
 8690              	.LBE2314:
 181:examples/looper.cpp ****     bluemchen.Init();
 8691              		.loc 14 181 16 view .LVU2139
 8692 0006 8FB0     		sub	sp, sp, #60
 8693              		.cfi_def_cfa_offset 96
 8694              	.LBB2331:
 8695              	.LBB2326:
  30:examples/looper.cpp ****         is_triggered_internal = false;
 8696              		.loc 14 30 16 view .LVU2140
 8697 0008 A24C     		ldr	r4, .L840+4
 8698              	.LBE2326:
 8699              	.LBE2331:
 8700              		.loc 14 182 19 view .LVU2141
 8701 000a A348     		ldr	r0, .L840+8
 8702 000c FFF7FEFF 		bl	_ZN4kxmx9Bluemchen4InitEv
 8703              	.LVL596:
 183:examples/looper.cpp ****     looper_l.Init(buf_l);
 8704              		.loc 14 183 5 is_stmt 1 view .LVU2142
 8705              	.LBB2332:
 8706              	.LBI2314:
  29:examples/looper.cpp ****         buffer = buf_ptr;
 8707              		.loc 14 29 10 view .LVU2143
 8708              	.LBB2327:
  30:examples/looper.cpp ****         is_triggered_internal = false;
 8709              		.loc 14 30 9 view .LVU2144
  31:examples/looper.cpp ****         slice_start = 0;
 8710              		.loc 14 31 31 is_stmt 0 view .LVU2145
 8711 0010 0023     		movs	r3, #0
  30:examples/looper.cpp ****         is_triggered_internal = false;
 8712              		.loc 14 30 16 view .LVU2146
ARM GAS  C:\Users\yaman\AppData\Local\Temp\ccCu6FW5.s 			page 235


 8713 0012 2C60     		str	r4, [r5]
  31:examples/looper.cpp ****         slice_start = 0;
 8714              		.loc 14 31 9 is_stmt 1 view .LVU2147
 8715              	.LBB2316:
 8716              	.LBB2317:
  39:examples/looper.cpp ****         mod_len = MAX_SIZE_PER_CHANNEL;
 8717              		.loc 14 39 13 is_stmt 0 view .LVU2148
 8718 0014 0021     		movs	r1, #0
 8719              	.LBE2317:
 8720              	.LBE2316:
 8721              	.LBE2327:
 8722              	.LBE2332:
 8723              	.LBB2333:
 8724              	.LBB2334:
 8725              	.LBB2335:
 8726              	.LBB2336:
 8727 0016 A14C     		ldr	r4, .L840+12
 8728              	.LBE2336:
 8729              	.LBE2335:
 8730              	.LBE2334:
 8731              	.LBE2333:
 8732              	.LBB2349:
 8733              	.LBB2328:
 8734              	.LBB2322:
 8735              	.LBB2318:
 8736 0018 0020     		movs	r0, #0
 8737 001a DFF8A0B2 		ldr	fp, .L840+44
  40:examples/looper.cpp ****         is_triggered_internal = false;
 8738              		.loc 14 40 17 view .LVU2149
 8739 001e A04A     		ldr	r2, .L840+16
 8740              	.LBE2318:
 8741              	.LBE2322:
  31:examples/looper.cpp ****         slice_start = 0;
 8742              		.loc 14 31 31 view .LVU2150
 8743 0020 2B75     		strb	r3, [r5, #20]
  32:examples/looper.cpp ****         slice_timer = 0;
 8744              		.loc 14 32 9 is_stmt 1 view .LVU2151
  32:examples/looper.cpp ****         slice_timer = 0;
 8745              		.loc 14 32 21 is_stmt 0 view .LVU2152
 8746 0022 AB61     		str	r3, [r5, #24]
  33:examples/looper.cpp ****         Reset();
 8747              		.loc 14 33 9 is_stmt 1 view .LVU2153
  33:examples/looper.cpp ****         Reset();
 8748              		.loc 14 33 21 is_stmt 0 view .LVU2154
 8749 0024 2B62     		str	r3, [r5, #32]
  34:examples/looper.cpp ****     }
 8750              		.loc 14 34 9 is_stmt 1 view .LVU2155
 8751              	.LVL597:
 8752              	.LBB2323:
 8753              	.LBI2316:
  37:examples/looper.cpp ****         state = IDLE;
 8754              		.loc 14 37 10 view .LVU2156
 8755              	.LBB2319:
  38:examples/looper.cpp ****         pos = 0; loop_len = 0;
 8756              		.loc 14 38 9 view .LVU2157
  38:examples/looper.cpp ****         pos = 0; loop_len = 0;
 8757              		.loc 14 38 15 is_stmt 0 view .LVU2158
ARM GAS  C:\Users\yaman\AppData\Local\Temp\ccCu6FW5.s 			page 236


 8758 0026 2B71     		strb	r3, [r5, #4]
  39:examples/looper.cpp ****         mod_len = MAX_SIZE_PER_CHANNEL;
 8759              		.loc 14 39 9 is_stmt 1 view .LVU2159
  39:examples/looper.cpp ****         mod_len = MAX_SIZE_PER_CHANNEL;
 8760              		.loc 14 39 18 view .LVU2160
 8761              	.LBE2319:
 8762              	.LBE2323:
 8763              	.LBE2328:
 8764              	.LBE2349:
 8765              	.LBB2350:
 8766              	.LBB2345:
  31:examples/looper.cpp ****         slice_start = 0;
 8767              		.loc 14 31 31 is_stmt 0 view .LVU2161
 8768 0028 2375     		strb	r3, [r4, #20]
  32:examples/looper.cpp ****         slice_timer = 0;
 8769              		.loc 14 32 21 view .LVU2162
 8770 002a A361     		str	r3, [r4, #24]
  33:examples/looper.cpp ****         Reset();
 8771              		.loc 14 33 21 view .LVU2163
 8772 002c 2362     		str	r3, [r4, #32]
 8773              	.LBB2341:
 8774              	.LBB2337:
  38:examples/looper.cpp ****         pos = 0; loop_len = 0;
 8775              		.loc 14 38 15 view .LVU2164
 8776 002e 2371     		strb	r3, [r4, #4]
 8777              	.LBE2337:
 8778              	.LBE2341:
  30:examples/looper.cpp ****         is_triggered_internal = false;
 8779              		.loc 14 30 16 view .LVU2165
 8780 0030 9C4B     		ldr	r3, .L840+20
 8781              	.LBE2345:
 8782              	.LBE2350:
 8783              	.LBB2351:
 8784              	.LBB2329:
 8785              	.LBB2324:
 8786              	.LBB2320:
  40:examples/looper.cpp ****         is_triggered_internal = false;
 8787              		.loc 14 40 17 view .LVU2166
 8788 0032 2A61     		str	r2, [r5, #16]
 8789              	.LBE2320:
 8790              	.LBE2324:
 8791              	.LBE2329:
 8792              	.LBE2351:
 8793              	.LBB2352:
 8794              	.LBB2346:
 8795              	.LBB2342:
 8796              	.LBB2338:
 8797 0034 2261     		str	r2, [r4, #16]
 8798              	.LBE2338:
 8799              	.LBE2342:
  30:examples/looper.cpp ****         is_triggered_internal = false;
 8800              		.loc 14 30 16 view .LVU2167
 8801 0036 2360     		str	r3, [r4]
 8802              	.LBE2346:
 8803              	.LBE2352:
 8804              	.LBB2353:
 8805              	.LBB2330:
ARM GAS  C:\Users\yaman\AppData\Local\Temp\ccCu6FW5.s 			page 237


 8806              	.LBB2325:
 8807              	.LBB2321:
  39:examples/looper.cpp ****         mod_len = MAX_SIZE_PER_CHANNEL;
 8808              		.loc 14 39 13 view .LVU2168
 8809 0038 C5E90201 		strd	r0, [r5, #8]
  40:examples/looper.cpp ****         is_triggered_internal = false;
 8810              		.loc 14 40 9 is_stmt 1 view .LVU2169
  41:examples/looper.cpp ****     }
 8811              		.loc 14 41 9 view .LVU2170
 8812              	.LVL598:
  41:examples/looper.cpp ****     }
 8813              		.loc 14 41 9 is_stmt 0 view .LVU2171
 8814              	.LBE2321:
 8815              	.LBE2325:
 8816              	.LBE2330:
 8817              	.LBE2353:
 184:examples/looper.cpp ****     looper_r.Init(buf_r);
 8818              		.loc 14 184 5 is_stmt 1 view .LVU2172
 8819              	.LBB2354:
 8820              	.LBI2333:
  29:examples/looper.cpp ****         buffer = buf_ptr;
 8821              		.loc 14 29 10 view .LVU2173
 8822              	.LBB2347:
  30:examples/looper.cpp ****         is_triggered_internal = false;
 8823              		.loc 14 30 9 view .LVU2174
  31:examples/looper.cpp ****         slice_start = 0;
 8824              		.loc 14 31 9 view .LVU2175
  32:examples/looper.cpp ****         slice_timer = 0;
 8825              		.loc 14 32 9 view .LVU2176
  33:examples/looper.cpp ****         Reset();
 8826              		.loc 14 33 9 view .LVU2177
  34:examples/looper.cpp ****     }
 8827              		.loc 14 34 9 view .LVU2178
 8828              	.LBB2343:
 8829              	.LBI2335:
  37:examples/looper.cpp ****         state = IDLE;
 8830              		.loc 14 37 10 view .LVU2179
 8831              	.LBB2339:
  38:examples/looper.cpp ****         pos = 0; loop_len = 0;
 8832              		.loc 14 38 9 view .LVU2180
  39:examples/looper.cpp ****         mod_len = MAX_SIZE_PER_CHANNEL;
 8833              		.loc 14 39 9 view .LVU2181
  39:examples/looper.cpp ****         mod_len = MAX_SIZE_PER_CHANNEL;
 8834              		.loc 14 39 18 view .LVU2182
  40:examples/looper.cpp ****         is_triggered_internal = false;
 8835              		.loc 14 40 9 view .LVU2183
  41:examples/looper.cpp ****     }
 8836              		.loc 14 41 9 view .LVU2184
  41:examples/looper.cpp ****     }
 8837              		.loc 14 41 9 is_stmt 0 view .LVU2185
 8838              	.LBE2339:
 8839              	.LBE2343:
 8840              	.LBE2347:
 8841              	.LBE2354:
 185:examples/looper.cpp ****     bluemchen.StartAdc();
 8842              		.loc 14 185 5 is_stmt 1 view .LVU2186
 8843              	.LBB2355:
ARM GAS  C:\Users\yaman\AppData\Local\Temp\ccCu6FW5.s 			page 238


 8844              	.LBB2348:
 8845              	.LBB2344:
 8846              	.LBB2340:
  39:examples/looper.cpp ****         mod_len = MAX_SIZE_PER_CHANNEL;
 8847              		.loc 14 39 13 is_stmt 0 view .LVU2187
 8848 003c C4E90201 		strd	r0, [r4, #8]
 8849              	.LBE2340:
 8850              	.LBE2344:
 8851              	.LBE2348:
 8852              	.LBE2355:
 8853              		.loc 14 185 23 view .LVU2188
 8854 0040 ABF51040 		sub	r0, fp, #36864
 8855 0044 FFF7FEFF 		bl	_ZN4kxmx9Bluemchen8StartAdcEv
 8856              	.LVL599:
 186:examples/looper.cpp ****     bluemchen.StartAudio(AudioCallback);
 8857              		.loc 14 186 5 is_stmt 1 view .LVU2189
 8858              		.loc 14 186 25 is_stmt 0 view .LVU2190
 8859 0048 9749     		ldr	r1, .L840+24
 8860 004a ABF51040 		sub	r0, fp, #36864
 8861 004e FFF7FEFF 		bl	_ZN4kxmx9Bluemchen10StartAudioEPFvPKPKfPPfjE
 8862              	.LVL600:
 8863              	.L696:
 187:examples/looper.cpp **** 
 188:examples/looper.cpp ****     while(1) {
 8864              		.loc 14 188 5 is_stmt 1 view .LVU2191
 8865              	.LBB2356:
 189:examples/looper.cpp ****         ProcessControls();
 8866              		.loc 14 189 9 view .LVU2192
 8867              		.loc 14 189 24 is_stmt 0 view .LVU2193
 8868 0052 FFF7FEFF 		bl	_Z15ProcessControlsv
 8869              	.LVL601:
 190:examples/looper.cpp ****         uint32_t now = System::GetNow();
 8870              		.loc 14 190 9 is_stmt 1 view .LVU2194
 8871              		.loc 14 190 38 is_stmt 0 view .LVU2195
 8872 0056 FFF7FEFF 		bl	_ZN5daisy6System6GetNowEv
 8873              	.LVL602:
 191:examples/looper.cpp ****         if(now - last_oled_update > 30) {
 8874              		.loc 14 191 9 is_stmt 1 view .LVU2196
 8875              	.LBB2357:
 8876              		.loc 14 191 16 is_stmt 0 view .LVU2197
 8877 005a 944B     		ldr	r3, .L840+28
 8878 005c 1B68     		ldr	r3, [r3]
 8879 005e C31A     		subs	r3, r0, r3
 8880              		.loc 14 191 9 view .LVU2198
 8881 0060 1E2B     		cmp	r3, #30
 8882 0062 F6D9     		bls	.L696
 8883              	.LBB2358:
 192:examples/looper.cpp ****             last_oled_update = now;
 8884              		.loc 14 192 13 is_stmt 1 view .LVU2199
 8885              		.loc 14 192 30 is_stmt 0 view .LVU2200
 8886 0064 914B     		ldr	r3, .L840+28
 8887              	.LBB2359:
 8888              	.LBB2360:
 8889              	.LBB2361:
 253:libDaisy/src/dev/oled_ssd130x.h ****         }
 8890              		.loc 13 253 24 view .LVU2201
 8891 0066 4FF48072 		mov	r2, #256
ARM GAS  C:\Users\yaman\AppData\Local\Temp\ccCu6FW5.s 			page 239


 8892 006a 0021     		movs	r1, #0
 8893              	.LBE2361:
 8894              	.LBE2360:
 8895              	.LBE2359:
 8896              		.loc 14 192 30 view .LVU2202
 8897 006c 1860     		str	r0, [r3]
 193:examples/looper.cpp ****             bluemchen.display.Fill(false);
 8898              		.loc 14 193 13 is_stmt 1 view .LVU2203
 8899              	.LVL603:
 8900              	.LBB2364:
 8901              	.LBI2359:
  34:libDaisy/src/hid/disp/oled_display.h **** 
 8902              		.loc 2 34 10 view .LVU2204
 8903              	.LBB2363:
 8904              	.LBI2360:
 249:libDaisy/src/dev/oled_ssd130x.h ****     {
 8905              		.loc 13 249 10 view .LVU2205
 8906              	.LBB2362:
 251:libDaisy/src/dev/oled_ssd130x.h ****         {
 8907              		.loc 13 251 29 view .LVU2206
 253:libDaisy/src/dev/oled_ssd130x.h ****         }
 8908              		.loc 13 253 24 is_stmt 0 view .LVU2207
 8909 006e 9048     		ldr	r0, .L840+32
 8910              	.LVL604:
 253:libDaisy/src/dev/oled_ssd130x.h ****         }
 8911              		.loc 13 253 24 view .LVU2208
 8912 0070 FFF7FEFF 		bl	memset
 8913              	.LVL605:
 253:libDaisy/src/dev/oled_ssd130x.h ****         }
 8914              		.loc 13 253 24 view .LVU2209
 8915              	.LBE2362:
 8916              	.LBE2363:
 8917              	.LBE2364:
 194:examples/looper.cpp ****             bluemchen.display.DrawLine(31, 0, 31, 31, true);
 8918              		.loc 14 194 13 is_stmt 1 view .LVU2210
 8919              	.LBB2365:
 8920              	.LBI2365:
 221:libDaisy/src/hid/disp/display.h ****                   uint_fast8_t y1,
 8921              		.loc 3 221 10 view .LVU2211
 8922              	.LBB2366:
 8923              	.LBB2367:
 8924              	.LBI2367:
  42:libDaisy/src/hid/disp/oled_display.h ****     {
 8925              		.loc 2 42 10 view .LVU2212
 8926              	.LBB2368:
 8927              	.LBI2368:
 239:libDaisy/src/dev/oled_ssd130x.h ****     {
 8928              		.loc 13 239 10 view .LVU2213
 8929              	.LBB2369:
 244:libDaisy/src/dev/oled_ssd130x.h ****         else
 8930              		.loc 13 244 42 is_stmt 0 view .LVU2214
 8931 0074 8023     		movs	r3, #128
 8932 0076 0022     		movs	r2, #0
 8933 0078 8BF88732 		strb	r3, [fp, #647]
 8934              	.LVL606:
 244:libDaisy/src/dev/oled_ssd130x.h ****         else
 8935              		.loc 13 244 42 view .LVU2215
ARM GAS  C:\Users\yaman\AppData\Local\Temp\ccCu6FW5.s 			page 240


 8936              	.LBE2369:
 8937              	.LBE2368:
 8938              	.LBE2367:
 239:libDaisy/src/hid/disp/display.h ****         {
 8939              		.loc 3 239 26 is_stmt 1 view .LVU2216
 8940              	.L697:
 8941              	.LBB2370:
 8942              	.LBI2370:
  42:libDaisy/src/hid/disp/oled_display.h ****     {
 8943              		.loc 2 42 10 view .LVU2217
 8944              	.LBB2371:
 8945              	.LBI2371:
 239:libDaisy/src/dev/oled_ssd130x.h ****     {
 8946              		.loc 13 239 10 view .LVU2218
 8947              	.LBB2372:
 244:libDaisy/src/dev/oled_ssd130x.h ****         else
 8948              		.loc 13 244 28 is_stmt 0 view .LVU2219
 8949 007c D108     		lsrs	r1, r2, #3
 244:libDaisy/src/dev/oled_ssd130x.h ****         else
 8950              		.loc 13 244 54 view .LVU2220
 8951 007e 02F00700 		and	r0, r2, #7
 244:libDaisy/src/dev/oled_ssd130x.h ****         else
 8952              		.loc 13 244 48 view .LVU2221
 8953 0082 0123     		movs	r3, #1
 8954              	.LBE2372:
 8955              	.LBE2371:
 8956              	.LBE2370:
 252:libDaisy/src/hid/disp/display.h ****             }
 8957              		.loc 3 252 20 view .LVU2222
 8958 0084 0132     		adds	r2, r2, #1
 8959              	.LVL607:
 8960              	.LBB2377:
 8961              	.LBB2375:
 8962              	.LBB2373:
 244:libDaisy/src/dev/oled_ssd130x.h ****         else
 8963              		.loc 13 244 42 view .LVU2223
 8964 0086 0BEB8111 		add	r1, fp, r1, lsl #6
 244:libDaisy/src/dev/oled_ssd130x.h ****         else
 8965              		.loc 13 244 48 view .LVU2224
 8966 008a 8340     		lsls	r3, r3, r0
 8967              	.LBE2373:
 8968              	.LBE2375:
 8969              	.LBE2377:
 239:libDaisy/src/hid/disp/display.h ****         {
 8970              		.loc 3 239 26 view .LVU2225
 8971 008c 1F2A     		cmp	r2, #31
 8972              	.LBB2378:
 8973              	.LBB2376:
 8974              	.LBB2374:
 244:libDaisy/src/dev/oled_ssd130x.h ****         else
 8975              		.loc 13 244 42 view .LVU2226
 8976 008e 91F8C701 		ldrb	r0, [r1, #455]	@ zero_extendqisi2
 8977 0092 43EA0003 		orr	r3, r3, r0
 8978 0096 81F8C731 		strb	r3, [r1, #455]
 8979              	.LVL608:
 244:libDaisy/src/dev/oled_ssd130x.h ****         else
 8980              		.loc 13 244 42 view .LVU2227
ARM GAS  C:\Users\yaman\AppData\Local\Temp\ccCu6FW5.s 			page 241


 8981              	.LBE2374:
 8982              	.LBE2376:
 8983              	.LBE2378:
 239:libDaisy/src/hid/disp/display.h ****         {
 8984              		.loc 3 239 26 is_stmt 1 view .LVU2228
 8985 009a EFD1     		bne	.L697
 8986              	.LVL609:
 239:libDaisy/src/hid/disp/display.h ****         {
 8987              		.loc 3 239 26 is_stmt 0 view .LVU2229
 8988              	.LBE2366:
 8989              	.LBE2365:
 195:examples/looper.cpp **** 
 196:examples/looper.cpp ****             // --- 1.  (WAIT / REC / LOOP) ---
 197:examples/looper.cpp ****             bluemchen.display.SetCursor(0, 0);
 8990              		.loc 14 197 13 is_stmt 1 view .LVU2230
 8991              	.LBB2379:
 8992              	.LBI2379:
 171:libDaisy/src/hid/disp/display.h ****     {
 8993              		.loc 3 171 10 view .LVU2231
 8994              	.LBB2380:
 173:libDaisy/src/hid/disp/display.h ****         currentY_ = (y >= Height()) ? Height() - 1 : y;
 8995              		.loc 3 173 9 view .LVU2232
 174:libDaisy/src/hid/disp/display.h ****     }
 8996              		.loc 3 174 9 view .LVU2233
 173:libDaisy/src/hid/disp/display.h ****         currentY_ = (y >= Height()) ? Height() - 1 : y;
 8997              		.loc 3 173 19 is_stmt 0 view .LVU2234
 8998 009c 0023     		movs	r3, #0
 8999 009e CBF89C31 		str	r3, [fp, #412]
 9000              	.LVL610:
 173:libDaisy/src/hid/disp/display.h ****         currentY_ = (y >= Height()) ? Height() - 1 : y;
 9001              		.loc 3 173 19 view .LVU2235
 9002              	.LBE2380:
 9003              	.LBE2379:
 198:examples/looper.cpp ****             bluemchen.display.WriteString(looper_l.GetStateStr(), Font_6x8, true);
 9004              		.loc 14 198 13 is_stmt 1 view .LVU2236
 9005              	.LBB2381:
 9006              	.LBI2381:
  46:examples/looper.cpp ****         switch (state) {
 9007              		.loc 14 46 17 view .LVU2237
 9008              	.LBB2382:
  47:examples/looper.cpp ****             case IDLE:      return "IDLE";
 9009              		.loc 14 47 9 view .LVU2238
  47:examples/looper.cpp ****             case IDLE:      return "IDLE";
 9010              		.loc 14 47 17 is_stmt 0 view .LVU2239
 9011 00a2 7B4B     		ldr	r3, .L840
 9012 00a4 1B79     		ldrb	r3, [r3, #4]	@ zero_extendqisi2
 9013 00a6 032B     		cmp	r3, #3
 9014 00a8 00F26283 		bhi	.L698
 9015 00ac 814A     		ldr	r2, .L840+36
 9016 00ae 52F82320 		ldr	r2, [r2, r3, lsl #2]
 9017 00b2 814B     		ldr	r3, .L840+40
 9018              	.LBE2382:
 9019              	.LBE2381:
 9020              	.LBB2384:
 9021              	.LBB2385:
 443:libDaisy/src/hid/disp/display.h ****         {
 9022              		.loc 3 443 9 view .LVU2240
ARM GAS  C:\Users\yaman\AppData\Local\Temp\ccCu6FW5.s 			page 242


 9023 00b4 92F800A0 		ldrb	r10, [r2]	@ zero_extendqisi2
 9024 00b8 5978     		ldrb	r1, [r3, #1]	@ zero_extendqisi2
 9025 00ba 93F80090 		ldrb	r9, [r3]	@ zero_extendqisi2
 9026 00be 5B68     		ldr	r3, [r3, #4]
 9027 00c0 0492     		str	r2, [sp, #16]
 9028              	.LVL611:
 443:libDaisy/src/hid/disp/display.h ****         {
 9029              		.loc 3 443 9 view .LVU2241
 9030 00c2 0591     		str	r1, [sp, #20]
 9031              	.LVL612:
 443:libDaisy/src/hid/disp/display.h ****         {
 9032              		.loc 3 443 9 view .LVU2242
 9033 00c4 0893     		str	r3, [sp, #32]
 9034              	.LVL613:
 443:libDaisy/src/hid/disp/display.h ****         {
 9035              		.loc 3 443 9 view .LVU2243
 9036              	.LBE2385:
 9037              	.LBI2384:
 440:libDaisy/src/hid/disp/display.h ****     {
 9038              		.loc 3 440 10 is_stmt 1 view .LVU2244
 9039              	.LBB2444:
 443:libDaisy/src/hid/disp/display.h ****         {
 9040              		.loc 3 443 9 view .LVU2245
 9041 00c6 BAF1000F 		cmp	r10, #0
 9042 00ca 00F08680 		beq	.L699
 9043 00ce 4D46     		mov	r5, r9
 9044              	.LVL614:
 9045              	.L708:
 9046              	.LBB2386:
 9047              	.LBI2386:
 396:libDaisy/src/hid/disp/display.h ****     {
 9048              		.loc 3 396 10 view .LVU2246
 9049              	.LBB2387:
 401:libDaisy/src/hid/disp/display.h ****             return 0;
 9050              		.loc 3 401 20 is_stmt 0 view .LVU2247
 9051 00d0 AAF12003 		sub	r3, r10, #32
 401:libDaisy/src/hid/disp/display.h ****             return 0;
 9052              		.loc 3 401 9 view .LVU2248
 9053 00d4 DAB2     		uxtb	r2, r3
 9054 00d6 5E2A     		cmp	r2, #94
 9055 00d8 00F24483 		bhi	.L770
 405:libDaisy/src/hid/disp/display.h ****            || Height() < (currentY_ + font.FontHeight))
 9056              		.loc 3 405 23 view .LVU2249
 9057 00dc BBF89C91 		ldrh	r9, [fp, #412]
 405:libDaisy/src/hid/disp/display.h ****            || Height() < (currentY_ + font.FontHeight))
 9058              		.loc 3 405 33 view .LVU2250
 9059 00e0 09EB0502 		add	r2, r9, r5
 406:libDaisy/src/hid/disp/display.h ****         {
 9060              		.loc 3 406 12 view .LVU2251
 9061 00e4 402A     		cmp	r2, #64
 405:libDaisy/src/hid/disp/display.h ****            || Height() < (currentY_ + font.FontHeight))
 9062              		.loc 3 405 33 view .LVU2252
 9063 00e6 0692     		str	r2, [sp, #24]
 406:libDaisy/src/hid/disp/display.h ****         {
 9064              		.loc 3 406 12 view .LVU2253
 9065 00e8 00F33C83 		bgt	.L770
 406:libDaisy/src/hid/disp/display.h ****         {
ARM GAS  C:\Users\yaman\AppData\Local\Temp\ccCu6FW5.s 			page 243


 9066              		.loc 3 406 27 view .LVU2254
 9067 00ec BBF89E21 		ldrh	r2, [fp, #414]
 406:libDaisy/src/hid/disp/display.h ****         {
 9068              		.loc 3 406 37 view .LVU2255
 9069 00f0 0599     		ldr	r1, [sp, #20]
 406:libDaisy/src/hid/disp/display.h ****         {
 9070              		.loc 3 406 27 view .LVU2256
 9071 00f2 0792     		str	r2, [sp, #28]
 406:libDaisy/src/hid/disp/display.h ****         {
 9072              		.loc 3 406 37 view .LVU2257
 9073 00f4 0A44     		add	r2, r2, r1
 406:libDaisy/src/hid/disp/display.h ****         {
 9074              		.loc 3 406 12 view .LVU2258
 9075 00f6 202A     		cmp	r2, #32
 9076 00f8 00F33483 		bgt	.L770
 9077              	.LVL615:
 413:libDaisy/src/hid/disp/display.h ****         {
 9078              		.loc 3 413 22 is_stmt 1 view .LVU2259
 9079 00fc 0029     		cmp	r1, #0
 9080 00fe 53D0     		beq	.L702
 415:libDaisy/src/hid/disp/display.h ****             for(j = 0; j < font.FontWidth; j++)
 9081              		.loc 3 415 37 is_stmt 0 view .LVU2260
 9082 0100 01FB03F3 		mul	r3, r1, r3
 9083 0104 002D     		cmp	r5, #0
 9084 0106 4FD0     		beq	.L702
 9085 0108 6FF0004E 		mvn	lr, #-2147483648
 9086 010c 089A     		ldr	r2, [sp, #32]
 9087 010e CDF824A0 		str	r10, [sp, #36]
 9088 0112 9E44     		add	lr, lr, r3
 9089 0114 0B44     		add	r3, r3, r1
 9090 0116 DDF81CC0 		ldr	ip, [sp, #28]
 9091 011a 02EB4E0E 		add	lr, r2, lr, lsl #1
 9092 011e 023A     		subs	r2, r2, #2
 9093 0120 02EB4303 		add	r3, r2, r3, lsl #1
 9094 0124 0393     		str	r3, [sp, #12]
 9095 0126 49F2A813 		movw	r3, #37288
 9096 012a 4B44     		add	r3, r9, r3
 9097 012c 9A46     		mov	r10, r3
 9098              	.LVL616:
 9099              	.L704:
 9100              	.LBB2388:
 9101              	.LBB2389:
 9102              	.LBB2390:
 9103              	.LBB2391:
 9104              	.LBB2392:
 246:libDaisy/src/dev/oled_ssd130x.h ****     }
 9105              		.loc 13 246 55 view .LVU2261
 9106 012e 0CF00703 		and	r3, ip, #7
 246:libDaisy/src/dev/oled_ssd130x.h ****     }
 9107              		.loc 13 246 49 view .LVU2262
 9108 0132 0126     		movs	r6, #1
 246:libDaisy/src/dev/oled_ssd130x.h ****     }
 9109              		.loc 13 246 28 view .LVU2263
 9110 0134 4FEADC02 		lsr	r2, ip, #3
 9111              	.LBE2392:
 9112              	.LBE2391:
 9113              	.LBE2390:
ARM GAS  C:\Users\yaman\AppData\Local\Temp\ccCu6FW5.s 			page 244


 9114              	.LBE2389:
 9115              	.LBE2388:
 9116              	.LBB2419:
 9117              	.LBB2420:
 9118              	.LBB2421:
 241:libDaisy/src/dev/oled_ssd130x.h ****             return;
 9119              		.loc 13 241 28 view .LVU2264
 9120 0138 BCF11F0F 		cmp	ip, #31
 9121              	.LBE2421:
 9122              	.LBE2420:
 9123              	.LBE2419:
 9124              	.LBB2429:
 9125              	.LBB2412:
 9126              	.LBB2406:
 9127              	.LBB2399:
 9128              	.LBB2393:
 246:libDaisy/src/dev/oled_ssd130x.h ****     }
 9129              		.loc 13 246 49 view .LVU2265
 9130 013c 06FA03F6 		lsl	r6, r6, r3
 9131 0140 554B     		ldr	r3, .L840+8
 9132 0142 0AEB8212 		add	r2, r10, r2, lsl #6
 9133              	.LBE2393:
 9134              	.LBE2399:
 9135              	.LBE2406:
 9136              	.LBE2412:
 9137              	.LBE2429:
 415:libDaisy/src/hid/disp/display.h ****             for(j = 0; j < font.FontWidth; j++)
 9138              		.loc 3 415 15 view .LVU2266
 9139 0146 3EF8024F 		ldrh	r4, [lr, #2]!
 9140              	.LVL617:
 416:libDaisy/src/hid/disp/display.h ****             {
 9141              		.loc 3 416 26 is_stmt 1 view .LVU2267
 9142              	.LBB2430:
 9143              	.LBB2413:
 9144              	.LBB2407:
 9145              	.LBB2400:
 9146              	.LBB2394:
 246:libDaisy/src/dev/oled_ssd130x.h ****     }
 9147              		.loc 13 246 42 is_stmt 0 view .LVU2268
 9148 014a 76B2     		sxtb	r6, r6
 9149              	.LBE2394:
 9150              	.LBE2400:
 9151              	.LBE2407:
 9152              	.LBE2413:
 9153              	.LBE2430:
 422:libDaisy/src/hid/disp/display.h ****                 }
 9154              		.loc 3 422 29 view .LVU2269
 9155 014c 4946     		mov	r1, r9
 9156 014e 1A44     		add	r2, r2, r3
 9157              	.LBB2431:
 9158              	.LBB2425:
 9159              	.LBB2422:
 241:libDaisy/src/dev/oled_ssd130x.h ****             return;
 9160              		.loc 13 241 28 view .LVU2270
 9161 0150 98BF     		it	ls
 9162 0152 0027     		movls	r7, #0
 9163              	.LBE2422:
ARM GAS  C:\Users\yaman\AppData\Local\Temp\ccCu6FW5.s 			page 245


 9164              	.LBE2425:
 9165              	.LBE2431:
 9166              	.LBB2432:
 9167              	.LBB2414:
 9168              	.LBB2408:
 9169              	.LBB2401:
 9170              	.LBB2395:
 246:libDaisy/src/dev/oled_ssd130x.h ****     }
 9171              		.loc 13 246 42 view .LVU2271
 9172 0154 6FEA0608 		mvn	r8, r6
 9173              	.LBE2395:
 9174              	.LBE2401:
 9175              	.LBE2408:
 9176              	.LBE2414:
 9177              	.LBE2432:
 9178              	.LBB2433:
 9179              	.LBB2426:
 9180              	.LBB2423:
 241:libDaisy/src/dev/oled_ssd130x.h ****             return;
 9181              		.loc 13 241 28 view .LVU2272
 9182 0158 88BF     		it	hi
 9183 015a 0127     		movhi	r7, #1
 9184              	.LBE2423:
 9185              	.LBE2426:
 9186              	.LBE2433:
 416:libDaisy/src/hid/disp/display.h ****             {
 9187              		.loc 3 416 19 view .LVU2273
 9188 015c 0023     		movs	r3, #0
 9189 015e 0AE0     		b	.L703
 9190              	.LVL618:
 9191              	.L829:
 9192              	.LBB2434:
 9193              	.LBB2427:
 9194              	.LBB2424:
 241:libDaisy/src/dev/oled_ssd130x.h ****             return;
 9195              		.loc 13 241 9 view .LVU2274
 9196 0160 3F29     		cmp	r1, #63
 9197 0162 03D8     		bhi	.L706
 9198 0164 17B9     		cbnz	r7, .L706
 244:libDaisy/src/dev/oled_ssd130x.h ****         else
 9199              		.loc 13 244 42 view .LVU2275
 9200 0166 1078     		ldrb	r0, [r2]	@ zero_extendqisi2
 9201 0168 3043     		orrs	r0, r0, r6
 9202 016a 1070     		strb	r0, [r2]
 9203              	.L706:
 9204              	.LVL619:
 244:libDaisy/src/dev/oled_ssd130x.h ****         else
 9205              		.loc 13 244 42 view .LVU2276
 9206              	.LBE2424:
 9207              	.LBE2427:
 9208              	.LBE2434:
 416:libDaisy/src/hid/disp/display.h ****             {
 9209              		.loc 3 416 13 is_stmt 1 view .LVU2277
 9210 016c 0133     		adds	r3, r3, #1
 9211              	.LVL620:
 416:libDaisy/src/hid/disp/display.h ****             {
 9212              		.loc 3 416 26 view .LVU2278
ARM GAS  C:\Users\yaman\AppData\Local\Temp\ccCu6FW5.s 			page 246


 9213 016e 0132     		adds	r2, r2, #1
 9214 0170 0131     		adds	r1, r1, #1
 9215 0172 AB42     		cmp	r3, r5
 9216 0174 11D0     		beq	.L828
 9217              	.LVL621:
 9218              	.L703:
 9219              	.LBB2435:
 9220              	.LBI2419:
  42:libDaisy/src/hid/disp/oled_display.h ****     {
 9221              		.loc 2 42 10 view .LVU2279
 9222              	.LBB2428:
 9223              	.LBI2420:
 239:libDaisy/src/dev/oled_ssd130x.h ****     {
 9224              		.loc 13 239 10 view .LVU2280
 239:libDaisy/src/dev/oled_ssd130x.h ****     {
 9225              		.loc 13 239 10 is_stmt 0 view .LVU2281
 9226              	.LBE2428:
 9227              	.LBE2435:
 9228              	.LBB2436:
 9229              	.LBI2388:
  42:libDaisy/src/hid/disp/oled_display.h ****     {
 9230              		.loc 2 42 10 is_stmt 1 view .LVU2282
 9231              	.LBB2415:
 9232              	.LBI2389:
 239:libDaisy/src/dev/oled_ssd130x.h ****     {
 9233              		.loc 13 239 10 view .LVU2283
 239:libDaisy/src/dev/oled_ssd130x.h ****     {
 9234              		.loc 13 239 10 is_stmt 0 view .LVU2284
 9235              	.LBE2415:
 9236              	.LBE2436:
 418:libDaisy/src/hid/disp/display.h ****                 {
 9237              		.loc 3 418 23 view .LVU2285
 9238 0176 04FA03F0 		lsl	r0, r4, r3
 418:libDaisy/src/hid/disp/display.h ****                 {
 9239              		.loc 3 418 17 view .LVU2286
 9240 017a 0004     		lsls	r0, r0, #16
 9241 017c F0D4     		bmi	.L829
 9242              	.LVL622:
 9243              	.LBB2437:
 9244              	.LBB2416:
 9245              	.LBB2409:
 9246              	.LBB2402:
 9247              	.LBI2391:
 239:libDaisy/src/dev/oled_ssd130x.h ****     {
 9248              		.loc 13 239 10 is_stmt 1 view .LVU2287
 239:libDaisy/src/dev/oled_ssd130x.h ****     {
 9249              		.loc 13 239 10 is_stmt 0 view .LVU2288
 9250              	.LBE2402:
 241:libDaisy/src/dev/oled_ssd130x.h ****             return;
 9251              		.loc 13 241 9 view .LVU2289
 9252 017e 3F29     		cmp	r1, #63
 9253 0180 F4D8     		bhi	.L706
 9254 0182 002F     		cmp	r7, #0
 9255 0184 F2D1     		bne	.L706
 9256              	.LBB2403:
 9257              	.LBB2396:
 246:libDaisy/src/dev/oled_ssd130x.h ****     }
ARM GAS  C:\Users\yaman\AppData\Local\Temp\ccCu6FW5.s 			page 247


 9258              		.loc 13 246 42 view .LVU2290
 9259 0186 1078     		ldrb	r0, [r2]	@ zero_extendqisi2
 9260              	.LBE2396:
 9261              	.LBE2403:
 9262              	.LBE2409:
 9263              	.LBE2416:
 9264              	.LBE2437:
 416:libDaisy/src/hid/disp/display.h ****             {
 9265              		.loc 3 416 13 view .LVU2291
 9266 0188 0133     		adds	r3, r3, #1
 9267              	.LVL623:
 416:libDaisy/src/hid/disp/display.h ****             {
 9268              		.loc 3 416 26 view .LVU2292
 9269 018a 0132     		adds	r2, r2, #1
 9270 018c 0131     		adds	r1, r1, #1
 9271              	.LBB2438:
 9272              	.LBB2417:
 9273              	.LBB2410:
 9274              	.LBB2404:
 9275              	.LBB2397:
 246:libDaisy/src/dev/oled_ssd130x.h ****     }
 9276              		.loc 13 246 42 view .LVU2293
 9277 018e 08EA0000 		and	r0, r8, r0
 9278              	.LBE2397:
 9279              	.LBE2404:
 9280              	.LBE2410:
 9281              	.LBE2417:
 9282              	.LBE2438:
 416:libDaisy/src/hid/disp/display.h ****             {
 9283              		.loc 3 416 26 view .LVU2294
 9284 0192 AB42     		cmp	r3, r5
 9285              	.LBB2439:
 9286              	.LBB2418:
 9287              	.LBB2411:
 9288              	.LBB2405:
 9289              	.LBB2398:
 246:libDaisy/src/dev/oled_ssd130x.h ****     }
 9290              		.loc 13 246 42 view .LVU2295
 9291 0194 02F8010C 		strb	r0, [r2, #-1]
 9292              	.LVL624:
 246:libDaisy/src/dev/oled_ssd130x.h ****     }
 9293              		.loc 13 246 42 view .LVU2296
 9294              	.LBE2398:
 9295              	.LBE2405:
 9296              	.LBE2411:
 9297              	.LBE2418:
 9298              	.LBE2439:
 416:libDaisy/src/hid/disp/display.h ****             {
 9299              		.loc 3 416 13 is_stmt 1 view .LVU2297
 416:libDaisy/src/hid/disp/display.h ****             {
 9300              		.loc 3 416 26 view .LVU2298
 9301 0198 EDD1     		bne	.L703
 9302              	.L828:
 413:libDaisy/src/hid/disp/display.h ****         {
 9303              		.loc 3 413 9 view .LVU2299
 413:libDaisy/src/hid/disp/display.h ****         {
 9304              		.loc 3 413 22 view .LVU2300
ARM GAS  C:\Users\yaman\AppData\Local\Temp\ccCu6FW5.s 			page 248


 9305 019a 039B     		ldr	r3, [sp, #12]
 9306              	.LVL625:
 413:libDaisy/src/hid/disp/display.h ****         {
 9307              		.loc 3 413 22 is_stmt 0 view .LVU2301
 9308 019c 0CF1010C 		add	ip, ip, #1
 9309 01a0 7345     		cmp	r3, lr
 9310 01a2 C4D1     		bne	.L704
 9311 01a4 DDF824A0 		ldr	r10, [sp, #36]
 9312              	.LVL626:
 9313              	.L702:
 9314              	.LBB2440:
 9315              	.LBI2440:
 171:libDaisy/src/hid/disp/display.h ****     {
 9316              		.loc 3 171 10 is_stmt 1 view .LVU2302
 9317              	.LBB2441:
 173:libDaisy/src/hid/disp/display.h ****         currentY_ = (y >= Height()) ? Height() - 1 : y;
 9318              		.loc 3 173 9 view .LVU2303
 174:libDaisy/src/hid/disp/display.h ****     }
 9319              		.loc 3 174 19 is_stmt 0 view .LVU2304
 9320 01a8 079A     		ldr	r2, [sp, #28]
 173:libDaisy/src/hid/disp/display.h ****         currentY_ = (y >= Height()) ? Height() - 1 : y;
 9321              		.loc 3 173 19 view .LVU2305
 9322 01aa BDF81830 		ldrh	r3, [sp, #24]
 174:libDaisy/src/hid/disp/display.h ****     }
 9323              		.loc 3 174 19 view .LVU2306
 9324 01ae 1F2A     		cmp	r2, #31
 9325 01b0 28BF     		it	cs
 9326 01b2 1F22     		movcs	r2, #31
 173:libDaisy/src/hid/disp/display.h ****         currentY_ = (y >= Height()) ? Height() - 1 : y;
 9327              		.loc 3 173 19 view .LVU2307
 9328 01b4 3F2B     		cmp	r3, #63
 9329 01b6 28BF     		it	cs
 9330 01b8 3F23     		movcs	r3, #63
 174:libDaisy/src/hid/disp/display.h ****     }
 9331              		.loc 3 174 19 view .LVU2308
 9332 01ba ABF89E21 		strh	r2, [fp, #414]	@ movhi
 173:libDaisy/src/hid/disp/display.h ****         currentY_ = (y >= Height()) ? Height() - 1 : y;
 9333              		.loc 3 173 19 view .LVU2309
 9334 01be ABF89C31 		strh	r3, [fp, #412]	@ movhi
 174:libDaisy/src/hid/disp/display.h ****     }
 9335              		.loc 3 174 9 is_stmt 1 view .LVU2310
 9336              	.LVL627:
 9337              	.L700:
 174:libDaisy/src/hid/disp/display.h ****     }
 9338              		.loc 3 174 9 is_stmt 0 view .LVU2311
 9339              	.LBE2441:
 9340              	.LBE2440:
 9341              	.LBE2387:
 9342              	.LBE2386:
 445:libDaisy/src/hid/disp/display.h ****                != *str)
 9343              		.loc 3 445 13 view .LVU2312
 9344 01c2 049A     		ldr	r2, [sp, #16]
 9345 01c4 1378     		ldrb	r3, [r2]	@ zero_extendqisi2
 9346 01c6 5345     		cmp	r3, r10
 9347 01c8 06D1     		bne	.L825
 9348              	.LVL628:
 443:libDaisy/src/hid/disp/display.h ****         {
ARM GAS  C:\Users\yaman\AppData\Local\Temp\ccCu6FW5.s 			page 249


 9349              		.loc 3 443 9 is_stmt 1 view .LVU2313
 9350 01ca 12F801AF 		ldrb	r10, [r2, #1]!	@ zero_extendqisi2
 9351              	.LVL629:
 443:libDaisy/src/hid/disp/display.h ****         {
 9352              		.loc 3 443 9 is_stmt 0 view .LVU2314
 9353 01ce 0492     		str	r2, [sp, #16]
 9354 01d0 BAF1000F 		cmp	r10, #0
 9355 01d4 7FF47CAF 		bne	.L708
 9356              	.LVL630:
 9357              	.L825:
 443:libDaisy/src/hid/disp/display.h ****         {
 9358              		.loc 3 443 9 view .LVU2315
 9359 01d8 A946     		mov	r9, r5
 9360              	.L699:
 9361              	.LVL631:
 443:libDaisy/src/hid/disp/display.h ****         {
 9362              		.loc 3 443 9 view .LVU2316
 9363              	.LBE2444:
 9364              	.LBE2384:
 199:examples/looper.cpp ****             bluemchen.display.SetCursor(34, 0);
 9365              		.loc 14 199 13 is_stmt 1 view .LVU2317
 9366              	.LBB2448:
 9367              	.LBI2448:
 171:libDaisy/src/hid/disp/display.h ****     {
 9368              		.loc 3 171 10 view .LVU2318
 9369              	.LBB2449:
 173:libDaisy/src/hid/disp/display.h ****         currentY_ = (y >= Height()) ? Height() - 1 : y;
 9370              		.loc 3 173 9 view .LVU2319
 174:libDaisy/src/hid/disp/display.h ****     }
 9371              		.loc 3 174 9 view .LVU2320
 173:libDaisy/src/hid/disp/display.h ****         currentY_ = (y >= Height()) ? Height() - 1 : y;
 9372              		.loc 3 173 19 is_stmt 0 view .LVU2321
 9373 01da 2223     		movs	r3, #34
 9374 01dc CBF89C31 		str	r3, [fp, #412]
 9375              	.LVL632:
 173:libDaisy/src/hid/disp/display.h ****         currentY_ = (y >= Height()) ? Height() - 1 : y;
 9376              		.loc 3 173 19 view .LVU2322
 9377              	.LBE2449:
 9378              	.LBE2448:
 200:examples/looper.cpp ****             bluemchen.display.WriteString(looper_r.GetStateStr(), Font_6x8, true);
 9379              		.loc 14 200 13 is_stmt 1 view .LVU2323
 9380              	.LBB2450:
 9381              	.LBI2450:
  46:examples/looper.cpp ****         switch (state) {
 9382              		.loc 14 46 17 view .LVU2324
 9383              	.LBB2451:
  47:examples/looper.cpp ****             case IDLE:      return "IDLE";
 9384              		.loc 14 47 9 view .LVU2325
  47:examples/looper.cpp ****             case IDLE:      return "IDLE";
 9385              		.loc 14 47 17 is_stmt 0 view .LVU2326
 9386 01e0 2E4B     		ldr	r3, .L840+12
 9387 01e2 1B79     		ldrb	r3, [r3, #4]	@ zero_extendqisi2
 9388 01e4 032B     		cmp	r3, #3
 9389 01e6 00F2D082 		bhi	.L771
 9390 01ea 324A     		ldr	r2, .L840+36
 9391 01ec 52F82330 		ldr	r3, [r2, r3, lsl #2]
 9392              	.LBE2451:
ARM GAS  C:\Users\yaman\AppData\Local\Temp\ccCu6FW5.s 			page 250


 9393              	.LBE2450:
 9394              	.LBB2454:
 9395              	.LBB2455:
 443:libDaisy/src/hid/disp/display.h ****         {
 9396              		.loc 3 443 9 view .LVU2327
 9397 01f0 93F800A0 		ldrb	r10, [r3]	@ zero_extendqisi2
 9398 01f4 0493     		str	r3, [sp, #16]
 9399              	.LVL633:
 443:libDaisy/src/hid/disp/display.h ****         {
 9400              		.loc 3 443 9 view .LVU2328
 9401              	.LBE2455:
 9402              	.LBI2454:
 440:libDaisy/src/hid/disp/display.h ****     {
 9403              		.loc 3 440 10 is_stmt 1 view .LVU2329
 9404              	.LBB2514:
 443:libDaisy/src/hid/disp/display.h ****         {
 9405              		.loc 3 443 9 view .LVU2330
 9406 01f6 BAF1000F 		cmp	r10, #0
 9407 01fa 00F09D80 		beq	.L720
 9408 01fe 4D46     		mov	r5, r9
 9409              	.LVL634:
 9410              	.L721:
 9411              	.LBB2456:
 9412              	.LBI2456:
 396:libDaisy/src/hid/disp/display.h ****     {
 9413              		.loc 3 396 10 view .LVU2331
 9414              	.LBB2457:
 401:libDaisy/src/hid/disp/display.h ****             return 0;
 9415              		.loc 3 401 20 is_stmt 0 view .LVU2332
 9416 0200 AAF12003 		sub	r3, r10, #32
 401:libDaisy/src/hid/disp/display.h ****             return 0;
 9417              		.loc 3 401 9 view .LVU2333
 9418 0204 DAB2     		uxtb	r2, r3
 9419 0206 5E2A     		cmp	r2, #94
 9420 0208 00F2AF82 		bhi	.L774
 405:libDaisy/src/hid/disp/display.h ****            || Height() < (currentY_ + font.FontHeight))
 9421              		.loc 3 405 23 view .LVU2334
 9422 020c BBF89C91 		ldrh	r9, [fp, #412]
 405:libDaisy/src/hid/disp/display.h ****            || Height() < (currentY_ + font.FontHeight))
 9423              		.loc 3 405 33 view .LVU2335
 9424 0210 09EB0502 		add	r2, r9, r5
 406:libDaisy/src/hid/disp/display.h ****         {
 9425              		.loc 3 406 12 view .LVU2336
 9426 0214 402A     		cmp	r2, #64
 405:libDaisy/src/hid/disp/display.h ****            || Height() < (currentY_ + font.FontHeight))
 9427              		.loc 3 405 33 view .LVU2337
 9428 0216 0692     		str	r2, [sp, #24]
 406:libDaisy/src/hid/disp/display.h ****         {
 9429              		.loc 3 406 12 view .LVU2338
 9430 0218 00F3A782 		bgt	.L774
 406:libDaisy/src/hid/disp/display.h ****         {
 9431              		.loc 3 406 27 view .LVU2339
 9432 021c BBF89E21 		ldrh	r2, [fp, #414]
 406:libDaisy/src/hid/disp/display.h ****         {
 9433              		.loc 3 406 37 view .LVU2340
 9434 0220 0599     		ldr	r1, [sp, #20]
 406:libDaisy/src/hid/disp/display.h ****         {
ARM GAS  C:\Users\yaman\AppData\Local\Temp\ccCu6FW5.s 			page 251


 9435              		.loc 3 406 27 view .LVU2341
 9436 0222 0792     		str	r2, [sp, #28]
 406:libDaisy/src/hid/disp/display.h ****         {
 9437              		.loc 3 406 37 view .LVU2342
 9438 0224 0A44     		add	r2, r2, r1
 406:libDaisy/src/hid/disp/display.h ****         {
 9439              		.loc 3 406 12 view .LVU2343
 9440 0226 202A     		cmp	r2, #32
 9441 0228 00F39F82 		bgt	.L774
 9442              	.LVL635:
 413:libDaisy/src/hid/disp/display.h ****         {
 9443              		.loc 3 413 22 is_stmt 1 view .LVU2344
 9444 022c 0029     		cmp	r1, #0
 9445 022e 6BD0     		beq	.L714
 415:libDaisy/src/hid/disp/display.h ****             for(j = 0; j < font.FontWidth; j++)
 9446              		.loc 3 415 37 is_stmt 0 view .LVU2345
 9447 0230 01FB03F3 		mul	r3, r1, r3
 9448 0234 002D     		cmp	r5, #0
 9449 0236 67D0     		beq	.L714
 9450 0238 6FF0004E 		mvn	lr, #-2147483648
 9451 023c 089A     		ldr	r2, [sp, #32]
 9452 023e CDF824A0 		str	r10, [sp, #36]
 9453 0242 9E44     		add	lr, lr, r3
 9454 0244 0B44     		add	r3, r3, r1
 9455 0246 DDF81CC0 		ldr	ip, [sp, #28]
 9456 024a 02EB4E0E 		add	lr, r2, lr, lsl #1
 9457 024e 023A     		subs	r2, r2, #2
 9458 0250 02EB4303 		add	r3, r2, r3, lsl #1
 9459 0254 0393     		str	r3, [sp, #12]
 9460 0256 49F2A813 		movw	r3, #37288
 9461 025a 4B44     		add	r3, r9, r3
 9462 025c 9A46     		mov	r10, r3
 9463              	.LVL636:
 9464              	.L716:
 9465              	.LBB2458:
 9466              	.LBB2459:
 9467              	.LBB2460:
 9468              	.LBB2461:
 9469              	.LBB2462:
 246:libDaisy/src/dev/oled_ssd130x.h ****     }
 9470              		.loc 13 246 55 view .LVU2346
 9471 025e 0CF00703 		and	r3, ip, #7
 246:libDaisy/src/dev/oled_ssd130x.h ****     }
 9472              		.loc 13 246 49 view .LVU2347
 9473 0262 0126     		movs	r6, #1
 246:libDaisy/src/dev/oled_ssd130x.h ****     }
 9474              		.loc 13 246 28 view .LVU2348
 9475 0264 4FEADC02 		lsr	r2, ip, #3
 9476              	.LBE2462:
 9477              	.LBE2461:
 9478              	.LBE2460:
 9479              	.LBE2459:
 9480              	.LBE2458:
 9481              	.LBB2489:
 9482              	.LBB2490:
 9483              	.LBB2491:
 241:libDaisy/src/dev/oled_ssd130x.h ****             return;
ARM GAS  C:\Users\yaman\AppData\Local\Temp\ccCu6FW5.s 			page 252


 9484              		.loc 13 241 28 view .LVU2349
 9485 0268 BCF11F0F 		cmp	ip, #31
 9486              	.LBE2491:
 9487              	.LBE2490:
 9488              	.LBE2489:
 9489              	.LBB2499:
 9490              	.LBB2482:
 9491              	.LBB2476:
 9492              	.LBB2469:
 9493              	.LBB2463:
 246:libDaisy/src/dev/oled_ssd130x.h ****     }
 9494              		.loc 13 246 49 view .LVU2350
 9495 026c 06FA03F6 		lsl	r6, r6, r3
 9496 0270 094B     		ldr	r3, .L840+8
 9497 0272 0AEB8212 		add	r2, r10, r2, lsl #6
 9498              	.LBE2463:
 9499              	.LBE2469:
 9500              	.LBE2476:
 9501              	.LBE2482:
 9502              	.LBE2499:
 415:libDaisy/src/hid/disp/display.h ****             for(j = 0; j < font.FontWidth; j++)
 9503              		.loc 3 415 15 view .LVU2351
 9504 0276 3EF8024F 		ldrh	r4, [lr, #2]!
 9505              	.LVL637:
 416:libDaisy/src/hid/disp/display.h ****             {
 9506              		.loc 3 416 26 is_stmt 1 view .LVU2352
 9507              	.LBB2500:
 9508              	.LBB2483:
 9509              	.LBB2477:
 9510              	.LBB2470:
 9511              	.LBB2464:
 246:libDaisy/src/dev/oled_ssd130x.h ****     }
 9512              		.loc 13 246 42 is_stmt 0 view .LVU2353
 9513 027a 76B2     		sxtb	r6, r6
 9514              	.LBE2464:
 9515              	.LBE2470:
 9516              	.LBE2477:
 9517              	.LBE2483:
 9518              	.LBE2500:
 422:libDaisy/src/hid/disp/display.h ****                 }
 9519              		.loc 3 422 29 view .LVU2354
 9520 027c 4946     		mov	r1, r9
 9521 027e 1A44     		add	r2, r2, r3
 9522              	.LBB2501:
 9523              	.LBB2495:
 9524              	.LBB2492:
 241:libDaisy/src/dev/oled_ssd130x.h ****             return;
 9525              		.loc 13 241 28 view .LVU2355
 9526 0280 98BF     		it	ls
 9527 0282 0027     		movls	r7, #0
 9528              	.LBE2492:
 9529              	.LBE2495:
 9530              	.LBE2501:
 9531              	.LBB2502:
 9532              	.LBB2484:
 9533              	.LBB2478:
 9534              	.LBB2471:
ARM GAS  C:\Users\yaman\AppData\Local\Temp\ccCu6FW5.s 			page 253


 9535              	.LBB2465:
 246:libDaisy/src/dev/oled_ssd130x.h ****     }
 9536              		.loc 13 246 42 view .LVU2356
 9537 0284 6FEA0608 		mvn	r8, r6
 9538              	.LBE2465:
 9539              	.LBE2471:
 9540              	.LBE2478:
 9541              	.LBE2484:
 9542              	.LBE2502:
 9543              	.LBB2503:
 9544              	.LBB2496:
 9545              	.LBB2493:
 241:libDaisy/src/dev/oled_ssd130x.h ****             return;
 9546              		.loc 13 241 28 view .LVU2357
 9547 0288 88BF     		it	hi
 9548 028a 0127     		movhi	r7, #1
 9549              	.LBE2493:
 9550              	.LBE2496:
 9551              	.LBE2503:
 416:libDaisy/src/hid/disp/display.h ****             {
 9552              		.loc 3 416 19 view .LVU2358
 9553 028c 0023     		movs	r3, #0
 9554 028e 22E0     		b	.L715
 9555              	.L841:
 9556              		.align	2
 9557              	.L840:
 9558 0290 00000000 		.word	.LANCHOR4
 9559 0294 00000000 		.word	buf_l
 9560 0298 00000000 		.word	bluemchen
 9561 029c 00000000 		.word	.LANCHOR5
 9562 02a0 00F22B00 		.word	2880000
 9563 02a4 00000000 		.word	buf_r
 9564 02a8 00000000 		.word	_Z13AudioCallbackPKPKfPPfj
 9565 02ac 00000000 		.word	.LANCHOR7
 9566 02b0 A8910000 		.word	bluemchen+37288
 9567 02b4 00000000 		.word	.LANCHOR8
 9568 02b8 00000000 		.word	Font_6x8
 9569 02bc 00900000 		.word	bluemchen+36864
 9570              	.LVL638:
 9571              	.L831:
 9572              	.LBB2504:
 9573              	.LBB2497:
 9574              	.LBB2494:
 241:libDaisy/src/dev/oled_ssd130x.h ****             return;
 9575              		.loc 13 241 9 view .LVU2359
 9576 02c0 3F29     		cmp	r1, #63
 9577 02c2 03D8     		bhi	.L718
 9578 02c4 17B9     		cbnz	r7, .L718
 244:libDaisy/src/dev/oled_ssd130x.h ****         else
 9579              		.loc 13 244 42 view .LVU2360
 9580 02c6 1078     		ldrb	r0, [r2]	@ zero_extendqisi2
 9581 02c8 3043     		orrs	r0, r0, r6
 9582 02ca 1070     		strb	r0, [r2]
 9583              	.L718:
 9584              	.LVL639:
 244:libDaisy/src/dev/oled_ssd130x.h ****         else
 9585              		.loc 13 244 42 view .LVU2361
ARM GAS  C:\Users\yaman\AppData\Local\Temp\ccCu6FW5.s 			page 254


 9586              	.LBE2494:
 9587              	.LBE2497:
 9588              	.LBE2504:
 416:libDaisy/src/hid/disp/display.h ****             {
 9589              		.loc 3 416 13 is_stmt 1 view .LVU2362
 9590 02cc 0133     		adds	r3, r3, #1
 9591              	.LVL640:
 416:libDaisy/src/hid/disp/display.h ****             {
 9592              		.loc 3 416 26 view .LVU2363
 9593 02ce 0132     		adds	r2, r2, #1
 9594 02d0 0131     		adds	r1, r1, #1
 9595 02d2 AB42     		cmp	r3, r5
 9596 02d4 11D0     		beq	.L830
 9597              	.LVL641:
 9598              	.L715:
 9599              	.LBB2505:
 9600              	.LBI2489:
  42:libDaisy/src/hid/disp/oled_display.h ****     {
 9601              		.loc 2 42 10 view .LVU2364
 9602              	.LBB2498:
 9603              	.LBI2490:
 239:libDaisy/src/dev/oled_ssd130x.h ****     {
 9604              		.loc 13 239 10 view .LVU2365
 239:libDaisy/src/dev/oled_ssd130x.h ****     {
 9605              		.loc 13 239 10 is_stmt 0 view .LVU2366
 9606              	.LBE2498:
 9607              	.LBE2505:
 9608              	.LBB2506:
 9609              	.LBI2458:
  42:libDaisy/src/hid/disp/oled_display.h ****     {
 9610              		.loc 2 42 10 is_stmt 1 view .LVU2367
 9611              	.LBB2485:
 9612              	.LBI2459:
 239:libDaisy/src/dev/oled_ssd130x.h ****     {
 9613              		.loc 13 239 10 view .LVU2368
 239:libDaisy/src/dev/oled_ssd130x.h ****     {
 9614              		.loc 13 239 10 is_stmt 0 view .LVU2369
 9615              	.LBE2485:
 9616              	.LBE2506:
 418:libDaisy/src/hid/disp/display.h ****                 {
 9617              		.loc 3 418 23 view .LVU2370
 9618 02d6 04FA03F0 		lsl	r0, r4, r3
 418:libDaisy/src/hid/disp/display.h ****                 {
 9619              		.loc 3 418 17 view .LVU2371
 9620 02da 0004     		lsls	r0, r0, #16
 9621 02dc F0D4     		bmi	.L831
 9622              	.LVL642:
 9623              	.LBB2507:
 9624              	.LBB2486:
 9625              	.LBB2479:
 9626              	.LBB2472:
 9627              	.LBI2461:
 239:libDaisy/src/dev/oled_ssd130x.h ****     {
 9628              		.loc 13 239 10 is_stmt 1 view .LVU2372
 239:libDaisy/src/dev/oled_ssd130x.h ****     {
 9629              		.loc 13 239 10 is_stmt 0 view .LVU2373
 9630              	.LBE2472:
ARM GAS  C:\Users\yaman\AppData\Local\Temp\ccCu6FW5.s 			page 255


 241:libDaisy/src/dev/oled_ssd130x.h ****             return;
 9631              		.loc 13 241 9 view .LVU2374
 9632 02de 3F29     		cmp	r1, #63
 9633 02e0 F4D8     		bhi	.L718
 9634 02e2 002F     		cmp	r7, #0
 9635 02e4 F2D1     		bne	.L718
 9636              	.LBB2473:
 9637              	.LBB2466:
 246:libDaisy/src/dev/oled_ssd130x.h ****     }
 9638              		.loc 13 246 42 view .LVU2375
 9639 02e6 1078     		ldrb	r0, [r2]	@ zero_extendqisi2
 9640              	.LBE2466:
 9641              	.LBE2473:
 9642              	.LBE2479:
 9643              	.LBE2486:
 9644              	.LBE2507:
 416:libDaisy/src/hid/disp/display.h ****             {
 9645              		.loc 3 416 13 view .LVU2376
 9646 02e8 0133     		adds	r3, r3, #1
 9647              	.LVL643:
 416:libDaisy/src/hid/disp/display.h ****             {
 9648              		.loc 3 416 26 view .LVU2377
 9649 02ea 0132     		adds	r2, r2, #1
 9650 02ec 0131     		adds	r1, r1, #1
 9651              	.LBB2508:
 9652              	.LBB2487:
 9653              	.LBB2480:
 9654              	.LBB2474:
 9655              	.LBB2467:
 246:libDaisy/src/dev/oled_ssd130x.h ****     }
 9656              		.loc 13 246 42 view .LVU2378
 9657 02ee 08EA0000 		and	r0, r8, r0
 9658              	.LBE2467:
 9659              	.LBE2474:
 9660              	.LBE2480:
 9661              	.LBE2487:
 9662              	.LBE2508:
 416:libDaisy/src/hid/disp/display.h ****             {
 9663              		.loc 3 416 26 view .LVU2379
 9664 02f2 AB42     		cmp	r3, r5
 9665              	.LBB2509:
 9666              	.LBB2488:
 9667              	.LBB2481:
 9668              	.LBB2475:
 9669              	.LBB2468:
 246:libDaisy/src/dev/oled_ssd130x.h ****     }
 9670              		.loc 13 246 42 view .LVU2380
 9671 02f4 02F8010C 		strb	r0, [r2, #-1]
 9672              	.LVL644:
 246:libDaisy/src/dev/oled_ssd130x.h ****     }
 9673              		.loc 13 246 42 view .LVU2381
 9674              	.LBE2468:
 9675              	.LBE2475:
 9676              	.LBE2481:
 9677              	.LBE2488:
 9678              	.LBE2509:
 416:libDaisy/src/hid/disp/display.h ****             {
ARM GAS  C:\Users\yaman\AppData\Local\Temp\ccCu6FW5.s 			page 256


 9679              		.loc 3 416 13 is_stmt 1 view .LVU2382
 416:libDaisy/src/hid/disp/display.h ****             {
 9680              		.loc 3 416 26 view .LVU2383
 9681 02f8 EDD1     		bne	.L715
 9682              	.L830:
 413:libDaisy/src/hid/disp/display.h ****         {
 9683              		.loc 3 413 9 view .LVU2384
 413:libDaisy/src/hid/disp/display.h ****         {
 9684              		.loc 3 413 22 view .LVU2385
 9685 02fa 039B     		ldr	r3, [sp, #12]
 9686              	.LVL645:
 413:libDaisy/src/hid/disp/display.h ****         {
 9687              		.loc 3 413 22 is_stmt 0 view .LVU2386
 9688 02fc 0CF1010C 		add	ip, ip, #1
 9689 0300 7345     		cmp	r3, lr
 9690 0302 ACD1     		bne	.L716
 9691 0304 DDF824A0 		ldr	r10, [sp, #36]
 9692              	.LVL646:
 9693              	.L714:
 9694              	.LBB2510:
 9695              	.LBI2510:
 171:libDaisy/src/hid/disp/display.h ****     {
 9696              		.loc 3 171 10 is_stmt 1 view .LVU2387
 9697              	.LBB2511:
 173:libDaisy/src/hid/disp/display.h ****         currentY_ = (y >= Height()) ? Height() - 1 : y;
 9698              		.loc 3 173 9 view .LVU2388
 174:libDaisy/src/hid/disp/display.h ****     }
 9699              		.loc 3 174 19 is_stmt 0 view .LVU2389
 9700 0308 079A     		ldr	r2, [sp, #28]
 173:libDaisy/src/hid/disp/display.h ****         currentY_ = (y >= Height()) ? Height() - 1 : y;
 9701              		.loc 3 173 19 view .LVU2390
 9702 030a BDF81830 		ldrh	r3, [sp, #24]
 174:libDaisy/src/hid/disp/display.h ****     }
 9703              		.loc 3 174 19 view .LVU2391
 9704 030e 1F2A     		cmp	r2, #31
 9705 0310 28BF     		it	cs
 9706 0312 1F22     		movcs	r2, #31
 173:libDaisy/src/hid/disp/display.h ****         currentY_ = (y >= Height()) ? Height() - 1 : y;
 9707              		.loc 3 173 19 view .LVU2392
 9708 0314 3F2B     		cmp	r3, #63
 9709 0316 28BF     		it	cs
 9710 0318 3F23     		movcs	r3, #63
 174:libDaisy/src/hid/disp/display.h ****     }
 9711              		.loc 3 174 19 view .LVU2393
 9712 031a ABF89E21 		strh	r2, [fp, #414]	@ movhi
 173:libDaisy/src/hid/disp/display.h ****         currentY_ = (y >= Height()) ? Height() - 1 : y;
 9713              		.loc 3 173 19 view .LVU2394
 9714 031e ABF89C31 		strh	r3, [fp, #412]	@ movhi
 174:libDaisy/src/hid/disp/display.h ****     }
 9715              		.loc 3 174 9 is_stmt 1 view .LVU2395
 9716              	.LVL647:
 9717              	.L712:
 174:libDaisy/src/hid/disp/display.h ****     }
 9718              		.loc 3 174 9 is_stmt 0 view .LVU2396
 9719              	.LBE2511:
 9720              	.LBE2510:
 9721              	.LBE2457:
ARM GAS  C:\Users\yaman\AppData\Local\Temp\ccCu6FW5.s 			page 257


 9722              	.LBE2456:
 445:libDaisy/src/hid/disp/display.h ****                != *str)
 9723              		.loc 3 445 13 view .LVU2397
 9724 0322 049A     		ldr	r2, [sp, #16]
 9725 0324 1378     		ldrb	r3, [r2]	@ zero_extendqisi2
 9726 0326 5345     		cmp	r3, r10
 9727 0328 06D1     		bne	.L720
 9728              	.LVL648:
 443:libDaisy/src/hid/disp/display.h ****         {
 9729              		.loc 3 443 9 is_stmt 1 view .LVU2398
 9730 032a 12F801AF 		ldrb	r10, [r2, #1]!	@ zero_extendqisi2
 9731              	.LVL649:
 443:libDaisy/src/hid/disp/display.h ****         {
 9732              		.loc 3 443 9 is_stmt 0 view .LVU2399
 9733 032e 0492     		str	r2, [sp, #16]
 9734 0330 BAF1000F 		cmp	r10, #0
 9735 0334 7FF464AF 		bne	.L721
 9736              	.LVL650:
 9737              	.L720:
 443:libDaisy/src/hid/disp/display.h ****         {
 9738              		.loc 3 443 9 view .LVU2400
 9739              	.LBE2514:
 9740              	.LBE2454:
 201:examples/looper.cpp **** 
 202:examples/looper.cpp ****             // --- 2.  (LR) ---
 203:examples/looper.cpp ****             char gbuf[10];
 9741              		.loc 14 203 13 is_stmt 1 view .LVU2401
 204:examples/looper.cpp ****             
 205:examples/looper.cpp ****             // L
 206:examples/looper.cpp ****             float kl = shared_knob_l.load();
 9742              		.loc 14 206 13 view .LVU2402
 9743              	.LBB2517:
 9744              	.LBI2517:
 254:c:\users\yaman\downloads\daisytoolchain-0.3.3\daisytoolchain-0.3.3\windows\arm-none-eabi\include\c++\10.2.1\atomic ****       {
 9745              		.loc 15 254 7 view .LVU2403
 9746              	.LBB2518:
 9747              		.loc 15 258 15 is_stmt 0 view .LVU2404
 9748 0338 A64B     		ldr	r3, .L842
 9749 033a BFF35B8F 		dmb	ish
 9750              	.LBE2518:
 9751              	.LBE2517:
 9752              	.LBB2520:
 207:examples/looper.cpp ****             if(kl < 0.05f) sprintf(gbuf, "NORM");
 9753              		.loc 14 207 13 view .LVU2405
 9754 033e 9FEDA67A 		vldr.32	s14, .L842+4
 9755              	.LBE2520:
 9756              	.LBB2525:
 9757              	.LBB2519:
 9758              		.loc 15 258 15 view .LVU2406
 9759 0342 1B68     		ldr	r3, [r3]
 9760 0344 BFF35B8F 		dmb	ish
 9761              		.loc 15 258 2 view .LVU2407
 9762 0348 07EE903A 		vmov	s15, r3
 9763              	.LVL651:
 9764              		.loc 15 258 2 view .LVU2408
 9765              	.LBE2519:
 9766              	.LBE2525:
ARM GAS  C:\Users\yaman\AppData\Local\Temp\ccCu6FW5.s 			page 258


 9767              		.loc 14 207 13 is_stmt 1 view .LVU2409
 9768              	.LBB2526:
 9769 034c F4EEC77A 		vcmpe.f32	s15, s14
 9770 0350 F1EE10FA 		vmrs	APSR_nzcv, FPSCR
 9771 0354 00F12A82 		bmi	.L832
 9772              	.LBB2521:
 208:examples/looper.cpp ****             else {
 209:examples/looper.cpp ****                 int div = 2;
 9773              		.loc 14 209 17 view .LVU2410
 9774              	.LVL652:
 210:examples/looper.cpp ****                 if (kl > 0.8f) div = 32; else if (kl > 0.6f) div = 16;
 9775              		.loc 14 210 17 view .LVU2411
 9776 0358 9FEDA07A 		vldr.32	s14, .L842+8
 9777 035c F4EEC77A 		vcmpe.f32	s15, s14
 9778 0360 F1EE10FA 		vmrs	APSR_nzcv, FPSCR
 9779 0364 00F32082 		bgt	.L775
 9780              		.loc 14 210 47 discriminator 2 view .LVU2412
 9781 0368 9FED9D7A 		vldr.32	s14, .L842+12
 9782 036c F4EEC77A 		vcmpe.f32	s15, s14
 9783 0370 F1EE10FA 		vmrs	APSR_nzcv, FPSCR
 9784 0374 00F34D82 		bgt	.L776
 211:examples/looper.cpp ****                 else if (kl > 0.4f) div = 8; else if (kl > 0.2f) div = 4;
 9785              		.loc 14 211 22 view .LVU2413
 9786 0378 9FED9A7A 		vldr.32	s14, .L842+16
 9787 037c F4EEC77A 		vcmpe.f32	s15, s14
 9788 0380 F1EE10FA 		vmrs	APSR_nzcv, FPSCR
 9789 0384 00F35382 		bgt	.L777
 9790              		.loc 14 211 51 discriminator 2 view .LVU2414
 9791 0388 9FED977A 		vldr.32	s14, .L842+20
 209:examples/looper.cpp ****                 if (kl > 0.8f) div = 32; else if (kl > 0.6f) div = 16;
 9792              		.loc 14 209 21 is_stmt 0 discriminator 2 view .LVU2415
 9793 038c F4EEC77A 		vcmpe.f32	s15, s14
 9794 0390 F1EE10FA 		vmrs	APSR_nzcv, FPSCR
 9795 0394 CCBF     		ite	gt
 9796 0396 0422     		movgt	r2, #4
 9797 0398 0222     		movle	r2, #2
 9798              	.L723:
 9799              	.LVL653:
 212:examples/looper.cpp ****                 sprintf(gbuf, "/%d", div);
 9800              		.loc 14 212 17 is_stmt 1 view .LVU2416
 9801              		.loc 14 212 24 is_stmt 0 view .LVU2417
 9802 039a 9449     		ldr	r1, .L842+24
 9803 039c 0BA8     		add	r0, sp, #44
 9804 039e FFF7FEFF 		bl	sprintf
 9805              	.LVL654:
 9806              	.L722:
 9807              		.loc 14 212 24 view .LVU2418
 9808              	.LBE2521:
 9809              	.LBE2526:
 213:examples/looper.cpp ****             }
 214:examples/looper.cpp ****             bluemchen.display.SetCursor(0, 24);
 9810              		.loc 14 214 13 is_stmt 1 view .LVU2419
 9811              	.LBB2527:
 9812              	.LBI2527:
 171:libDaisy/src/hid/disp/display.h ****     {
 9813              		.loc 3 171 10 view .LVU2420
 9814              	.LBB2528:
ARM GAS  C:\Users\yaman\AppData\Local\Temp\ccCu6FW5.s 			page 259


 173:libDaisy/src/hid/disp/display.h ****         currentY_ = (y >= Height()) ? Height() - 1 : y;
 9815              		.loc 3 173 9 view .LVU2421
 174:libDaisy/src/hid/disp/display.h ****     }
 9816              		.loc 3 174 9 view .LVU2422
 9817 03a2 934A     		ldr	r2, .L842+28
 173:libDaisy/src/hid/disp/display.h ****         currentY_ = (y >= Height()) ? Height() - 1 : y;
 9818              		.loc 3 173 19 is_stmt 0 view .LVU2423
 9819 03a4 4FF4C013 		mov	r3, #1572864
 9820 03a8 5178     		ldrb	r1, [r2, #1]	@ zero_extendqisi2
 9821 03aa 92F80090 		ldrb	r9, [r2]	@ zero_extendqisi2
 9822 03ae CBF89C31 		str	r3, [fp, #412]
 9823              	.LVL655:
 173:libDaisy/src/hid/disp/display.h ****         currentY_ = (y >= Height()) ? Height() - 1 : y;
 9824              		.loc 3 173 19 view .LVU2424
 9825              	.LBE2528:
 9826              	.LBE2527:
 215:examples/looper.cpp ****             bluemchen.display.WriteString(gbuf, Font_6x8, true);
 9827              		.loc 14 215 13 is_stmt 1 view .LVU2425
 9828              		.loc 14 215 13 is_stmt 0 view .LVU2426
 9829 03b2 5268     		ldr	r2, [r2, #4]
 9830              	.LBB2529:
 9831              	.LBB2530:
 443:libDaisy/src/hid/disp/display.h ****         {
 9832              		.loc 3 443 9 view .LVU2427
 9833 03b4 9DF82C30 		ldrb	r3, [sp, #44]	@ zero_extendqisi2
 9834 03b8 0791     		str	r1, [sp, #28]
 9835              	.LVL656:
 443:libDaisy/src/hid/disp/display.h ****         {
 9836              		.loc 3 443 9 view .LVU2428
 9837 03ba 0892     		str	r2, [sp, #32]
 9838              	.LVL657:
 443:libDaisy/src/hid/disp/display.h ****         {
 9839              		.loc 3 443 9 view .LVU2429
 9840              	.LBE2530:
 9841              	.LBI2529:
 440:libDaisy/src/hid/disp/display.h ****     {
 9842              		.loc 3 440 10 is_stmt 1 view .LVU2430
 9843              	.LBB2593:
 443:libDaisy/src/hid/disp/display.h ****         {
 9844              		.loc 3 443 9 view .LVU2431
 9845 03bc 002B     		cmp	r3, #0
 9846 03be 7CD0     		beq	.L726
 9847              	.LBB2531:
 9848              	.LBB2532:
 416:libDaisy/src/hid/disp/display.h ****             {
 9849              		.loc 3 416 33 is_stmt 0 view .LVU2432
 9850 03c0 0BAA     		add	r2, sp, #44
 9851              	.LVL658:
 416:libDaisy/src/hid/disp/display.h ****             {
 9852              		.loc 3 416 33 view .LVU2433
 9853 03c2 4FF00008 		mov	r8, #0
 9854 03c6 4D46     		mov	r5, r9
 9855 03c8 0492     		str	r2, [sp, #16]
 9856              	.LVL659:
 9857              	.L730:
 416:libDaisy/src/hid/disp/display.h ****             {
 9858              		.loc 3 416 33 view .LVU2434
ARM GAS  C:\Users\yaman\AppData\Local\Temp\ccCu6FW5.s 			page 260


 9859              	.LBE2532:
 9860              	.LBI2531:
 396:libDaisy/src/hid/disp/display.h ****     {
 9861              		.loc 3 396 10 is_stmt 1 view .LVU2435
 9862              	.LBB2588:
 401:libDaisy/src/hid/disp/display.h ****             return 0;
 9863              		.loc 3 401 20 is_stmt 0 view .LVU2436
 9864 03ca 203B     		subs	r3, r3, #32
 9865              	.LVL660:
 401:libDaisy/src/hid/disp/display.h ****             return 0;
 9866              		.loc 3 401 9 view .LVU2437
 9867 03cc DAB2     		uxtb	r2, r3
 9868 03ce 5E2A     		cmp	r2, #94
 9869 03d0 73D8     		bhi	.L726
 405:libDaisy/src/hid/disp/display.h ****            || Height() < (currentY_ + font.FontHeight))
 9870              		.loc 3 405 33 view .LVU2438
 9871 03d2 08EB0502 		add	r2, r8, r5
 406:libDaisy/src/hid/disp/display.h ****         {
 9872              		.loc 3 406 12 view .LVU2439
 9873 03d6 402A     		cmp	r2, #64
 405:libDaisy/src/hid/disp/display.h ****            || Height() < (currentY_ + font.FontHeight))
 9874              		.loc 3 405 33 view .LVU2440
 9875 03d8 0592     		str	r2, [sp, #20]
 406:libDaisy/src/hid/disp/display.h ****         {
 9876              		.loc 3 406 12 view .LVU2441
 9877 03da 6EDC     		bgt	.L726
 406:libDaisy/src/hid/disp/display.h ****         {
 9878              		.loc 3 406 27 view .LVU2442
 9879 03dc BBF89E21 		ldrh	r2, [fp, #414]
 406:libDaisy/src/hid/disp/display.h ****         {
 9880              		.loc 3 406 37 view .LVU2443
 9881 03e0 0799     		ldr	r1, [sp, #28]
 406:libDaisy/src/hid/disp/display.h ****         {
 9882              		.loc 3 406 27 view .LVU2444
 9883 03e2 0692     		str	r2, [sp, #24]
 406:libDaisy/src/hid/disp/display.h ****         {
 9884              		.loc 3 406 37 view .LVU2445
 9885 03e4 0A44     		add	r2, r2, r1
 406:libDaisy/src/hid/disp/display.h ****         {
 9886              		.loc 3 406 12 view .LVU2446
 9887 03e6 202A     		cmp	r2, #32
 9888 03e8 67DC     		bgt	.L726
 9889              	.LVL661:
 413:libDaisy/src/hid/disp/display.h ****         {
 9890              		.loc 3 413 22 is_stmt 1 view .LVU2447
 9891 03ea 0029     		cmp	r1, #0
 9892 03ec 50D0     		beq	.L731
 415:libDaisy/src/hid/disp/display.h ****             for(j = 0; j < font.FontWidth; j++)
 9893              		.loc 3 415 37 is_stmt 0 view .LVU2448
 9894 03ee 01FB03F3 		mul	r3, r1, r3
 9895 03f2 002D     		cmp	r5, #0
 9896 03f4 4CD0     		beq	.L731
 9897 03f6 6FF0004E 		mvn	lr, #-2147483648
 9898 03fa 089A     		ldr	r2, [sp, #32]
 9899 03fc DFF800A2 		ldr	r10, .L842+44
 9900 0400 9E44     		add	lr, lr, r3
 9901 0402 0B44     		add	r3, r3, r1
ARM GAS  C:\Users\yaman\AppData\Local\Temp\ccCu6FW5.s 			page 261


 9902 0404 C244     		add	r10, r10, r8
 9903 0406 DDF818C0 		ldr	ip, [sp, #24]
 9904 040a 02EB4E0E 		add	lr, r2, lr, lsl #1
 9905 040e 023A     		subs	r2, r2, #2
 9906 0410 02EB4303 		add	r3, r2, r3, lsl #1
 9907 0414 0393     		str	r3, [sp, #12]
 9908              	.LVL662:
 9909              	.L733:
 9910              	.LBB2533:
 9911              	.LBB2534:
 9912              	.LBB2535:
 9913              	.LBB2536:
 9914              	.LBB2537:
 246:libDaisy/src/dev/oled_ssd130x.h ****     }
 9915              		.loc 13 246 55 view .LVU2449
 9916 0416 0CF00703 		and	r3, ip, #7
 246:libDaisy/src/dev/oled_ssd130x.h ****     }
 9917              		.loc 13 246 49 view .LVU2450
 9918 041a 0126     		movs	r6, #1
 246:libDaisy/src/dev/oled_ssd130x.h ****     }
 9919              		.loc 13 246 28 view .LVU2451
 9920 041c 4FEADC02 		lsr	r2, ip, #3
 9921              	.LBE2537:
 9922              	.LBE2536:
 9923              	.LBE2535:
 9924              	.LBE2534:
 9925              	.LBE2533:
 9926              	.LBB2564:
 9927              	.LBB2565:
 9928              	.LBB2566:
 241:libDaisy/src/dev/oled_ssd130x.h ****             return;
 9929              		.loc 13 241 28 view .LVU2452
 9930 0420 BCF11F0F 		cmp	ip, #31
 9931              	.LBE2566:
 9932              	.LBE2565:
 9933              	.LBE2564:
 9934              	.LBB2572:
 9935              	.LBB2557:
 9936              	.LBB2551:
 9937              	.LBB2544:
 9938              	.LBB2538:
 246:libDaisy/src/dev/oled_ssd130x.h ****     }
 9939              		.loc 13 246 49 view .LVU2453
 9940 0424 06FA03F6 		lsl	r6, r6, r3
 9941 0428 1FFA8AF3 		uxth	r3, r10
 9942              	.LBE2538:
 9943              	.LBE2544:
 9944              	.LBE2551:
 9945              	.LBE2557:
 9946              	.LBE2572:
 415:libDaisy/src/hid/disp/display.h ****             for(j = 0; j < font.FontWidth; j++)
 9947              		.loc 3 415 15 view .LVU2454
 9948 042c 3EF8024F 		ldrh	r4, [lr, #2]!
 9949              	.LVL663:
 416:libDaisy/src/hid/disp/display.h ****             {
 9950              		.loc 3 416 26 is_stmt 1 view .LVU2455
 422:libDaisy/src/hid/disp/display.h ****                 }
ARM GAS  C:\Users\yaman\AppData\Local\Temp\ccCu6FW5.s 			page 262


 9951              		.loc 3 422 29 is_stmt 0 view .LVU2456
 9952 0430 4146     		mov	r1, r8
 9953 0432 03EB8212 		add	r2, r3, r2, lsl #6
 9954 0436 6F4B     		ldr	r3, .L842+32
 9955              	.LBB2573:
 9956              	.LBB2558:
 9957              	.LBB2552:
 9958              	.LBB2545:
 9959              	.LBB2539:
 246:libDaisy/src/dev/oled_ssd130x.h ****     }
 9960              		.loc 13 246 42 view .LVU2457
 9961 0438 76B2     		sxtb	r6, r6
 9962              	.LBE2539:
 9963              	.LBE2545:
 9964              	.LBE2552:
 9965              	.LBE2558:
 9966              	.LBE2573:
 9967              	.LBB2574:
 9968              	.LBB2569:
 9969              	.LBB2567:
 241:libDaisy/src/dev/oled_ssd130x.h ****             return;
 9970              		.loc 13 241 28 view .LVU2458
 9971 043a 98BF     		it	ls
 9972 043c 0027     		movls	r7, #0
 9973 043e 1A44     		add	r2, r2, r3
 9974 0440 88BF     		it	hi
 9975 0442 0127     		movhi	r7, #1
 9976              	.LBE2567:
 9977              	.LBE2569:
 9978              	.LBE2574:
 9979              	.LBB2575:
 9980              	.LBB2559:
 9981              	.LBB2553:
 9982              	.LBB2546:
 9983              	.LBB2540:
 246:libDaisy/src/dev/oled_ssd130x.h ****     }
 9984              		.loc 13 246 42 view .LVU2459
 9985 0444 6FEA0609 		mvn	r9, r6
 9986              	.LBE2540:
 9987              	.LBE2546:
 9988              	.LBE2553:
 9989              	.LBE2559:
 9990              	.LBE2575:
 416:libDaisy/src/hid/disp/display.h ****             {
 9991              		.loc 3 416 19 view .LVU2460
 9992 0448 0023     		movs	r3, #0
 9993 044a 0AE0     		b	.L732
 9994              	.LVL664:
 9995              	.L834:
 9996              	.LBB2576:
 9997              	.LBB2570:
 9998              	.LBB2568:
 241:libDaisy/src/dev/oled_ssd130x.h ****             return;
 9999              		.loc 13 241 9 view .LVU2461
 10000 044c 3F29     		cmp	r1, #63
 10001 044e 03D8     		bhi	.L735
 10002 0450 17B9     		cbnz	r7, .L735
ARM GAS  C:\Users\yaman\AppData\Local\Temp\ccCu6FW5.s 			page 263


 244:libDaisy/src/dev/oled_ssd130x.h ****         else
 10003              		.loc 13 244 42 view .LVU2462
 10004 0452 1078     		ldrb	r0, [r2]	@ zero_extendqisi2
 10005 0454 3043     		orrs	r0, r0, r6
 10006 0456 1070     		strb	r0, [r2]
 10007              	.L735:
 10008              	.LVL665:
 244:libDaisy/src/dev/oled_ssd130x.h ****         else
 10009              		.loc 13 244 42 view .LVU2463
 10010              	.LBE2568:
 10011              	.LBE2570:
 10012              	.LBE2576:
 416:libDaisy/src/hid/disp/display.h ****             {
 10013              		.loc 3 416 13 is_stmt 1 view .LVU2464
 10014 0458 0133     		adds	r3, r3, #1
 10015              	.LVL666:
 416:libDaisy/src/hid/disp/display.h ****             {
 10016              		.loc 3 416 26 view .LVU2465
 10017 045a 0132     		adds	r2, r2, #1
 10018 045c 0131     		adds	r1, r1, #1
 10019 045e AB42     		cmp	r3, r5
 10020 0460 11D0     		beq	.L833
 10021              	.LVL667:
 10022              	.L732:
 10023              	.LBB2577:
 10024              	.LBI2564:
  42:libDaisy/src/hid/disp/oled_display.h ****     {
 10025              		.loc 2 42 10 view .LVU2466
 10026              	.LBB2571:
 10027              	.LBI2565:
 239:libDaisy/src/dev/oled_ssd130x.h ****     {
 10028              		.loc 13 239 10 view .LVU2467
 239:libDaisy/src/dev/oled_ssd130x.h ****     {
 10029              		.loc 13 239 10 is_stmt 0 view .LVU2468
 10030              	.LBE2571:
 10031              	.LBE2577:
 10032              	.LBB2578:
 10033              	.LBI2533:
  42:libDaisy/src/hid/disp/oled_display.h ****     {
 10034              		.loc 2 42 10 is_stmt 1 view .LVU2469
 10035              	.LBB2560:
 10036              	.LBI2534:
 239:libDaisy/src/dev/oled_ssd130x.h ****     {
 10037              		.loc 13 239 10 view .LVU2470
 239:libDaisy/src/dev/oled_ssd130x.h ****     {
 10038              		.loc 13 239 10 is_stmt 0 view .LVU2471
 10039              	.LBE2560:
 10040              	.LBE2578:
 418:libDaisy/src/hid/disp/display.h ****                 {
 10041              		.loc 3 418 23 view .LVU2472
 10042 0462 04FA03F0 		lsl	r0, r4, r3
 418:libDaisy/src/hid/disp/display.h ****                 {
 10043              		.loc 3 418 17 view .LVU2473
 10044 0466 0004     		lsls	r0, r0, #16
 10045 0468 F0D4     		bmi	.L834
 10046              	.LVL668:
 10047              	.LBB2579:
ARM GAS  C:\Users\yaman\AppData\Local\Temp\ccCu6FW5.s 			page 264


 10048              	.LBB2561:
 10049              	.LBB2554:
 10050              	.LBB2547:
 10051              	.LBI2536:
 239:libDaisy/src/dev/oled_ssd130x.h ****     {
 10052              		.loc 13 239 10 is_stmt 1 view .LVU2474
 239:libDaisy/src/dev/oled_ssd130x.h ****     {
 10053              		.loc 13 239 10 is_stmt 0 view .LVU2475
 10054              	.LBE2547:
 241:libDaisy/src/dev/oled_ssd130x.h ****             return;
 10055              		.loc 13 241 9 view .LVU2476
 10056 046a 3F29     		cmp	r1, #63
 10057 046c F4D8     		bhi	.L735
 10058 046e 002F     		cmp	r7, #0
 10059 0470 F2D1     		bne	.L735
 10060              	.LBB2548:
 10061              	.LBB2541:
 246:libDaisy/src/dev/oled_ssd130x.h ****     }
 10062              		.loc 13 246 42 view .LVU2477
 10063 0472 1078     		ldrb	r0, [r2]	@ zero_extendqisi2
 10064              	.LBE2541:
 10065              	.LBE2548:
 10066              	.LBE2554:
 10067              	.LBE2561:
 10068              	.LBE2579:
 416:libDaisy/src/hid/disp/display.h ****             {
 10069              		.loc 3 416 13 view .LVU2478
 10070 0474 0133     		adds	r3, r3, #1
 10071              	.LVL669:
 416:libDaisy/src/hid/disp/display.h ****             {
 10072              		.loc 3 416 26 view .LVU2479
 10073 0476 0132     		adds	r2, r2, #1
 10074 0478 0131     		adds	r1, r1, #1
 10075              	.LBB2580:
 10076              	.LBB2562:
 10077              	.LBB2555:
 10078              	.LBB2549:
 10079              	.LBB2542:
 246:libDaisy/src/dev/oled_ssd130x.h ****     }
 10080              		.loc 13 246 42 view .LVU2480
 10081 047a 09EA0000 		and	r0, r9, r0
 10082              	.LBE2542:
 10083              	.LBE2549:
 10084              	.LBE2555:
 10085              	.LBE2562:
 10086              	.LBE2580:
 416:libDaisy/src/hid/disp/display.h ****             {
 10087              		.loc 3 416 26 view .LVU2481
 10088 047e AB42     		cmp	r3, r5
 10089              	.LBB2581:
 10090              	.LBB2563:
 10091              	.LBB2556:
 10092              	.LBB2550:
 10093              	.LBB2543:
 246:libDaisy/src/dev/oled_ssd130x.h ****     }
 10094              		.loc 13 246 42 view .LVU2482
 10095 0480 02F8010C 		strb	r0, [r2, #-1]
ARM GAS  C:\Users\yaman\AppData\Local\Temp\ccCu6FW5.s 			page 265


 10096              	.LVL670:
 246:libDaisy/src/dev/oled_ssd130x.h ****     }
 10097              		.loc 13 246 42 view .LVU2483
 10098              	.LBE2543:
 10099              	.LBE2550:
 10100              	.LBE2556:
 10101              	.LBE2563:
 10102              	.LBE2581:
 416:libDaisy/src/hid/disp/display.h ****             {
 10103              		.loc 3 416 13 is_stmt 1 view .LVU2484
 416:libDaisy/src/hid/disp/display.h ****             {
 10104              		.loc 3 416 26 view .LVU2485
 10105 0484 EDD1     		bne	.L732
 10106              	.L833:
 413:libDaisy/src/hid/disp/display.h ****         {
 10107              		.loc 3 413 9 view .LVU2486
 413:libDaisy/src/hid/disp/display.h ****         {
 10108              		.loc 3 413 22 view .LVU2487
 10109 0486 039B     		ldr	r3, [sp, #12]
 10110              	.LVL671:
 413:libDaisy/src/hid/disp/display.h ****         {
 10111              		.loc 3 413 22 is_stmt 0 view .LVU2488
 10112 0488 0CF1010C 		add	ip, ip, #1
 10113 048c 7345     		cmp	r3, lr
 10114 048e C2D1     		bne	.L733
 10115              	.LVL672:
 10116              	.L731:
 10117              	.LBB2582:
 10118              	.LBI2582:
 171:libDaisy/src/hid/disp/display.h ****     {
 10119              		.loc 3 171 10 is_stmt 1 view .LVU2489
 10120              	.LBB2583:
 173:libDaisy/src/hid/disp/display.h ****         currentY_ = (y >= Height()) ? Height() - 1 : y;
 10121              		.loc 3 173 9 view .LVU2490
 174:libDaisy/src/hid/disp/display.h ****     }
 10122              		.loc 3 174 19 is_stmt 0 view .LVU2491
 10123 0490 069B     		ldr	r3, [sp, #24]
 10124 0492 BDF81480 		ldrh	r8, [sp, #20]
 10125 0496 1F2B     		cmp	r3, #31
 10126              	.LBE2583:
 10127              	.LBE2582:
 10128              	.LBE2588:
 10129              	.LBE2531:
 443:libDaisy/src/hid/disp/display.h ****         {
 10130              		.loc 3 443 9 view .LVU2492
 10131 0498 049A     		ldr	r2, [sp, #16]
 10132              	.LBB2591:
 10133              	.LBB2589:
 10134              	.LBB2586:
 10135              	.LBB2584:
 174:libDaisy/src/hid/disp/display.h ****     }
 10136              		.loc 3 174 19 view .LVU2493
 10137 049a 28BF     		it	cs
 10138 049c 1F23     		movcs	r3, #31
 10139 049e B8F13F0F 		cmp	r8, #63
 10140 04a2 ABF89E31 		strh	r3, [fp, #414]	@ movhi
 10141 04a6 28BF     		it	cs
ARM GAS  C:\Users\yaman\AppData\Local\Temp\ccCu6FW5.s 			page 266


 10142 04a8 4FF03F08 		movcs	r8, #63
 10143              	.LBE2584:
 10144              	.LBE2586:
 10145              	.LBE2589:
 10146              	.LBE2591:
 443:libDaisy/src/hid/disp/display.h ****         {
 10147              		.loc 3 443 9 view .LVU2494
 10148 04ac 12F8013F 		ldrb	r3, [r2, #1]!	@ zero_extendqisi2
 10149              	.LBB2592:
 10150              	.LBB2590:
 10151              	.LBB2587:
 10152              	.LBB2585:
 173:libDaisy/src/hid/disp/display.h ****         currentY_ = (y >= Height()) ? Height() - 1 : y;
 10153              		.loc 3 173 19 view .LVU2495
 10154 04b0 ABF89C81 		strh	r8, [fp, #412]	@ movhi
 174:libDaisy/src/hid/disp/display.h ****     }
 10155              		.loc 3 174 9 is_stmt 1 view .LVU2496
 10156              	.LVL673:
 174:libDaisy/src/hid/disp/display.h ****     }
 10157              		.loc 3 174 9 is_stmt 0 view .LVU2497
 10158              	.LBE2585:
 10159              	.LBE2587:
 10160              	.LBE2590:
 10161              	.LBE2592:
 443:libDaisy/src/hid/disp/display.h ****         {
 10162              		.loc 3 443 9 is_stmt 1 view .LVU2498
 10163 04b4 0492     		str	r2, [sp, #16]
 10164 04b6 002B     		cmp	r3, #0
 10165 04b8 87D1     		bne	.L730
 10166              	.LVL674:
 10167              	.L726:
 443:libDaisy/src/hid/disp/display.h ****         {
 10168              		.loc 3 443 9 is_stmt 0 view .LVU2499
 10169              	.LBE2593:
 10170              	.LBE2529:
 216:examples/looper.cpp **** 
 217:examples/looper.cpp ****             // R ()
 218:examples/looper.cpp ****             float kr = shared_knob_r.load();
 10171              		.loc 14 218 13 is_stmt 1 view .LVU2500
 10172              	.LBB2594:
 10173              	.LBI2594:
 254:c:\users\yaman\downloads\daisytoolchain-0.3.3\daisytoolchain-0.3.3\windows\arm-none-eabi\include\c++\10.2.1\atomic ****       {
 10174              		.loc 15 254 7 view .LVU2501
 10175              	.LBB2595:
 10176              		.loc 15 258 15 is_stmt 0 view .LVU2502
 10177 04ba 4F4B     		ldr	r3, .L842+36
 10178 04bc BFF35B8F 		dmb	ish
 10179              	.LBE2595:
 10180              	.LBE2594:
 10181              	.LBB2597:
 219:examples/looper.cpp ****             if(kr < 0.05f) sprintf(gbuf, "NORM");
 10182              		.loc 14 219 13 view .LVU2503
 10183 04c0 9FED457A 		vldr.32	s14, .L842+4
 10184              	.LBE2597:
 10185              	.LBB2601:
 10186              	.LBB2596:
 10187              		.loc 15 258 15 view .LVU2504
ARM GAS  C:\Users\yaman\AppData\Local\Temp\ccCu6FW5.s 			page 267


 10188 04c4 1B68     		ldr	r3, [r3]
 10189 04c6 BFF35B8F 		dmb	ish
 10190              		.loc 15 258 2 view .LVU2505
 10191 04ca 07EE903A 		vmov	s15, r3
 10192              	.LVL675:
 10193              		.loc 15 258 2 view .LVU2506
 10194              	.LBE2596:
 10195              	.LBE2601:
 10196              		.loc 14 219 13 is_stmt 1 view .LVU2507
 10197              	.LBB2602:
 10198 04ce F4EEC77A 		vcmpe.f32	s15, s14
 10199 04d2 F1EE10FA 		vmrs	APSR_nzcv, FPSCR
 10200 04d6 00F16081 		bmi	.L835
 10201              	.LBB2598:
 220:examples/looper.cpp ****             else {
 221:examples/looper.cpp ****                 int div = 2;
 10202              		.loc 14 221 17 view .LVU2508
 10203              	.LVL676:
 222:examples/looper.cpp ****                 if (kr > 0.8f) div = 32; else if (kr > 0.6f) div = 16;
 10204              		.loc 14 222 17 view .LVU2509
 10205 04da 9FED407A 		vldr.32	s14, .L842+8
 10206 04de F4EEC77A 		vcmpe.f32	s15, s14
 10207 04e2 F1EE10FA 		vmrs	APSR_nzcv, FPSCR
 10208 04e6 00F35681 		bgt	.L779
 10209              		.loc 14 222 47 discriminator 2 view .LVU2510
 10210 04ea 9FED3D7A 		vldr.32	s14, .L842+12
 10211 04ee F4EEC77A 		vcmpe.f32	s15, s14
 10212 04f2 F1EE10FA 		vmrs	APSR_nzcv, FPSCR
 10213 04f6 00F38E81 		bgt	.L780
 223:examples/looper.cpp ****                 else if (kr > 0.4f) div = 8; else if (kr > 0.2f) div = 4;
 10214              		.loc 14 223 22 view .LVU2511
 10215 04fa 9FED3A7A 		vldr.32	s14, .L842+16
 10216 04fe F4EEC77A 		vcmpe.f32	s15, s14
 10217 0502 F1EE10FA 		vmrs	APSR_nzcv, FPSCR
 10218 0506 00F38881 		bgt	.L781
 10219              		.loc 14 223 51 discriminator 2 view .LVU2512
 10220 050a 9FED377A 		vldr.32	s14, .L842+20
 221:examples/looper.cpp ****                 if (kr > 0.8f) div = 32; else if (kr > 0.6f) div = 16;
 10221              		.loc 14 221 21 is_stmt 0 discriminator 2 view .LVU2513
 10222 050e F4EEC77A 		vcmpe.f32	s15, s14
 10223 0512 F1EE10FA 		vmrs	APSR_nzcv, FPSCR
 10224 0516 CCBF     		ite	gt
 10225 0518 0422     		movgt	r2, #4
 10226 051a 0222     		movle	r2, #2
 10227              	.L740:
 10228              	.LVL677:
 224:examples/looper.cpp ****                 sprintf(gbuf, "/%d", div);
 10229              		.loc 14 224 17 is_stmt 1 view .LVU2514
 10230              		.loc 14 224 24 is_stmt 0 view .LVU2515
 10231 051c 3349     		ldr	r1, .L842+24
 10232 051e 0BA8     		add	r0, sp, #44
 10233 0520 FFF7FEFF 		bl	sprintf
 10234              	.LVL678:
 10235              	.L739:
 10236              		.loc 14 224 24 view .LVU2516
 10237              	.LBE2598:
 10238              	.LBE2602:
ARM GAS  C:\Users\yaman\AppData\Local\Temp\ccCu6FW5.s 			page 268


 225:examples/looper.cpp ****             }
 226:examples/looper.cpp ****             bluemchen.display.SetCursor(34, 24); // 
 10239              		.loc 14 226 13 is_stmt 1 view .LVU2517
 10240              	.LBB2603:
 10241              	.LBI2603:
 171:libDaisy/src/hid/disp/display.h ****     {
 10242              		.loc 3 171 10 view .LVU2518
 10243              	.LBB2604:
 173:libDaisy/src/hid/disp/display.h ****         currentY_ = (y >= Height()) ? Height() - 1 : y;
 10244              		.loc 3 173 9 view .LVU2519
 174:libDaisy/src/hid/disp/display.h ****     }
 10245              		.loc 3 174 9 view .LVU2520
 10246 0524 324A     		ldr	r2, .L842+28
 173:libDaisy/src/hid/disp/display.h ****         currentY_ = (y >= Height()) ? Height() - 1 : y;
 10247              		.loc 3 173 19 is_stmt 0 view .LVU2521
 10248 0526 354B     		ldr	r3, .L842+40
 10249 0528 5178     		ldrb	r1, [r2, #1]	@ zero_extendqisi2
 10250 052a 92F80090 		ldrb	r9, [r2]	@ zero_extendqisi2
 10251 052e CBF89C31 		str	r3, [fp, #412]
 10252              	.LVL679:
 173:libDaisy/src/hid/disp/display.h ****         currentY_ = (y >= Height()) ? Height() - 1 : y;
 10253              		.loc 3 173 19 view .LVU2522
 10254              	.LBE2604:
 10255              	.LBE2603:
 227:examples/looper.cpp ****             bluemchen.display.WriteString(gbuf, Font_6x8, true);
 10256              		.loc 14 227 13 is_stmt 1 view .LVU2523
 10257              		.loc 14 227 13 is_stmt 0 view .LVU2524
 10258 0532 5268     		ldr	r2, [r2, #4]
 10259              	.LBB2605:
 10260              	.LBB2606:
 443:libDaisy/src/hid/disp/display.h ****         {
 10261              		.loc 3 443 9 view .LVU2525
 10262 0534 9DF82C30 		ldrb	r3, [sp, #44]	@ zero_extendqisi2
 10263 0538 0791     		str	r1, [sp, #28]
 10264              	.LVL680:
 443:libDaisy/src/hid/disp/display.h ****         {
 10265              		.loc 3 443 9 view .LVU2526
 10266 053a 0892     		str	r2, [sp, #32]
 10267              	.LVL681:
 443:libDaisy/src/hid/disp/display.h ****         {
 10268              		.loc 3 443 9 view .LVU2527
 10269              	.LBE2606:
 10270              	.LBI2605:
 440:libDaisy/src/hid/disp/display.h ****     {
 10271              		.loc 3 440 10 is_stmt 1 view .LVU2528
 10272              	.LBB2669:
 443:libDaisy/src/hid/disp/display.h ****         {
 10273              		.loc 3 443 9 view .LVU2529
 10274 053c 002B     		cmp	r3, #0
 10275 053e 00F09980 		beq	.L743
 10276              	.LBB2607:
 10277              	.LBB2608:
 416:libDaisy/src/hid/disp/display.h ****             {
 10278              		.loc 3 416 33 is_stmt 0 view .LVU2530
 10279 0542 0BAA     		add	r2, sp, #44
 10280              	.LVL682:
 416:libDaisy/src/hid/disp/display.h ****             {
ARM GAS  C:\Users\yaman\AppData\Local\Temp\ccCu6FW5.s 			page 269


 10281              		.loc 3 416 33 view .LVU2531
 10282 0544 4FF02208 		mov	r8, #34
 10283 0548 4D46     		mov	r5, r9
 10284 054a 0492     		str	r2, [sp, #16]
 10285              	.LVL683:
 10286              	.L747:
 416:libDaisy/src/hid/disp/display.h ****             {
 10287              		.loc 3 416 33 view .LVU2532
 10288              	.LBE2608:
 10289              	.LBI2607:
 396:libDaisy/src/hid/disp/display.h ****     {
 10290              		.loc 3 396 10 is_stmt 1 view .LVU2533
 10291              	.LBB2664:
 401:libDaisy/src/hid/disp/display.h ****             return 0;
 10292              		.loc 3 401 20 is_stmt 0 view .LVU2534
 10293 054c 203B     		subs	r3, r3, #32
 10294              	.LVL684:
 401:libDaisy/src/hid/disp/display.h ****             return 0;
 10295              		.loc 3 401 9 view .LVU2535
 10296 054e DAB2     		uxtb	r2, r3
 10297 0550 5E2A     		cmp	r2, #94
 10298 0552 00F28F80 		bhi	.L743
 405:libDaisy/src/hid/disp/display.h ****            || Height() < (currentY_ + font.FontHeight))
 10299              		.loc 3 405 33 view .LVU2536
 10300 0556 08EB0502 		add	r2, r8, r5
 406:libDaisy/src/hid/disp/display.h ****         {
 10301              		.loc 3 406 12 view .LVU2537
 10302 055a 402A     		cmp	r2, #64
 405:libDaisy/src/hid/disp/display.h ****            || Height() < (currentY_ + font.FontHeight))
 10303              		.loc 3 405 33 view .LVU2538
 10304 055c 0592     		str	r2, [sp, #20]
 406:libDaisy/src/hid/disp/display.h ****         {
 10305              		.loc 3 406 12 view .LVU2539
 10306 055e 00F38980 		bgt	.L743
 406:libDaisy/src/hid/disp/display.h ****         {
 10307              		.loc 3 406 27 view .LVU2540
 10308 0562 BBF89E21 		ldrh	r2, [fp, #414]
 406:libDaisy/src/hid/disp/display.h ****         {
 10309              		.loc 3 406 37 view .LVU2541
 10310 0566 0799     		ldr	r1, [sp, #28]
 406:libDaisy/src/hid/disp/display.h ****         {
 10311              		.loc 3 406 27 view .LVU2542
 10312 0568 0692     		str	r2, [sp, #24]
 406:libDaisy/src/hid/disp/display.h ****         {
 10313              		.loc 3 406 37 view .LVU2543
 10314 056a 0A44     		add	r2, r2, r1
 406:libDaisy/src/hid/disp/display.h ****         {
 10315              		.loc 3 406 12 view .LVU2544
 10316 056c 202A     		cmp	r2, #32
 10317 056e 00F38180 		bgt	.L743
 10318              	.LVL685:
 413:libDaisy/src/hid/disp/display.h ****         {
 10319              		.loc 3 413 22 is_stmt 1 view .LVU2545
 10320 0572 0029     		cmp	r1, #0
 10321 0574 68D0     		beq	.L748
 415:libDaisy/src/hid/disp/display.h ****             for(j = 0; j < font.FontWidth; j++)
 10322              		.loc 3 415 37 is_stmt 0 view .LVU2546
ARM GAS  C:\Users\yaman\AppData\Local\Temp\ccCu6FW5.s 			page 270


 10323 0576 01FB03F3 		mul	r3, r1, r3
 10324 057a 002D     		cmp	r5, #0
 10325 057c 64D0     		beq	.L748
 10326 057e 6FF0004E 		mvn	lr, #-2147483648
 10327 0582 089A     		ldr	r2, [sp, #32]
 10328 0584 DFF878A0 		ldr	r10, .L842+44
 10329 0588 9E44     		add	lr, lr, r3
 10330 058a 0B44     		add	r3, r3, r1
 10331 058c C244     		add	r10, r10, r8
 10332 058e DDF818C0 		ldr	ip, [sp, #24]
 10333 0592 02EB4E0E 		add	lr, r2, lr, lsl #1
 10334 0596 023A     		subs	r2, r2, #2
 10335 0598 02EB4303 		add	r3, r2, r3, lsl #1
 10336 059c 0393     		str	r3, [sp, #12]
 10337              	.LVL686:
 10338              	.L750:
 10339              	.LBB2609:
 10340              	.LBB2610:
 10341              	.LBB2611:
 10342              	.LBB2612:
 10343              	.LBB2613:
 246:libDaisy/src/dev/oled_ssd130x.h ****     }
 10344              		.loc 13 246 55 view .LVU2547
 10345 059e 0CF00703 		and	r3, ip, #7
 246:libDaisy/src/dev/oled_ssd130x.h ****     }
 10346              		.loc 13 246 49 view .LVU2548
 10347 05a2 0126     		movs	r6, #1
 246:libDaisy/src/dev/oled_ssd130x.h ****     }
 10348              		.loc 13 246 28 view .LVU2549
 10349 05a4 4FEADC02 		lsr	r2, ip, #3
 10350              	.LBE2613:
 10351              	.LBE2612:
 10352              	.LBE2611:
 10353              	.LBE2610:
 10354              	.LBE2609:
 10355              	.LBB2640:
 10356              	.LBB2641:
 10357              	.LBB2642:
 241:libDaisy/src/dev/oled_ssd130x.h ****             return;
 10358              		.loc 13 241 28 view .LVU2550
 10359 05a8 BCF11F0F 		cmp	ip, #31
 10360              	.LBE2642:
 10361              	.LBE2641:
 10362              	.LBE2640:
 10363              	.LBB2648:
 10364              	.LBB2633:
 10365              	.LBB2627:
 10366              	.LBB2620:
 10367              	.LBB2614:
 246:libDaisy/src/dev/oled_ssd130x.h ****     }
 10368              		.loc 13 246 49 view .LVU2551
 10369 05ac 06FA03F6 		lsl	r6, r6, r3
 10370 05b0 1FFA8AF3 		uxth	r3, r10
 10371              	.LBE2614:
 10372              	.LBE2620:
 10373              	.LBE2627:
 10374              	.LBE2633:
ARM GAS  C:\Users\yaman\AppData\Local\Temp\ccCu6FW5.s 			page 271


 10375              	.LBE2648:
 415:libDaisy/src/hid/disp/display.h ****             for(j = 0; j < font.FontWidth; j++)
 10376              		.loc 3 415 15 view .LVU2552
 10377 05b4 3EF8024F 		ldrh	r4, [lr, #2]!
 10378              	.LVL687:
 416:libDaisy/src/hid/disp/display.h ****             {
 10379              		.loc 3 416 26 is_stmt 1 view .LVU2553
 422:libDaisy/src/hid/disp/display.h ****                 }
 10380              		.loc 3 422 29 is_stmt 0 view .LVU2554
 10381 05b8 4146     		mov	r1, r8
 10382 05ba 03EB8212 		add	r2, r3, r2, lsl #6
 10383 05be 0D4B     		ldr	r3, .L842+32
 10384              	.LBB2649:
 10385              	.LBB2634:
 10386              	.LBB2628:
 10387              	.LBB2621:
 10388              	.LBB2615:
 246:libDaisy/src/dev/oled_ssd130x.h ****     }
 10389              		.loc 13 246 42 view .LVU2555
 10390 05c0 76B2     		sxtb	r6, r6
 10391              	.LBE2615:
 10392              	.LBE2621:
 10393              	.LBE2628:
 10394              	.LBE2634:
 10395              	.LBE2649:
 10396              	.LBB2650:
 10397              	.LBB2645:
 10398              	.LBB2643:
 241:libDaisy/src/dev/oled_ssd130x.h ****             return;
 10399              		.loc 13 241 28 view .LVU2556
 10400 05c2 98BF     		it	ls
 10401 05c4 0027     		movls	r7, #0
 10402 05c6 1A44     		add	r2, r2, r3
 10403 05c8 88BF     		it	hi
 10404 05ca 0127     		movhi	r7, #1
 10405              	.LBE2643:
 10406              	.LBE2645:
 10407              	.LBE2650:
 10408              	.LBB2651:
 10409              	.LBB2635:
 10410              	.LBB2629:
 10411              	.LBB2622:
 10412              	.LBB2616:
 246:libDaisy/src/dev/oled_ssd130x.h ****     }
 10413              		.loc 13 246 42 view .LVU2557
 10414 05cc 6FEA0609 		mvn	r9, r6
 10415              	.LBE2616:
 10416              	.LBE2622:
 10417              	.LBE2629:
 10418              	.LBE2635:
 10419              	.LBE2651:
 416:libDaisy/src/hid/disp/display.h ****             {
 10420              		.loc 3 416 19 view .LVU2558
 10421 05d0 0023     		movs	r3, #0
 10422 05d2 22E0     		b	.L749
 10423              	.L843:
 10424              		.align	2
ARM GAS  C:\Users\yaman\AppData\Local\Temp\ccCu6FW5.s 			page 272


 10425              	.L842:
 10426 05d4 00000000 		.word	.LANCHOR2
 10427 05d8 CDCC4C3D 		.word	1028443341
 10428 05dc CDCC4C3F 		.word	1061997773
 10429 05e0 9A99193F 		.word	1058642330
 10430 05e4 CDCCCC3E 		.word	1053609165
 10431 05e8 CDCC4C3E 		.word	1045220557
 10432 05ec 0C000000 		.word	.LC4
 10433 05f0 00000000 		.word	Font_6x8
 10434 05f4 00000000 		.word	bluemchen
 10435 05f8 00000000 		.word	.LANCHOR3
 10436 05fc 22001800 		.word	1572898
 10437 0600 A891FFFF 		.word	-28248
 10438              	.LVL688:
 10439              	.L837:
 10440              	.LBB2652:
 10441              	.LBB2646:
 10442              	.LBB2644:
 241:libDaisy/src/dev/oled_ssd130x.h ****             return;
 10443              		.loc 13 241 9 view .LVU2559
 10444 0604 3F29     		cmp	r1, #63
 10445 0606 03D8     		bhi	.L752
 10446 0608 17B9     		cbnz	r7, .L752
 244:libDaisy/src/dev/oled_ssd130x.h ****         else
 10447              		.loc 13 244 42 view .LVU2560
 10448 060a 1078     		ldrb	r0, [r2]	@ zero_extendqisi2
 10449 060c 3043     		orrs	r0, r0, r6
 10450 060e 1070     		strb	r0, [r2]
 10451              	.L752:
 10452              	.LVL689:
 244:libDaisy/src/dev/oled_ssd130x.h ****         else
 10453              		.loc 13 244 42 view .LVU2561
 10454              	.LBE2644:
 10455              	.LBE2646:
 10456              	.LBE2652:
 416:libDaisy/src/hid/disp/display.h ****             {
 10457              		.loc 3 416 13 is_stmt 1 view .LVU2562
 10458 0610 0133     		adds	r3, r3, #1
 10459              	.LVL690:
 416:libDaisy/src/hid/disp/display.h ****             {
 10460              		.loc 3 416 26 view .LVU2563
 10461 0612 0132     		adds	r2, r2, #1
 10462 0614 0131     		adds	r1, r1, #1
 10463 0616 9D42     		cmp	r5, r3
 10464 0618 11D0     		beq	.L836
 10465              	.LVL691:
 10466              	.L749:
 10467              	.LBB2653:
 10468              	.LBI2640:
  42:libDaisy/src/hid/disp/oled_display.h ****     {
 10469              		.loc 2 42 10 view .LVU2564
 10470              	.LBB2647:
 10471              	.LBI2641:
 239:libDaisy/src/dev/oled_ssd130x.h ****     {
 10472              		.loc 13 239 10 view .LVU2565
 239:libDaisy/src/dev/oled_ssd130x.h ****     {
 10473              		.loc 13 239 10 is_stmt 0 view .LVU2566
ARM GAS  C:\Users\yaman\AppData\Local\Temp\ccCu6FW5.s 			page 273


 10474              	.LBE2647:
 10475              	.LBE2653:
 10476              	.LBB2654:
 10477              	.LBI2609:
  42:libDaisy/src/hid/disp/oled_display.h ****     {
 10478              		.loc 2 42 10 is_stmt 1 view .LVU2567
 10479              	.LBB2636:
 10480              	.LBI2610:
 239:libDaisy/src/dev/oled_ssd130x.h ****     {
 10481              		.loc 13 239 10 view .LVU2568
 239:libDaisy/src/dev/oled_ssd130x.h ****     {
 10482              		.loc 13 239 10 is_stmt 0 view .LVU2569
 10483              	.LBE2636:
 10484              	.LBE2654:
 418:libDaisy/src/hid/disp/display.h ****                 {
 10485              		.loc 3 418 23 view .LVU2570
 10486 061a 04FA03F0 		lsl	r0, r4, r3
 418:libDaisy/src/hid/disp/display.h ****                 {
 10487              		.loc 3 418 17 view .LVU2571
 10488 061e 0004     		lsls	r0, r0, #16
 10489 0620 F0D4     		bmi	.L837
 10490              	.LVL692:
 10491              	.LBB2655:
 10492              	.LBB2637:
 10493              	.LBB2630:
 10494              	.LBB2623:
 10495              	.LBI2612:
 239:libDaisy/src/dev/oled_ssd130x.h ****     {
 10496              		.loc 13 239 10 is_stmt 1 view .LVU2572
 239:libDaisy/src/dev/oled_ssd130x.h ****     {
 10497              		.loc 13 239 10 is_stmt 0 view .LVU2573
 10498              	.LBE2623:
 241:libDaisy/src/dev/oled_ssd130x.h ****             return;
 10499              		.loc 13 241 9 view .LVU2574
 10500 0622 3F29     		cmp	r1, #63
 10501 0624 F4D8     		bhi	.L752
 10502 0626 002F     		cmp	r7, #0
 10503 0628 F2D1     		bne	.L752
 10504              	.LBB2624:
 10505              	.LBB2617:
 246:libDaisy/src/dev/oled_ssd130x.h ****     }
 10506              		.loc 13 246 42 view .LVU2575
 10507 062a 1078     		ldrb	r0, [r2]	@ zero_extendqisi2
 10508              	.LBE2617:
 10509              	.LBE2624:
 10510              	.LBE2630:
 10511              	.LBE2637:
 10512              	.LBE2655:
 416:libDaisy/src/hid/disp/display.h ****             {
 10513              		.loc 3 416 13 view .LVU2576
 10514 062c 0133     		adds	r3, r3, #1
 10515              	.LVL693:
 416:libDaisy/src/hid/disp/display.h ****             {
 10516              		.loc 3 416 26 view .LVU2577
 10517 062e 0132     		adds	r2, r2, #1
 10518 0630 0131     		adds	r1, r1, #1
 10519              	.LBB2656:
ARM GAS  C:\Users\yaman\AppData\Local\Temp\ccCu6FW5.s 			page 274


 10520              	.LBB2638:
 10521              	.LBB2631:
 10522              	.LBB2625:
 10523              	.LBB2618:
 246:libDaisy/src/dev/oled_ssd130x.h ****     }
 10524              		.loc 13 246 42 view .LVU2578
 10525 0632 09EA0000 		and	r0, r9, r0
 10526              	.LBE2618:
 10527              	.LBE2625:
 10528              	.LBE2631:
 10529              	.LBE2638:
 10530              	.LBE2656:
 416:libDaisy/src/hid/disp/display.h ****             {
 10531              		.loc 3 416 26 view .LVU2579
 10532 0636 9D42     		cmp	r5, r3
 10533              	.LBB2657:
 10534              	.LBB2639:
 10535              	.LBB2632:
 10536              	.LBB2626:
 10537              	.LBB2619:
 246:libDaisy/src/dev/oled_ssd130x.h ****     }
 10538              		.loc 13 246 42 view .LVU2580
 10539 0638 02F8010C 		strb	r0, [r2, #-1]
 10540              	.LVL694:
 246:libDaisy/src/dev/oled_ssd130x.h ****     }
 10541              		.loc 13 246 42 view .LVU2581
 10542              	.LBE2619:
 10543              	.LBE2626:
 10544              	.LBE2632:
 10545              	.LBE2639:
 10546              	.LBE2657:
 416:libDaisy/src/hid/disp/display.h ****             {
 10547              		.loc 3 416 13 is_stmt 1 view .LVU2582
 416:libDaisy/src/hid/disp/display.h ****             {
 10548              		.loc 3 416 26 view .LVU2583
 10549 063c EDD1     		bne	.L749
 10550              	.L836:
 413:libDaisy/src/hid/disp/display.h ****         {
 10551              		.loc 3 413 9 view .LVU2584
 413:libDaisy/src/hid/disp/display.h ****         {
 10552              		.loc 3 413 22 view .LVU2585
 10553 063e 039B     		ldr	r3, [sp, #12]
 10554              	.LVL695:
 413:libDaisy/src/hid/disp/display.h ****         {
 10555              		.loc 3 413 22 is_stmt 0 view .LVU2586
 10556 0640 0CF1010C 		add	ip, ip, #1
 10557 0644 7345     		cmp	r3, lr
 10558 0646 AAD1     		bne	.L750
 10559              	.LVL696:
 10560              	.L748:
 10561              	.LBB2658:
 10562              	.LBI2658:
 171:libDaisy/src/hid/disp/display.h ****     {
 10563              		.loc 3 171 10 is_stmt 1 view .LVU2587
 10564              	.LBB2659:
 173:libDaisy/src/hid/disp/display.h ****         currentY_ = (y >= Height()) ? Height() - 1 : y;
 10565              		.loc 3 173 9 view .LVU2588
ARM GAS  C:\Users\yaman\AppData\Local\Temp\ccCu6FW5.s 			page 275


 174:libDaisy/src/hid/disp/display.h ****     }
 10566              		.loc 3 174 19 is_stmt 0 view .LVU2589
 10567 0648 069B     		ldr	r3, [sp, #24]
 10568 064a BDF81480 		ldrh	r8, [sp, #20]
 10569 064e 1F2B     		cmp	r3, #31
 10570              	.LBE2659:
 10571              	.LBE2658:
 10572              	.LBE2664:
 10573              	.LBE2607:
 443:libDaisy/src/hid/disp/display.h ****         {
 10574              		.loc 3 443 9 view .LVU2590
 10575 0650 049A     		ldr	r2, [sp, #16]
 10576              	.LBB2667:
 10577              	.LBB2665:
 10578              	.LBB2662:
 10579              	.LBB2660:
 174:libDaisy/src/hid/disp/display.h ****     }
 10580              		.loc 3 174 19 view .LVU2591
 10581 0652 28BF     		it	cs
 10582 0654 1F23     		movcs	r3, #31
 10583 0656 B8F13F0F 		cmp	r8, #63
 10584 065a ABF89E31 		strh	r3, [fp, #414]	@ movhi
 10585 065e 28BF     		it	cs
 10586 0660 4FF03F08 		movcs	r8, #63
 10587              	.LBE2660:
 10588              	.LBE2662:
 10589              	.LBE2665:
 10590              	.LBE2667:
 443:libDaisy/src/hid/disp/display.h ****         {
 10591              		.loc 3 443 9 view .LVU2592
 10592 0664 12F8013F 		ldrb	r3, [r2, #1]!	@ zero_extendqisi2
 10593              	.LBB2668:
 10594              	.LBB2666:
 10595              	.LBB2663:
 10596              	.LBB2661:
 173:libDaisy/src/hid/disp/display.h ****         currentY_ = (y >= Height()) ? Height() - 1 : y;
 10597              		.loc 3 173 19 view .LVU2593
 10598 0668 ABF89C81 		strh	r8, [fp, #412]	@ movhi
 174:libDaisy/src/hid/disp/display.h ****     }
 10599              		.loc 3 174 9 is_stmt 1 view .LVU2594
 10600              	.LVL697:
 174:libDaisy/src/hid/disp/display.h ****     }
 10601              		.loc 3 174 9 is_stmt 0 view .LVU2595
 10602              	.LBE2661:
 10603              	.LBE2663:
 10604              	.LBE2666:
 10605              	.LBE2668:
 443:libDaisy/src/hid/disp/display.h ****         {
 10606              		.loc 3 443 9 is_stmt 1 view .LVU2596
 10607 066c 0492     		str	r2, [sp, #16]
 10608 066e 002B     		cmp	r3, #0
 10609 0670 7FF46CAF 		bne	.L747
 10610              	.LVL698:
 10611              	.L743:
 443:libDaisy/src/hid/disp/display.h ****         {
 10612              		.loc 3 443 9 is_stmt 0 view .LVU2597
 10613              	.LBE2669:
ARM GAS  C:\Users\yaman\AppData\Local\Temp\ccCu6FW5.s 			page 276


 10614              	.LBE2605:
 228:examples/looper.cpp **** 
 229:examples/looper.cpp ****             // --- 3.  ---
 230:examples/looper.cpp ****             // ()
 231:examples/looper.cpp ****             if(looper_l.state == PLAYING || looper_l.state == RECORDING) {
 10615              		.loc 14 231 13 is_stmt 1 view .LVU2598
 10616              	.LBB2670:
 10617              		.loc 14 231 25 is_stmt 0 view .LVU2599
 10618 0674 6F4B     		ldr	r3, .L844
 10619 0676 1B79     		ldrb	r3, [r3, #4]	@ zero_extendqisi2
 10620              		.loc 14 231 13 view .LVU2600
 10621 0678 9A1E     		subs	r2, r3, #2
 10622 067a 012A     		cmp	r2, #1
 10623 067c 40F2A580 		bls	.L754
 10624              	.L759:
 10625              	.LBE2670:
 232:examples/looper.cpp ****                 float p = (float)looper_l.pos / (looper_l.state == PLAYING ? looper_l.mod_len : MAX
 233:examples/looper.cpp ****                 bluemchen.display.DrawRect(0, 12, (int)(p * 28.0f), 15, true, true);
 234:examples/looper.cpp ****             }
 235:examples/looper.cpp ****             if(looper_r.state == PLAYING || looper_r.state == RECORDING) {
 10626              		.loc 14 235 13 is_stmt 1 view .LVU2601
 10627              	.LBB2694:
 10628              		.loc 14 235 25 is_stmt 0 view .LVU2602
 10629 0680 6D4B     		ldr	r3, .L844+4
 10630 0682 1B79     		ldrb	r3, [r3, #4]	@ zero_extendqisi2
 10631              		.loc 14 235 13 view .LVU2603
 10632 0684 9A1E     		subs	r2, r3, #2
 10633 0686 012A     		cmp	r2, #1
 10634 0688 26D8     		bhi	.L756
 10635              	.LBB2695:
 236:examples/looper.cpp ****                 float p = (float)looper_r.pos / (looper_r.state == PLAYING ? looper_r.mod_len : MAX
 10636              		.loc 14 236 17 is_stmt 1 view .LVU2604
 10637              		.loc 14 236 27 is_stmt 0 view .LVU2605
 10638 068a 6B4A     		ldr	r2, .L844+4
 10639              		.loc 14 236 47 view .LVU2606
 10640 068c 032B     		cmp	r3, #3
 10641              		.loc 14 236 27 view .LVU2607
 10642 068e 9268     		ldr	r2, [r2, #8]
 10643 0690 07EE902A 		vmov	s15, r2	@ int
 10644 0694 0392     		str	r2, [sp, #12]
 10645 0696 B8EEE77A 		vcvt.f32.s32	s14, s15
 10646              		.loc 14 236 47 view .LVU2608
 10647 069a 00F08E80 		beq	.L838
 10648 069e DFED676A 		vldr.32	s13, .L844+8
 10649              	.L762:
 10650              	.LVL699:
 237:examples/looper.cpp ****                 bluemchen.display.DrawRect(34, 12, 34 + (int)(p * 28.0f), 15, true, true);
 10651              		.loc 14 237 17 is_stmt 1 discriminator 4 view .LVU2609
 236:examples/looper.cpp ****                 float p = (float)looper_r.pos / (looper_r.state == PLAYING ? looper_r.mod_len : MAX
 10652              		.loc 14 236 23 is_stmt 0 discriminator 4 view .LVU2610
 10653 06a2 C7EE267A 		vdiv.f32	s15, s14, s13
 10654              	.LVL700:
 10655              		.loc 14 237 65 discriminator 4 view .LVU2611
 10656 06a6 B3EE0C7A 		vmov.f32	s14, #2.8e+1
 10657 06aa 67EE877A 		vmul.f32	s15, s15, s14
 10658              	.LVL701:
 10659              		.loc 14 237 57 discriminator 4 view .LVU2612
ARM GAS  C:\Users\yaman\AppData\Local\Temp\ccCu6FW5.s 			page 277


 10660 06ae FDEEE77A 		vcvt.s32.f32	s15, s15
 10661 06b2 17EE900A 		vmov	r0, s15	@ int
 10662              		.loc 14 237 55 discriminator 4 view .LVU2613
 10663 06b6 2230     		adds	r0, r0, #34
 10664              	.LVL702:
 10665              	.LBB2696:
 10666              	.LBI2696:
 257:libDaisy/src/hid/disp/display.h ****                   uint_fast8_t y1,
 10667              		.loc 3 257 10 is_stmt 1 discriminator 4 view .LVU2614
 10668              	.LBB2697:
 266:libDaisy/src/hid/disp/display.h ****             {
 10669              		.loc 3 266 40 discriminator 4 view .LVU2615
 10670 06b8 2128     		cmp	r0, #33
 10671 06ba 0DD9     		bls	.L756
 10672 06bc 604A     		ldr	r2, .L844+12
 10673              	.LVL703:
 266:libDaisy/src/hid/disp/display.h ****             {
 10674              		.loc 3 266 30 is_stmt 0 view .LVU2616
 10675 06be 2223     		movs	r3, #34
 10676              	.LVL704:
 10677              	.L764:
 10678              	.LBB2698:
 268:libDaisy/src/hid/disp/display.h ****                 {
 10679              		.loc 3 268 44 is_stmt 1 view .LVU2617
 10680              	.LBB2699:
 10681              	.LBI2699:
  42:libDaisy/src/hid/disp/oled_display.h ****     {
 10682              		.loc 2 42 10 view .LVU2618
 10683              	.LBB2700:
 10684              	.LBI2700:
 239:libDaisy/src/dev/oled_ssd130x.h ****     {
 10685              		.loc 13 239 10 view .LVU2619
 239:libDaisy/src/dev/oled_ssd130x.h ****     {
 10686              		.loc 13 239 10 is_stmt 0 view .LVU2620
 10687              	.LBE2700:
 10688              	.LBE2699:
 268:libDaisy/src/hid/disp/display.h ****                 {
 10689              		.loc 3 268 17 is_stmt 1 view .LVU2621
 268:libDaisy/src/hid/disp/display.h ****                 {
 10690              		.loc 3 268 44 view .LVU2622
 10691              	.LBB2708:
  42:libDaisy/src/hid/disp/oled_display.h ****     {
 10692              		.loc 2 42 10 view .LVU2623
 10693              	.LBB2703:
 239:libDaisy/src/dev/oled_ssd130x.h ****     {
 10694              		.loc 13 239 10 view .LVU2624
 239:libDaisy/src/dev/oled_ssd130x.h ****     {
 10695              		.loc 13 239 10 is_stmt 0 view .LVU2625
 10696              	.LBE2703:
 10697              	.LBE2708:
 268:libDaisy/src/hid/disp/display.h ****                 {
 10698              		.loc 3 268 17 is_stmt 1 view .LVU2626
 268:libDaisy/src/hid/disp/display.h ****                 {
 10699              		.loc 3 268 44 view .LVU2627
 10700              	.LBB2709:
  42:libDaisy/src/hid/disp/oled_display.h ****     {
 10701              		.loc 2 42 10 view .LVU2628
ARM GAS  C:\Users\yaman\AppData\Local\Temp\ccCu6FW5.s 			page 278


 10702              	.LBB2704:
 239:libDaisy/src/dev/oled_ssd130x.h ****     {
 10703              		.loc 13 239 10 view .LVU2629
 239:libDaisy/src/dev/oled_ssd130x.h ****     {
 10704              		.loc 13 239 10 is_stmt 0 view .LVU2630
 10705              	.LBE2704:
 10706              	.LBE2709:
 268:libDaisy/src/hid/disp/display.h ****                 {
 10707              		.loc 3 268 17 is_stmt 1 view .LVU2631
 268:libDaisy/src/hid/disp/display.h ****                 {
 10708              		.loc 3 268 44 view .LVU2632
 10709              	.LBB2710:
  42:libDaisy/src/hid/disp/oled_display.h ****     {
 10710              		.loc 2 42 10 view .LVU2633
 10711              	.LBB2705:
 239:libDaisy/src/dev/oled_ssd130x.h ****     {
 10712              		.loc 13 239 10 view .LVU2634
 239:libDaisy/src/dev/oled_ssd130x.h ****     {
 10713              		.loc 13 239 10 is_stmt 0 view .LVU2635
 10714              	.LBE2705:
 10715              	.LBE2710:
 268:libDaisy/src/hid/disp/display.h ****                 {
 10716              		.loc 3 268 17 is_stmt 1 view .LVU2636
 268:libDaisy/src/hid/disp/display.h ****                 {
 10717              		.loc 3 268 44 view .LVU2637
 10718              	.LBE2698:
 266:libDaisy/src/hid/disp/display.h ****             {
 10719              		.loc 3 266 13 view .LVU2638
 10720              	.LBB2713:
 10721              	.LBB2711:
 10722              	.LBB2706:
 10723              	.LBB2701:
 241:libDaisy/src/dev/oled_ssd130x.h ****             return;
 10724              		.loc 13 241 9 is_stmt 0 view .LVU2639
 10725 06c0 3F2B     		cmp	r3, #63
 10726              	.LBE2701:
 10727              	.LBE2706:
 10728              	.LBE2711:
 10729              	.LBE2713:
 266:libDaisy/src/hid/disp/display.h ****             {
 10730              		.loc 3 266 13 view .LVU2640
 10731 06c2 03F10103 		add	r3, r3, #1
 10732              	.LVL705:
 266:libDaisy/src/hid/disp/display.h ****             {
 10733              		.loc 3 266 40 is_stmt 1 view .LVU2641
 10734              	.LBB2714:
 10735              	.LBB2712:
 10736              	.LBB2707:
 10737              	.LBB2702:
 241:libDaisy/src/dev/oled_ssd130x.h ****             return;
 10738              		.loc 13 241 9 is_stmt 0 view .LVU2642
 10739 06c6 03D8     		bhi	.L763
 244:libDaisy/src/dev/oled_ssd130x.h ****         else
 10740              		.loc 13 244 42 view .LVU2643
 10741 06c8 1178     		ldrb	r1, [r2]	@ zero_extendqisi2
 10742 06ca 61F00F01 		orn	r1, r1, #15
 10743 06ce 1170     		strb	r1, [r2]
ARM GAS  C:\Users\yaman\AppData\Local\Temp\ccCu6FW5.s 			page 279


 10744              	.L763:
 10745              	.LBE2702:
 10746              	.LBE2707:
 10747              	.LBE2712:
 10748              	.LBE2714:
 266:libDaisy/src/hid/disp/display.h ****             {
 10749              		.loc 3 266 40 view .LVU2644
 10750 06d0 9842     		cmp	r0, r3
 10751 06d2 02F10102 		add	r2, r2, #1
 10752 06d6 F3D2     		bcs	.L764
 10753              	.LVL706:
 10754              	.L756:
 266:libDaisy/src/hid/disp/display.h ****             {
 10755              		.loc 3 266 40 view .LVU2645
 10756 06d8 5A4D     		ldr	r5, .L844+16
 266:libDaisy/src/hid/disp/display.h ****             {
 10757              		.loc 3 266 30 view .LVU2646
 10758 06da B026     		movs	r6, #176
 10759              	.L761:
 10760              	.LVL707:
 266:libDaisy/src/hid/disp/display.h ****             {
 10761              		.loc 3 266 30 view .LVU2647
 10762              	.LBE2697:
 10763              	.LBE2696:
 10764              	.LBE2695:
 10765              	.LBE2694:
 10766              	.LBB2716:
 10767              	.LBB2717:
 10768              	.LBB2718:
 10769              	.LBB2719:
 10770              	.LBI2719:
  37:libDaisy/src/dev/oled_ssd130x.h ****     {
 10771              		.loc 13 37 10 is_stmt 1 view .LVU2648
 10772              	.LBB2720:
  39:libDaisy/src/dev/oled_ssd130x.h ****         i2c_.TransmitBlocking(i2c_address_, buf, 2, 1000);
 10773              		.loc 13 39 9 view .LVU2649
  40:libDaisy/src/dev/oled_ssd130x.h ****     };
 10774              		.loc 13 40 30 is_stmt 0 view .LVU2650
 10775 06dc 4FF47A77 		mov	r7, #1000
  39:libDaisy/src/dev/oled_ssd130x.h ****         i2c_.TransmitBlocking(i2c_address_, buf, 2, 1000);
 10776              		.loc 13 39 17 view .LVU2651
 10777 06e0 0024     		movs	r4, #0
  40:libDaisy/src/dev/oled_ssd130x.h ****     };
 10778              		.loc 13 40 30 view .LVU2652
 10779 06e2 0223     		movs	r3, #2
 10780 06e4 0AAA     		add	r2, sp, #40
 10781 06e6 9BF8A411 		ldrb	r1, [fp, #420]	@ zero_extendqisi2
 10782 06ea 5748     		ldr	r0, .L844+20
 10783              	.LVL708:
  40:libDaisy/src/dev/oled_ssd130x.h ****     };
 10784              		.loc 13 40 30 view .LVU2653
 10785 06ec 0097     		str	r7, [sp]
  39:libDaisy/src/dev/oled_ssd130x.h ****         i2c_.TransmitBlocking(i2c_address_, buf, 2, 1000);
 10786              		.loc 13 39 17 view .LVU2654
 10787 06ee 8DF82840 		strb	r4, [sp, #40]
  39:libDaisy/src/dev/oled_ssd130x.h ****         i2c_.TransmitBlocking(i2c_address_, buf, 2, 1000);
 10788              		.loc 13 39 36 view .LVU2655
ARM GAS  C:\Users\yaman\AppData\Local\Temp\ccCu6FW5.s 			page 280


 10789 06f2 8DF82960 		strb	r6, [sp, #41]
  40:libDaisy/src/dev/oled_ssd130x.h ****     };
 10790              		.loc 13 40 9 is_stmt 1 view .LVU2656
  40:libDaisy/src/dev/oled_ssd130x.h ****     };
 10791              		.loc 13 40 30 is_stmt 0 view .LVU2657
 10792 06f6 FFF7FEFF 		bl	_ZN5daisy9I2CHandle16TransmitBlockingEtPhtm
 10793              	.LVL709:
  40:libDaisy/src/dev/oled_ssd130x.h ****     };
 10794              		.loc 13 40 30 view .LVU2658
 10795              	.LBE2720:
 10796              	.LBE2719:
 10797              	.LBB2721:
 10798              	.LBI2721:
  37:libDaisy/src/dev/oled_ssd130x.h ****     {
 10799              		.loc 13 37 10 is_stmt 1 view .LVU2659
 10800              	.LBB2722:
  39:libDaisy/src/dev/oled_ssd130x.h ****         i2c_.TransmitBlocking(i2c_address_, buf, 2, 1000);
 10801              		.loc 13 39 9 view .LVU2660
  40:libDaisy/src/dev/oled_ssd130x.h ****     };
 10802              		.loc 13 40 30 is_stmt 0 view .LVU2661
 10803 06fa 0223     		movs	r3, #2
 10804 06fc 0AAA     		add	r2, sp, #40
 10805 06fe 9BF8A411 		ldrb	r1, [fp, #420]	@ zero_extendqisi2
 10806 0702 5148     		ldr	r0, .L844+20
 10807              	.LVL710:
  40:libDaisy/src/dev/oled_ssd130x.h ****     };
 10808              		.loc 13 40 30 view .LVU2662
 10809 0704 0097     		str	r7, [sp]
  39:libDaisy/src/dev/oled_ssd130x.h ****         i2c_.TransmitBlocking(i2c_address_, buf, 2, 1000);
 10810              		.loc 13 39 17 view .LVU2663
 10811 0706 8DF82840 		strb	r4, [sp, #40]
  39:libDaisy/src/dev/oled_ssd130x.h ****         i2c_.TransmitBlocking(i2c_address_, buf, 2, 1000);
 10812              		.loc 13 39 36 view .LVU2664
 10813 070a 8DF82940 		strb	r4, [sp, #41]
  40:libDaisy/src/dev/oled_ssd130x.h ****     };
 10814              		.loc 13 40 9 is_stmt 1 view .LVU2665
  40:libDaisy/src/dev/oled_ssd130x.h ****     };
 10815              		.loc 13 40 30 is_stmt 0 view .LVU2666
 10816 070e FFF7FEFF 		bl	_ZN5daisy9I2CHandle16TransmitBlockingEtPhtm
 10817              	.LVL711:
  40:libDaisy/src/dev/oled_ssd130x.h ****     };
 10818              		.loc 13 40 30 view .LVU2667
 10819              	.LBE2722:
 10820              	.LBE2721:
 10821              	.LBB2723:
 10822              	.LBI2723:
  37:libDaisy/src/dev/oled_ssd130x.h ****     {
 10823              		.loc 13 37 10 is_stmt 1 view .LVU2668
 10824              	.LBB2724:
  39:libDaisy/src/dev/oled_ssd130x.h ****         i2c_.TransmitBlocking(i2c_address_, buf, 2, 1000);
 10825              		.loc 13 39 9 view .LVU2669
  39:libDaisy/src/dev/oled_ssd130x.h ****         i2c_.TransmitBlocking(i2c_address_, buf, 2, 1000);
 10826              		.loc 13 39 36 is_stmt 0 view .LVU2670
 10827 0712 1223     		movs	r3, #18
  40:libDaisy/src/dev/oled_ssd130x.h ****     };
 10828              		.loc 13 40 30 view .LVU2671
 10829 0714 0AAA     		add	r2, sp, #40
ARM GAS  C:\Users\yaman\AppData\Local\Temp\ccCu6FW5.s 			page 281


 10830 0716 9BF8A411 		ldrb	r1, [fp, #420]	@ zero_extendqisi2
  39:libDaisy/src/dev/oled_ssd130x.h ****         i2c_.TransmitBlocking(i2c_address_, buf, 2, 1000);
 10831              		.loc 13 39 36 view .LVU2672
 10832 071a 8DF82930 		strb	r3, [sp, #41]
  40:libDaisy/src/dev/oled_ssd130x.h ****     };
 10833              		.loc 13 40 9 is_stmt 1 view .LVU2673
  40:libDaisy/src/dev/oled_ssd130x.h ****     };
 10834              		.loc 13 40 30 is_stmt 0 view .LVU2674
 10835 071e 0223     		movs	r3, #2
 10836 0720 4948     		ldr	r0, .L844+20
 10837              	.LVL712:
  40:libDaisy/src/dev/oled_ssd130x.h ****     };
 10838              		.loc 13 40 30 view .LVU2675
 10839 0722 0097     		str	r7, [sp]
  39:libDaisy/src/dev/oled_ssd130x.h ****         i2c_.TransmitBlocking(i2c_address_, buf, 2, 1000);
 10840              		.loc 13 39 17 view .LVU2676
 10841 0724 8DF82840 		strb	r4, [sp, #40]
 10842 0728 A5F14004 		sub	r4, r5, #64
  40:libDaisy/src/dev/oled_ssd130x.h ****     };
 10843              		.loc 13 40 30 view .LVU2677
 10844 072c FFF7FEFF 		bl	_ZN5daisy9I2CHandle16TransmitBlockingEtPhtm
 10845              	.LVL713:
  40:libDaisy/src/dev/oled_ssd130x.h ****     };
 10846              		.loc 13 40 30 view .LVU2678
 10847              	.LBE2724:
 10848              	.LBE2723:
 10849              	.LBB2725:
 10850              	.LBI2725:
  43:libDaisy/src/dev/oled_ssd130x.h ****     {
 10851              		.loc 13 43 10 is_stmt 1 view .LVU2679
 10852              	.LBB2726:
  45:libDaisy/src/dev/oled_ssd130x.h ****         {
 10853              		.loc 13 45 29 view .LVU2680
 10854              	.L765:
 10855              	.LBB2727:
  47:libDaisy/src/dev/oled_ssd130x.h ****             i2c_.TransmitBlocking(i2c_address_, buf, 2, 1000);
 10856              		.loc 13 47 13 view .LVU2681
  48:libDaisy/src/dev/oled_ssd130x.h ****         }
 10857              		.loc 13 48 34 is_stmt 0 view .LVU2682
 10858 0730 4FF47A73 		mov	r3, #1000
 10859 0734 0AAA     		add	r2, sp, #40
 10860 0736 9BF8A411 		ldrb	r1, [fp, #420]	@ zero_extendqisi2
 10861 073a 0093     		str	r3, [sp]
  47:libDaisy/src/dev/oled_ssd130x.h ****             i2c_.TransmitBlocking(i2c_address_, buf, 2, 1000);
 10862              		.loc 13 47 44 view .LVU2683
 10863 073c 14F8013F 		ldrb	r3, [r4, #1]!	@ zero_extendqisi2
 10864              	.LVL714:
  48:libDaisy/src/dev/oled_ssd130x.h ****         }
 10865              		.loc 13 48 34 view .LVU2684
 10866 0740 4148     		ldr	r0, .L844+20
 10867              	.LVL715:
  47:libDaisy/src/dev/oled_ssd130x.h ****             i2c_.TransmitBlocking(i2c_address_, buf, 2, 1000);
 10868              		.loc 13 47 44 view .LVU2685
 10869 0742 8DF82930 		strb	r3, [sp, #41]
  48:libDaisy/src/dev/oled_ssd130x.h ****         }
 10870              		.loc 13 48 13 is_stmt 1 view .LVU2686
  47:libDaisy/src/dev/oled_ssd130x.h ****             i2c_.TransmitBlocking(i2c_address_, buf, 2, 1000);
ARM GAS  C:\Users\yaman\AppData\Local\Temp\ccCu6FW5.s 			page 282


 10871              		.loc 13 47 21 is_stmt 0 view .LVU2687
 10872 0746 4023     		movs	r3, #64
 10873 0748 8DF82830 		strb	r3, [sp, #40]
  48:libDaisy/src/dev/oled_ssd130x.h ****         }
 10874              		.loc 13 48 34 view .LVU2688
 10875 074c 0223     		movs	r3, #2
 10876 074e FFF7FEFF 		bl	_ZN5daisy9I2CHandle16TransmitBlockingEtPhtm
 10877              	.LVL716:
  48:libDaisy/src/dev/oled_ssd130x.h ****         }
 10878              		.loc 13 48 34 view .LVU2689
 10879              	.LBE2727:
  45:libDaisy/src/dev/oled_ssd130x.h ****         {
 10880              		.loc 13 45 9 is_stmt 1 view .LVU2690
  45:libDaisy/src/dev/oled_ssd130x.h ****         {
 10881              		.loc 13 45 29 view .LVU2691
 10882 0752 A542     		cmp	r5, r4
 10883 0754 ECD1     		bne	.L765
 10884              	.LVL717:
  45:libDaisy/src/dev/oled_ssd130x.h ****         {
 10885              		.loc 13 45 29 is_stmt 0 view .LVU2692
 10886              	.LBE2726:
 10887              	.LBE2725:
 10888              		.loc 13 270 9 is_stmt 1 view .LVU2693
 10889              		.loc 13 270 22 view .LVU2694
 10890 0756 4035     		adds	r5, r5, #64
 10891 0758 3C4B     		ldr	r3, .L844+24
 10892 075a 0136     		adds	r6, r6, #1
 10893              	.LVL718:
 10894              		.loc 13 270 22 is_stmt 0 view .LVU2695
 10895 075c 9D42     		cmp	r5, r3
 10896 075e F6B2     		uxtb	r6, r6
 10897 0760 BCD1     		bne	.L761
 10898 0762 76E4     		b	.L696
 10899              	.LVL719:
 10900              	.L770:
 10901              		.loc 13 270 22 view .LVU2696
 10902              	.LBE2718:
 10903              	.LBE2717:
 10904              	.LBE2716:
 10905              	.LBB2728:
 10906              	.LBB2445:
 10907              	.LBB2443:
 10908              	.LBB2442:
 402:libDaisy/src/hid/disp/display.h **** 
 10909              		.loc 3 402 20 view .LVU2697
 10910 0764 4FF0000A 		mov	r10, #0
 10911              	.LVL720:
 402:libDaisy/src/hid/disp/display.h **** 
 10912              		.loc 3 402 20 view .LVU2698
 10913 0768 2BE5     		b	.L700
 10914              	.LVL721:
 10915              	.L774:
 402:libDaisy/src/hid/disp/display.h **** 
 10916              		.loc 3 402 20 view .LVU2699
 10917              	.LBE2442:
 10918              	.LBE2443:
 10919              	.LBE2445:
ARM GAS  C:\Users\yaman\AppData\Local\Temp\ccCu6FW5.s 			page 283


 10920              	.LBE2728:
 10921              	.LBB2729:
 10922              	.LBB2515:
 10923              	.LBB2513:
 10924              	.LBB2512:
 10925 076a 4FF0000A 		mov	r10, #0
 10926              	.LVL722:
 402:libDaisy/src/hid/disp/display.h **** 
 10927              		.loc 3 402 20 view .LVU2700
 10928 076e D8E5     		b	.L712
 10929              	.LVL723:
 10930              	.L698:
 402:libDaisy/src/hid/disp/display.h **** 
 10931              		.loc 3 402 20 view .LVU2701
 10932 0770 374B     		ldr	r3, .L844+28
 10933              	.LBE2512:
 10934              	.LBE2513:
 10935              	.LBE2515:
 10936              	.LBE2729:
 10937              	.LBB2730:
 10938              	.LBB2446:
 443:libDaisy/src/hid/disp/display.h ****         {
 10939              		.loc 3 443 9 view .LVU2702
 10940 0772 4FF0450A 		mov	r10, #69
 10941 0776 93F80090 		ldrb	r9, [r3]	@ zero_extendqisi2
 10942              	.LVL724:
 443:libDaisy/src/hid/disp/display.h ****         {
 10943              		.loc 3 443 9 view .LVU2703
 10944 077a 5A78     		ldrb	r2, [r3, #1]	@ zero_extendqisi2
 10945 077c 5B68     		ldr	r3, [r3, #4]
 10946 077e 4D46     		mov	r5, r9
 10947 0780 0592     		str	r2, [sp, #20]
 10948              	.LVL725:
 443:libDaisy/src/hid/disp/display.h ****         {
 10949              		.loc 3 443 9 view .LVU2704
 10950 0782 0893     		str	r3, [sp, #32]
 10951              	.LVL726:
 443:libDaisy/src/hid/disp/display.h ****         {
 10952              		.loc 3 443 9 view .LVU2705
 10953              	.LBE2446:
 440:libDaisy/src/hid/disp/display.h ****     {
 10954              		.loc 3 440 10 is_stmt 1 view .LVU2706
 10955              	.LBB2447:
 443:libDaisy/src/hid/disp/display.h ****         {
 10956              		.loc 3 443 9 view .LVU2707
 10957              	.LBE2447:
 10958              	.LBE2730:
 10959              	.LBB2731:
 10960              	.LBB2383:
  47:examples/looper.cpp ****             case IDLE:      return "IDLE";
 10961              		.loc 14 47 17 is_stmt 0 view .LVU2708
 10962 0784 334B     		ldr	r3, .L844+32
 10963              	.LVL727:
  47:examples/looper.cpp ****             case IDLE:      return "IDLE";
 10964              		.loc 14 47 17 view .LVU2709
 10965 0786 0493     		str	r3, [sp, #16]
 10966 0788 A2E4     		b	.L708
ARM GAS  C:\Users\yaman\AppData\Local\Temp\ccCu6FW5.s 			page 284


 10967              	.LVL728:
 10968              	.L771:
  47:examples/looper.cpp ****             case IDLE:      return "IDLE";
 10969              		.loc 14 47 17 view .LVU2710
 10970              	.LBE2383:
 10971              	.LBE2731:
 10972              	.LBB2732:
 10973              	.LBB2452:
 10974 078a 324B     		ldr	r3, .L844+32
 10975              	.LBE2452:
 10976              	.LBE2732:
 10977              	.LBB2733:
 10978              	.LBB2516:
 443:libDaisy/src/hid/disp/display.h ****         {
 10979              		.loc 3 443 9 view .LVU2711
 10980 078c 4FF0450A 		mov	r10, #69
 10981              	.LBE2516:
 10982              	.LBE2733:
 10983              	.LBB2734:
 10984              	.LBB2453:
  47:examples/looper.cpp ****             case IDLE:      return "IDLE";
 10985              		.loc 14 47 17 view .LVU2712
 10986 0790 4D46     		mov	r5, r9
 10987 0792 0493     		str	r3, [sp, #16]
 10988              	.LVL729:
  47:examples/looper.cpp ****             case IDLE:      return "IDLE";
 10989              		.loc 14 47 17 view .LVU2713
 10990 0794 34E5     		b	.L721
 10991              	.LVL730:
 10992              	.L779:
  47:examples/looper.cpp ****             case IDLE:      return "IDLE";
 10993              		.loc 14 47 17 view .LVU2714
 10994              	.LBE2453:
 10995              	.LBE2734:
 10996              	.LBB2735:
 10997              	.LBB2599:
 222:examples/looper.cpp ****                 else if (kr > 0.4f) div = 8; else if (kr > 0.2f) div = 4;
 10998              		.loc 14 222 36 view .LVU2715
 10999 0796 2022     		movs	r2, #32
 11000 0798 C0E6     		b	.L740
 11001              	.LVL731:
 11002              	.L835:
 222:examples/looper.cpp ****                 else if (kr > 0.4f) div = 8; else if (kr > 0.2f) div = 4;
 11003              		.loc 14 222 36 view .LVU2716
 11004              	.LBE2599:
 219:examples/looper.cpp ****             else {
 11005              		.loc 14 219 28 is_stmt 1 discriminator 1 view .LVU2717
 219:examples/looper.cpp ****             else {
 11006              		.loc 14 219 35 is_stmt 0 discriminator 1 view .LVU2718
 11007 079a 2F4B     		ldr	r3, .L844+36
 11008              	.LVL732:
 219:examples/looper.cpp ****             else {
 11009              		.loc 14 219 35 discriminator 1 view .LVU2719
 11010 079c 93E80300 		ldm	r3, {r0, r1}
 11011 07a0 0B90     		str	r0, [sp, #44]
 11012 07a2 8DF83010 		strb	r1, [sp, #48]
 11013 07a6 BDE6     		b	.L739
ARM GAS  C:\Users\yaman\AppData\Local\Temp\ccCu6FW5.s 			page 285


 11014              	.LVL733:
 11015              	.L775:
 219:examples/looper.cpp ****             else {
 11016              		.loc 14 219 35 discriminator 1 view .LVU2720
 11017              	.LBE2735:
 11018              	.LBB2736:
 11019              	.LBB2522:
 210:examples/looper.cpp ****                 else if (kl > 0.4f) div = 8; else if (kl > 0.2f) div = 4;
 11020              		.loc 14 210 36 view .LVU2721
 11021 07a8 2022     		movs	r2, #32
 11022 07aa F6E5     		b	.L723
 11023              	.LVL734:
 11024              	.L832:
 210:examples/looper.cpp ****                 else if (kl > 0.4f) div = 8; else if (kl > 0.2f) div = 4;
 11025              		.loc 14 210 36 view .LVU2722
 11026              	.LBE2522:
 207:examples/looper.cpp ****             else {
 11027              		.loc 14 207 28 is_stmt 1 discriminator 1 view .LVU2723
 207:examples/looper.cpp ****             else {
 11028              		.loc 14 207 35 is_stmt 0 discriminator 1 view .LVU2724
 11029 07ac 2A4B     		ldr	r3, .L844+36
 11030              	.LVL735:
 207:examples/looper.cpp ****             else {
 11031              		.loc 14 207 35 discriminator 1 view .LVU2725
 11032 07ae 93E80300 		ldm	r3, {r0, r1}
 11033 07b2 0B90     		str	r0, [sp, #44]
 11034 07b4 8DF83010 		strb	r1, [sp, #48]
 11035 07b8 F3E5     		b	.L722
 11036              	.LVL736:
 11037              	.L838:
 207:examples/looper.cpp ****             else {
 11038              		.loc 14 207 35 discriminator 1 view .LVU2726
 11039              	.LBE2736:
 11040              	.LBB2737:
 11041              	.LBB2715:
 236:examples/looper.cpp ****                 bluemchen.display.DrawRect(34, 12, 34 + (int)(p * 28.0f), 15, true, true);
 11042              		.loc 14 236 47 discriminator 1 view .LVU2727
 11043 07ba 1F4B     		ldr	r3, .L844+4
 11044 07bc 1B69     		ldr	r3, [r3, #16]
 11045 07be 07EE903A 		vmov	s15, r3	@ int
 11046 07c2 0393     		str	r3, [sp, #12]
 11047 07c4 F8EEE76A 		vcvt.f32.s32	s13, s15
 11048 07c8 6BE7     		b	.L762
 11049              	.L754:
 11050              	.LBE2715:
 11051              	.LBE2737:
 11052              	.LBB2738:
 11053              	.LBB2671:
 232:examples/looper.cpp ****                 bluemchen.display.DrawRect(0, 12, (int)(p * 28.0f), 15, true, true);
 11054              		.loc 14 232 17 is_stmt 1 view .LVU2728
 232:examples/looper.cpp ****                 bluemchen.display.DrawRect(0, 12, (int)(p * 28.0f), 15, true, true);
 11055              		.loc 14 232 27 is_stmt 0 view .LVU2729
 11056 07ca 1A4A     		ldr	r2, .L844
 232:examples/looper.cpp ****                 bluemchen.display.DrawRect(0, 12, (int)(p * 28.0f), 15, true, true);
 11057              		.loc 14 232 47 view .LVU2730
 11058 07cc 032B     		cmp	r3, #3
 232:examples/looper.cpp ****                 bluemchen.display.DrawRect(0, 12, (int)(p * 28.0f), 15, true, true);
ARM GAS  C:\Users\yaman\AppData\Local\Temp\ccCu6FW5.s 			page 286


 11059              		.loc 14 232 27 view .LVU2731
 11060 07ce 9268     		ldr	r2, [r2, #8]
 11061 07d0 07EE902A 		vmov	s15, r2	@ int
 11062 07d4 0392     		str	r2, [sp, #12]
 11063 07d6 F8EEE76A 		vcvt.f32.s32	s13, s15
 232:examples/looper.cpp ****                 bluemchen.display.DrawRect(0, 12, (int)(p * 28.0f), 15, true, true);
 11064              		.loc 14 232 47 view .LVU2732
 11065 07da 20D0     		beq	.L839
 11066 07dc 9FED177A 		vldr.32	s14, .L844+8
 11067              	.L757:
 11068              	.LVL737:
 233:examples/looper.cpp ****             }
 11069              		.loc 14 233 17 is_stmt 1 discriminator 4 view .LVU2733
 232:examples/looper.cpp ****                 bluemchen.display.DrawRect(0, 12, (int)(p * 28.0f), 15, true, true);
 11070              		.loc 14 232 23 is_stmt 0 discriminator 4 view .LVU2734
 11071 07e0 C6EE877A 		vdiv.f32	s15, s13, s14
 11072              	.LVL738:
 232:examples/looper.cpp ****                 bluemchen.display.DrawRect(0, 12, (int)(p * 28.0f), 15, true, true);
 11073              		.loc 14 232 23 discriminator 4 view .LVU2735
 11074 07e4 1D4A     		ldr	r2, .L844+40
 11075              	.LBB2672:
 11076              	.LBB2673:
 266:libDaisy/src/hid/disp/display.h ****             {
 11077              		.loc 3 266 30 discriminator 4 view .LVU2736
 11078 07e6 0023     		movs	r3, #0
 11079              	.LBE2673:
 11080              	.LBE2672:
 233:examples/looper.cpp ****             }
 11081              		.loc 14 233 59 discriminator 4 view .LVU2737
 11082 07e8 B3EE0C7A 		vmov.f32	s14, #2.8e+1
 11083 07ec 67EE877A 		vmul.f32	s15, s15, s14
 11084              	.LVL739:
 233:examples/looper.cpp ****             }
 11085              		.loc 14 233 51 discriminator 4 view .LVU2738
 11086 07f0 FDEEE77A 		vcvt.s32.f32	s15, s15
 11087 07f4 17EE900A 		vmov	r0, s15	@ int
 11088              	.LVL740:
 11089              	.LBB2692:
 11090              	.LBI2672:
 257:libDaisy/src/hid/disp/display.h ****                   uint_fast8_t y1,
 11091              		.loc 3 257 10 is_stmt 1 discriminator 4 view .LVU2739
 11092              	.LBB2691:
 266:libDaisy/src/hid/disp/display.h ****             {
 11093              		.loc 3 266 40 discriminator 4 view .LVU2740
 11094              	.L760:
 11095              	.LBB2674:
 268:libDaisy/src/hid/disp/display.h ****                 {
 11096              		.loc 3 268 44 view .LVU2741
 11097              	.LBB2675:
 11098              	.LBI2675:
  42:libDaisy/src/hid/disp/oled_display.h ****     {
 11099              		.loc 2 42 10 view .LVU2742
 11100              	.LBB2676:
 11101              	.LBI2676:
 239:libDaisy/src/dev/oled_ssd130x.h ****     {
 11102              		.loc 13 239 10 view .LVU2743
 239:libDaisy/src/dev/oled_ssd130x.h ****     {
ARM GAS  C:\Users\yaman\AppData\Local\Temp\ccCu6FW5.s 			page 287


 11103              		.loc 13 239 10 is_stmt 0 view .LVU2744
 11104              	.LBE2676:
 11105              	.LBE2675:
 268:libDaisy/src/hid/disp/display.h ****                 {
 11106              		.loc 3 268 17 is_stmt 1 view .LVU2745
 268:libDaisy/src/hid/disp/display.h ****                 {
 11107              		.loc 3 268 44 view .LVU2746
 11108              	.LBB2684:
  42:libDaisy/src/hid/disp/oled_display.h ****     {
 11109              		.loc 2 42 10 view .LVU2747
 11110              	.LBB2679:
 239:libDaisy/src/dev/oled_ssd130x.h ****     {
 11111              		.loc 13 239 10 view .LVU2748
 239:libDaisy/src/dev/oled_ssd130x.h ****     {
 11112              		.loc 13 239 10 is_stmt 0 view .LVU2749
 11113              	.LBE2679:
 11114              	.LBE2684:
 268:libDaisy/src/hid/disp/display.h ****                 {
 11115              		.loc 3 268 17 is_stmt 1 view .LVU2750
 268:libDaisy/src/hid/disp/display.h ****                 {
 11116              		.loc 3 268 44 view .LVU2751
 11117              	.LBB2685:
  42:libDaisy/src/hid/disp/oled_display.h ****     {
 11118              		.loc 2 42 10 view .LVU2752
 11119              	.LBB2680:
 239:libDaisy/src/dev/oled_ssd130x.h ****     {
 11120              		.loc 13 239 10 view .LVU2753
 239:libDaisy/src/dev/oled_ssd130x.h ****     {
 11121              		.loc 13 239 10 is_stmt 0 view .LVU2754
 11122              	.LBE2680:
 11123              	.LBE2685:
 268:libDaisy/src/hid/disp/display.h ****                 {
 11124              		.loc 3 268 17 is_stmt 1 view .LVU2755
 268:libDaisy/src/hid/disp/display.h ****                 {
 11125              		.loc 3 268 44 view .LVU2756
 11126              	.LBB2686:
  42:libDaisy/src/hid/disp/oled_display.h ****     {
 11127              		.loc 2 42 10 view .LVU2757
 11128              	.LBB2681:
 239:libDaisy/src/dev/oled_ssd130x.h ****     {
 11129              		.loc 13 239 10 view .LVU2758
 239:libDaisy/src/dev/oled_ssd130x.h ****     {
 11130              		.loc 13 239 10 is_stmt 0 view .LVU2759
 11131              	.LBE2681:
 11132              	.LBE2686:
 268:libDaisy/src/hid/disp/display.h ****                 {
 11133              		.loc 3 268 17 is_stmt 1 view .LVU2760
 268:libDaisy/src/hid/disp/display.h ****                 {
 11134              		.loc 3 268 44 view .LVU2761
 11135              	.LBE2674:
 266:libDaisy/src/hid/disp/display.h ****             {
 11136              		.loc 3 266 13 view .LVU2762
 11137              	.LBB2689:
 11138              	.LBB2687:
 11139              	.LBB2682:
 11140              	.LBB2677:
 241:libDaisy/src/dev/oled_ssd130x.h ****             return;
ARM GAS  C:\Users\yaman\AppData\Local\Temp\ccCu6FW5.s 			page 288


 11141              		.loc 13 241 9 is_stmt 0 view .LVU2763
 11142 07f8 3F2B     		cmp	r3, #63
 11143              	.LBE2677:
 11144              	.LBE2682:
 11145              	.LBE2687:
 11146              	.LBE2689:
 266:libDaisy/src/hid/disp/display.h ****             {
 11147              		.loc 3 266 13 view .LVU2764
 11148 07fa 03F10103 		add	r3, r3, #1
 11149              	.LVL741:
 266:libDaisy/src/hid/disp/display.h ****             {
 11150              		.loc 3 266 40 is_stmt 1 view .LVU2765
 11151              	.LBB2690:
 11152              	.LBB2688:
 11153              	.LBB2683:
 11154              	.LBB2678:
 241:libDaisy/src/dev/oled_ssd130x.h ****             return;
 11155              		.loc 13 241 9 is_stmt 0 view .LVU2766
 11156 07fe 03D8     		bhi	.L758
 244:libDaisy/src/dev/oled_ssd130x.h ****         else
 11157              		.loc 13 244 42 view .LVU2767
 11158 0800 1178     		ldrb	r1, [r2]	@ zero_extendqisi2
 11159 0802 61F00F01 		orn	r1, r1, #15
 11160 0806 1170     		strb	r1, [r2]
 11161              	.L758:
 11162              	.LBE2678:
 11163              	.LBE2683:
 11164              	.LBE2688:
 11165              	.LBE2690:
 266:libDaisy/src/hid/disp/display.h ****             {
 11166              		.loc 3 266 40 view .LVU2768
 11167 0808 9842     		cmp	r0, r3
 11168 080a 02F10102 		add	r2, r2, #1
 11169 080e F3D2     		bcs	.L760
 11170 0810 36E7     		b	.L759
 11171              	.LVL742:
 11172              	.L776:
 266:libDaisy/src/hid/disp/display.h ****             {
 11173              		.loc 3 266 40 view .LVU2769
 11174              	.LBE2691:
 11175              	.LBE2692:
 11176              	.LBE2671:
 11177              	.LBE2738:
 11178              	.LBB2739:
 11179              	.LBB2523:
 210:examples/looper.cpp ****                 else if (kl > 0.4f) div = 8; else if (kl > 0.2f) div = 4;
 11180              		.loc 14 210 66 view .LVU2770
 11181 0812 1022     		movs	r2, #16
 11182 0814 C1E5     		b	.L723
 11183              	.LVL743:
 11184              	.L780:
 210:examples/looper.cpp ****                 else if (kl > 0.4f) div = 8; else if (kl > 0.2f) div = 4;
 11185              		.loc 14 210 66 view .LVU2771
 11186              	.LBE2523:
 11187              	.LBE2739:
 11188              	.LBB2740:
 11189              	.LBB2600:
ARM GAS  C:\Users\yaman\AppData\Local\Temp\ccCu6FW5.s 			page 289


 222:examples/looper.cpp ****                 else if (kr > 0.4f) div = 8; else if (kr > 0.2f) div = 4;
 11190              		.loc 14 222 66 view .LVU2772
 11191 0816 1022     		movs	r2, #16
 11192 0818 80E6     		b	.L740
 11193              	.L781:
 223:examples/looper.cpp ****                 sprintf(gbuf, "/%d", div);
 11194              		.loc 14 223 41 view .LVU2773
 11195 081a 0822     		movs	r2, #8
 11196 081c 7EE6     		b	.L740
 11197              	.LVL744:
 11198              	.L839:
 223:examples/looper.cpp ****                 sprintf(gbuf, "/%d", div);
 11199              		.loc 14 223 41 view .LVU2774
 11200              	.LBE2600:
 11201              	.LBE2740:
 11202              	.LBB2741:
 11203              	.LBB2693:
 232:examples/looper.cpp ****                 bluemchen.display.DrawRect(0, 12, (int)(p * 28.0f), 15, true, true);
 11204              		.loc 14 232 47 discriminator 1 view .LVU2775
 11205 081e 054B     		ldr	r3, .L844
 11206 0820 1B69     		ldr	r3, [r3, #16]
 11207 0822 07EE903A 		vmov	s15, r3	@ int
 11208 0826 0393     		str	r3, [sp, #12]
 11209 0828 B8EEE77A 		vcvt.f32.s32	s14, s15
 11210 082c D8E7     		b	.L757
 11211              	.LVL745:
 11212              	.L777:
 232:examples/looper.cpp ****                 bluemchen.display.DrawRect(0, 12, (int)(p * 28.0f), 15, true, true);
 11213              		.loc 14 232 47 discriminator 1 view .LVU2776
 11214              	.LBE2693:
 11215              	.LBE2741:
 11216              	.LBB2742:
 11217              	.LBB2524:
 211:examples/looper.cpp ****                 sprintf(gbuf, "/%d", div);
 11218              		.loc 14 211 41 view .LVU2777
 11219 082e 0822     		movs	r2, #8
 11220 0830 B3E5     		b	.L723
 11221              	.L845:
 11222 0832 00BF     		.align	2
 11223              	.L844:
 11224 0834 00000000 		.word	.LANCHOR4
 11225 0838 00000000 		.word	.LANCHOR5
 11226 083c 00C82F4A 		.word	1244645376
 11227 0840 0A920000 		.word	bluemchen+37386
 11228 0844 E7910000 		.word	bluemchen+37351
 11229 0848 A0910000 		.word	bluemchen+37280
 11230 084c E7920000 		.word	bluemchen+37607
 11231 0850 00000000 		.word	Font_6x8
 11232 0854 00000000 		.word	.LC2
 11233 0858 04000000 		.word	.LC3
 11234 085c E8910000 		.word	bluemchen+37352
 11235              	.LBE2524:
 11236              	.LBE2742:
 11237              	.LBE2358:
 11238              	.LBE2357:
 11239              	.LBE2356:
 11240              		.cfi_endproc
ARM GAS  C:\Users\yaman\AppData\Local\Temp\ccCu6FW5.s 			page 290


 11241              	.LFE4758:
 11243              		.section	.text.startup._GLOBAL__sub_I_bluemchen,"ax",%progbits
 11244              		.align	1
 11245              		.p2align 2,,3
 11246              		.syntax unified
 11247              		.thumb
 11248              		.thumb_func
 11249              		.fpu fpv5-d16
 11251              	_GLOBAL__sub_I_bluemchen:
 11252              	.LFB5390:
 238:examples/looper.cpp ****             }
 239:examples/looper.cpp **** 
 240:examples/looper.cpp ****             bluemchen.display.Update();
 241:examples/looper.cpp ****         }
 242:examples/looper.cpp ****     }
 243:examples/looper.cpp **** }...
 11253              		.loc 14 243 1 is_stmt 1 view -0
 11254              		.cfi_startproc
 11255              		@ args = 0, pretend = 0, frame = 0
 11256              		@ frame_needed = 0, uses_anonymous_args = 0
 11257              		@ link register save eliminated.
 11258              	.LBB2796:
 11259              	.LBI2796:
 11260              		.loc 14 243 1 view .LVU2779
 11261              	.LVL746:
 11262              	.LBB2797:
 11263              	.LBB2798:
 11264              	.LBI2798:
  23:examples/../src/kxmx_bluemchen.h ****     /** Destructor */
 11265              		.loc 1 23 5 view .LVU2780
 11266              	.LBB2799:
 11267              	.LBB2800:
 11268              	.LBI2800:
  21:libDaisy/src/daisy_seed.h ****     ~DaisySeed() {}
 11269              		.loc 8 21 5 view .LVU2781
 11270              	.LBB2801:
 11271              	.LBB2802:
 11272              	.LBI2802:
 11273              		.file 19 "libDaisy/src/per/qspi.h"
   1:libDaisy/src/per/qspi.h **** #ifndef DSY_QSPI
   2:libDaisy/src/per/qspi.h **** #define DSY_QSPI /**< Macro */
   3:libDaisy/src/per/qspi.h **** 
   4:libDaisy/src/per/qspi.h **** #ifndef UNIT_TEST // for unit tests, a dummy implementation
   5:libDaisy/src/per/qspi.h **** 
   6:libDaisy/src/per/qspi.h **** #include <cstdint>
   7:libDaisy/src/per/qspi.h **** #include "daisy_core.h" // Added for dsy_gpio_pin typedef
   8:libDaisy/src/per/qspi.h **** 
   9:libDaisy/src/per/qspi.h **** #define DSY_QSPI_TEXT       \
  10:libDaisy/src/per/qspi.h ****     __attribute__((section( \
  11:libDaisy/src/per/qspi.h ****         ".qspiflash_text"))) /**< used for reading memory in memory_mapped mode. */
  12:libDaisy/src/per/qspi.h **** #define DSY_QSPI_DATA       \
  13:libDaisy/src/per/qspi.h ****     __attribute__((section( \
  14:libDaisy/src/per/qspi.h ****         ".qspiflash_data"))) /**< used for reading memory in memory_mapped mode. */
  15:libDaisy/src/per/qspi.h **** #define DSY_QSPI_BSS        \
  16:libDaisy/src/per/qspi.h ****     __attribute__((section( \
  17:libDaisy/src/per/qspi.h ****         ".qspiflash_bss"))) /**< used for reading memory in memory_mapped mode. */
  18:libDaisy/src/per/qspi.h **** 
ARM GAS  C:\Users\yaman\AppData\Local\Temp\ccCu6FW5.s 			page 291


  19:libDaisy/src/per/qspi.h **** namespace daisy
  20:libDaisy/src/per/qspi.h **** {
  21:libDaisy/src/per/qspi.h **** /** @addtogroup serial
  22:libDaisy/src/per/qspi.h **** @{
  23:libDaisy/src/per/qspi.h **** */
  24:libDaisy/src/per/qspi.h **** 
  25:libDaisy/src/per/qspi.h **** /** 
  26:libDaisy/src/per/qspi.h ****  Driver for QSPI peripheral to interface with external flash memory. \n 
  27:libDaisy/src/per/qspi.h ****     Currently supported QSPI Devices: \n 
  28:libDaisy/src/per/qspi.h ****     * IS25LP080D
  29:libDaisy/src/per/qspi.h **** */
  30:libDaisy/src/per/qspi.h **** class QSPIHandle
  31:libDaisy/src/per/qspi.h **** {
  32:libDaisy/src/per/qspi.h ****   public:
  33:libDaisy/src/per/qspi.h ****     enum Result
  34:libDaisy/src/per/qspi.h ****     {
  35:libDaisy/src/per/qspi.h ****         OK = 0,
  36:libDaisy/src/per/qspi.h ****         ERR
  37:libDaisy/src/per/qspi.h ****     };
  38:libDaisy/src/per/qspi.h **** 
  39:libDaisy/src/per/qspi.h ****     /** Indicates the current status of the module. 
  40:libDaisy/src/per/qspi.h ****          *  Warnings are indicated by a leading W.
  41:libDaisy/src/per/qspi.h ****          *  Errors are indicated by a leading E and cause an immediate exit.
  42:libDaisy/src/per/qspi.h ****          * 
  43:libDaisy/src/per/qspi.h ****          *  \param GOOD - No errors have been reported.
  44:libDaisy/src/per/qspi.h ****          *  \param E_HAL_ERROR - HAL code did not return HAL_OK.
  45:libDaisy/src/per/qspi.h ****          *  \param E_SWITCHING_MODES - An error was encountered while switching QSPI peripheral mod
  46:libDaisy/src/per/qspi.h ****          *  \param E_INVALID_MODE - QSPI should not be written to while the program is executing fr
  47:libDaisy/src/per/qspi.h ****          */
  48:libDaisy/src/per/qspi.h ****     enum Status
  49:libDaisy/src/per/qspi.h ****     {
  50:libDaisy/src/per/qspi.h ****         GOOD = 0,
  51:libDaisy/src/per/qspi.h ****         E_HAL_ERROR,
  52:libDaisy/src/per/qspi.h ****         E_SWITCHING_MODES,
  53:libDaisy/src/per/qspi.h ****         E_INVALID_MODE,
  54:libDaisy/src/per/qspi.h ****     };
  55:libDaisy/src/per/qspi.h **** 
  56:libDaisy/src/per/qspi.h ****     /** Configuration structure for interfacing with QSPI Driver */
  57:libDaisy/src/per/qspi.h ****     struct Config
  58:libDaisy/src/per/qspi.h ****     {
  59:libDaisy/src/per/qspi.h ****         /** Flash Devices supported. (Both of these are more-or-less the same, just different sizes
  60:libDaisy/src/per/qspi.h ****         enum Device
  61:libDaisy/src/per/qspi.h ****         {
  62:libDaisy/src/per/qspi.h ****             IS25LP080D,  /**< & */
  63:libDaisy/src/per/qspi.h ****             IS25LP064A,  /**< & */
  64:libDaisy/src/per/qspi.h ****             DEVICE_LAST, /**< & */
  65:libDaisy/src/per/qspi.h ****         };
  66:libDaisy/src/per/qspi.h **** 
  67:libDaisy/src/per/qspi.h ****         /** 
  68:libDaisy/src/per/qspi.h ****         Modes of operation.
  69:libDaisy/src/per/qspi.h ****         Memory Mapped mode: QSPI configured so that the QSPI can be
  70:libDaisy/src/per/qspi.h ****         read from starting address 0x90000000. Writing is not
  71:libDaisy/src/per/qspi.h ****         possible in this mode. \n 
  72:libDaisy/src/per/qspi.h ****         Indirect Polling mode: Device driver enabled. 
  73:libDaisy/src/per/qspi.h ****         */
  74:libDaisy/src/per/qspi.h ****         enum Mode
  75:libDaisy/src/per/qspi.h ****         {
ARM GAS  C:\Users\yaman\AppData\Local\Temp\ccCu6FW5.s 			page 292


  76:libDaisy/src/per/qspi.h ****             MEMORY_MAPPED,    /**< & */
  77:libDaisy/src/per/qspi.h ****             INDIRECT_POLLING, /**< & */
  78:libDaisy/src/per/qspi.h ****             MODE_LAST,
  79:libDaisy/src/per/qspi.h ****         };
  80:libDaisy/src/per/qspi.h **** 
  81:libDaisy/src/per/qspi.h ****         //SCK,  CE# (active low)
  82:libDaisy/src/per/qspi.h ****         struct
  83:libDaisy/src/per/qspi.h ****         {
  84:libDaisy/src/per/qspi.h ****             dsy_gpio_pin io0; /**< & */
  85:libDaisy/src/per/qspi.h ****             dsy_gpio_pin io1; /**< & */
  86:libDaisy/src/per/qspi.h ****             dsy_gpio_pin io2; /**< & */
  87:libDaisy/src/per/qspi.h ****             dsy_gpio_pin io3; /**< & */
  88:libDaisy/src/per/qspi.h ****             dsy_gpio_pin clk; /**< & */
  89:libDaisy/src/per/qspi.h ****             dsy_gpio_pin ncs; /**< & */
  90:libDaisy/src/per/qspi.h ****         } pin_config;
  91:libDaisy/src/per/qspi.h **** 
  92:libDaisy/src/per/qspi.h ****         Device device;
  93:libDaisy/src/per/qspi.h ****         Mode   mode;
  94:libDaisy/src/per/qspi.h ****     };
  95:libDaisy/src/per/qspi.h **** 
  96:libDaisy/src/per/qspi.h ****     /** 
  97:libDaisy/src/per/qspi.h ****         Initializes QSPI peripheral, and Resets, and prepares memory for access.
  98:libDaisy/src/per/qspi.h ****         \param config should be populated with the mode, device and pin_config before calling this 
  99:libDaisy/src/per/qspi.h ****         \return Result::OK or Result::ERR
 100:libDaisy/src/per/qspi.h ****         */
 101:libDaisy/src/per/qspi.h ****     Result Init(const Config& config);
 102:libDaisy/src/per/qspi.h **** 
 103:libDaisy/src/per/qspi.h ****     /** Returns the current config. */
 104:libDaisy/src/per/qspi.h ****     const Config& GetConfig() const;
 105:libDaisy/src/per/qspi.h **** 
 106:libDaisy/src/per/qspi.h ****     // Couldn't this just be called before anything else in init? That
 107:libDaisy/src/per/qspi.h ****     // would make manually calling it unnecessary.
 108:libDaisy/src/per/qspi.h ****     /** 
 109:libDaisy/src/per/qspi.h ****         Deinitializes the peripheral
 110:libDaisy/src/per/qspi.h ****         This should be called before reinitializing QSPI in a different mode.
 111:libDaisy/src/per/qspi.h ****         \return Result::OK or Result::ERR
 112:libDaisy/src/per/qspi.h ****         */
 113:libDaisy/src/per/qspi.h ****     Result DeInit();
 114:libDaisy/src/per/qspi.h **** 
 115:libDaisy/src/per/qspi.h ****     /** 
 116:libDaisy/src/per/qspi.h ****         Writes a single page to to the specified address on the QSPI chip.
 117:libDaisy/src/per/qspi.h ****         For IS25LP*, page size is 256 bytes.
 118:libDaisy/src/per/qspi.h ****         \param address Address to write to
 119:libDaisy/src/per/qspi.h ****         \param size Buffer size
 120:libDaisy/src/per/qspi.h ****         \param buffer Buffer to write
 121:libDaisy/src/per/qspi.h ****         \return Result::OK or Result::ERR
 122:libDaisy/src/per/qspi.h ****         */
 123:libDaisy/src/per/qspi.h ****     Result WritePage(uint32_t address, uint32_t size, uint8_t* buffer);
 124:libDaisy/src/per/qspi.h **** 
 125:libDaisy/src/per/qspi.h ****     /** 
 126:libDaisy/src/per/qspi.h ****         Writes data in buffer to to the QSPI. Starting at address to address+size 
 127:libDaisy/src/per/qspi.h ****         \param address Address to write to
 128:libDaisy/src/per/qspi.h ****         \param size Buffer size
 129:libDaisy/src/per/qspi.h ****         \param buffer Buffer to write
 130:libDaisy/src/per/qspi.h ****         \return Result::OK or Result::ERR
 131:libDaisy/src/per/qspi.h ****         */
 132:libDaisy/src/per/qspi.h ****     Result Write(uint32_t address, uint32_t size, uint8_t* buffer);
ARM GAS  C:\Users\yaman\AppData\Local\Temp\ccCu6FW5.s 			page 293


 133:libDaisy/src/per/qspi.h **** 
 134:libDaisy/src/per/qspi.h ****     /** 
 135:libDaisy/src/per/qspi.h ****         Erases the area specified on the chip.
 136:libDaisy/src/per/qspi.h ****         Erasures will happen by 4K, 32K or 64K increments.
 137:libDaisy/src/per/qspi.h ****         Smallest erase possible is 4kB at a time. (on IS25LP*)
 138:libDaisy/src/per/qspi.h ****         \param start_addr Address to begin erasing from
 139:libDaisy/src/per/qspi.h ****         \param end_addr  Address to stop erasing at
 140:libDaisy/src/per/qspi.h ****         \return Result::OK or Result::ERR
 141:libDaisy/src/per/qspi.h ****         */
 142:libDaisy/src/per/qspi.h ****     Result Erase(uint32_t start_addr, uint32_t end_addr);
 143:libDaisy/src/per/qspi.h **** 
 144:libDaisy/src/per/qspi.h ****     /**  
 145:libDaisy/src/per/qspi.h ****          Erases a single sector of the chip.  
 146:libDaisy/src/per/qspi.h ****         TODO: Document the size of this function. 
 147:libDaisy/src/per/qspi.h ****         \param address Address of sector to erase
 148:libDaisy/src/per/qspi.h ****         \return Result::OK or Result::ERR
 149:libDaisy/src/per/qspi.h ****         */
 150:libDaisy/src/per/qspi.h ****     Result EraseSector(uint32_t address);
 151:libDaisy/src/per/qspi.h **** 
 152:libDaisy/src/per/qspi.h ****     /** Returns the current class status. Useful for debugging.
 153:libDaisy/src/per/qspi.h ****      *  \returns Status
 154:libDaisy/src/per/qspi.h ****      */
 155:libDaisy/src/per/qspi.h ****     Status GetStatus();
 156:libDaisy/src/per/qspi.h **** 
 157:libDaisy/src/per/qspi.h ****     /** Returns a pointer to the actual memory used 
 158:libDaisy/src/per/qspi.h ****      *  The memory at this address is read-only
 159:libDaisy/src/per/qspi.h ****      *  to write to it use the Write function.
 160:libDaisy/src/per/qspi.h ****      * 
 161:libDaisy/src/per/qspi.h ****      *  \param offset returns the pointer starting this 
 162:libDaisy/src/per/qspi.h ****      *                many bytes into the memory
 163:libDaisy/src/per/qspi.h ****     */
 164:libDaisy/src/per/qspi.h ****     void* GetData(uint32_t offset = 0);
 165:libDaisy/src/per/qspi.h **** 
 166:libDaisy/src/per/qspi.h ****     QSPIHandle() : pimpl_(nullptr) {}
 11274              		.loc 19 166 5 view .LVU2782
 11275              	.LBB2803:
 11276              	.LBB2804:
 11277              		.loc 19 166 34 is_stmt 0 view .LVU2783
 11278 0000 1448     		ldr	r0, .L848
 11279 0002 0022     		movs	r2, #0
 11280              	.LBE2804:
 11281              	.LBE2803:
 11282              	.LBE2802:
 11283              	.LBE2801:
 11284              	.LBE2800:
 11285              	.LBB2822:
 11286              	.LBB2823:
 11287              	.LBB2824:
 11288              	.LBB2825:
 11289              	.LBB2826:
 11290              	.LBB2827:
 11291              	.LBB2828:
  37:libDaisy/src/hid/midi.h ****             tx     = {DSY_GPIOB, 6};
 11292              		.loc 5 37 20 view .LVU2784
 11293 0004 1449     		ldr	r1, .L848+4
  36:libDaisy/src/hid/midi.h ****             rx     = {DSY_GPIOB, 7};
 11294              		.loc 5 36 20 view .LVU2785
ARM GAS  C:\Users\yaman\AppData\Local\Temp\ccCu6FW5.s 			page 294


 11295 0006 00F51043 		add	r3, r0, #36864
 11296              	.LBE2828:
 11297              	.LBE2827:
 11298              	.LBE2826:
 11299              	.LBE2825:
 11300              	.LBE2824:
 11301              	.LBE2823:
 11302              	.LBE2822:
 11303              	.LBE2799:
 11304              	.LBE2798:
 11305              	.LBE2797:
 11306              	.LBE2796:
 11307              		.loc 14 243 1 view .LVU2786
 11308 000a 10B4     		push	{r4}
 11309              		.cfi_def_cfa_offset 4
 11310              		.cfi_offset 4, -4
 11311              	.LBB2899:
 11312              	.LBB2896:
 11313              	.LBB2894:
 11314              	.LBB2892:
 11315              	.LBB2860:
 11316              	.LBB2854:
 11317              	.LBB2848:
 11318              	.LBB2835:
 11319              	.LBB2833:
 11320              	.LBB2831:
 11321              	.LBB2829:
  37:libDaisy/src/hid/midi.h ****             tx     = {DSY_GPIOB, 6};
 11322              		.loc 5 37 20 view .LVU2787
 11323 000c 0C88     		ldrh	r4, [r1]
  38:libDaisy/src/hid/midi.h ****         }
 11324              		.loc 5 38 20 view .LVU2788
 11325 000e 8988     		ldrh	r1, [r1, #4]
  37:libDaisy/src/hid/midi.h ****             tx     = {DSY_GPIOB, 6};
 11326              		.loc 5 37 20 view .LVU2789
 11327 0010 A3F88441 		strh	r4, [r3, #388]	@ movhi
 11328              	.LBE2829:
 11329              	.LBE2831:
 11330              	.LBE2833:
 11331              	.LBE2835:
  84:libDaisy/src/hid/midi.h ****     ~MidiHandler() {}
 11332              		.loc 5 84 19 view .LVU2790
 11333 0014 114C     		ldr	r4, .L848+8
 11334              	.LBE2848:
 11335              	.LBE2854:
 11336              	.LBE2860:
 11337              	.LBB2861:
 11338              	.LBB2819:
 11339              	.LBB2807:
 11340              	.LBB2806:
 11341              	.LBB2805:
 11342              		.loc 19 166 34 view .LVU2791
 11343 0016 0260     		str	r2, [r0]
 11344              	.LVL747:
 11345              		.loc 19 166 34 view .LVU2792
 11346              	.LBE2805:
 11347              	.LBE2806:
ARM GAS  C:\Users\yaman\AppData\Local\Temp\ccCu6FW5.s 			page 295


 11348              	.LBE2807:
 11349              	.LBB2808:
 11350              	.LBI2808:
  76:libDaisy/src/hid/audio.h ****     ~AudioHandle() {}
 11351              		.loc 12 76 5 is_stmt 1 view .LVU2793
 11352              	.LBE2808:
 11353              	.LBE2819:
 11354              	.LBE2861:
 11355              	.LBB2862:
 11356              	.LBB2855:
 11357              	.LBB2849:
  84:libDaisy/src/hid/midi.h ****     ~MidiHandler() {}
 11358              		.loc 5 84 19 is_stmt 0 view .LVU2794
 11359 0018 C3F88C41 		str	r4, [r3, #396]
 11360 001c 4FF60F04 		movw	r4, #63503
 11361              	.LBE2849:
 11362              	.LBE2855:
 11363              	.LBE2862:
 11364              	.LBB2863:
 11365              	.LBB2820:
 11366              	.LBB2811:
 11367              	.LBB2809:
 11368              	.LBB2810:
  76:libDaisy/src/hid/audio.h ****     ~AudioHandle() {}
 11369              		.loc 12 76 35 view .LVU2795
 11370 0020 4261     		str	r2, [r0, #20]
 11371              	.LVL748:
  76:libDaisy/src/hid/audio.h ****     ~AudioHandle() {}
 11372              		.loc 12 76 35 view .LVU2796
 11373              	.LBE2810:
 11374              	.LBE2809:
 11375              	.LBE2811:
 11376              	.LBB2812:
 11377              	.LBI2812:
  92:libDaisy/src/per/adc.h ****     ~AdcHandle() {}
 11378              		.loc 11 92 5 is_stmt 1 view .LVU2797
  92:libDaisy/src/per/adc.h ****     ~AdcHandle() {}
 11379              		.loc 11 92 5 is_stmt 0 view .LVU2798
 11380              	.LBE2812:
 11381              	.LBB2813:
 11382              	.LBI2813:
 11383              		.file 20 "libDaisy/src/per/dac.h"
   1:libDaisy/src/per/dac.h **** #pragma once
   2:libDaisy/src/per/dac.h **** #ifndef DSY_DAC_H
   3:libDaisy/src/per/dac.h **** #define DSY_DAC_H
   4:libDaisy/src/per/dac.h **** 
   5:libDaisy/src/per/dac.h **** #include "daisy_core.h"
   6:libDaisy/src/per/dac.h **** 
   7:libDaisy/src/per/dac.h **** namespace daisy
   8:libDaisy/src/per/dac.h **** {
   9:libDaisy/src/per/dac.h **** /** @brief DAC handle for Built-in DAC Peripheral 
  10:libDaisy/src/per/dac.h ****  *  @ingroup per_analog
  11:libDaisy/src/per/dac.h ****  ** 
  12:libDaisy/src/per/dac.h ****  ** For now only Normal Mode is supported,
  13:libDaisy/src/per/dac.h ****  ** Sample and hold mode provides reduced power consumption, but requires a bit more setup.
  14:libDaisy/src/per/dac.h ****  **
  15:libDaisy/src/per/dac.h ****  ** For now connecting the DAC through other internal peripherals is also not supported.
ARM GAS  C:\Users\yaman\AppData\Local\Temp\ccCu6FW5.s 			page 296


  16:libDaisy/src/per/dac.h ****  **
  17:libDaisy/src/per/dac.h ****  ** Since the DAC channels have dedicated pins we don't need to pass in a pin config like with
  18:libDaisy/src/per/dac.h ****  ** other modules. However, it is still important to not try to use the DAC pins for anything else.
  19:libDaisy/src/per/dac.h ****  ** DAC Channel 1 is on PA4, and DAC Channel 2 is on PA5
  20:libDaisy/src/per/dac.h ****  ***/
  21:libDaisy/src/per/dac.h **** class DacHandle
  22:libDaisy/src/per/dac.h **** {
  23:libDaisy/src/per/dac.h ****   public:
  24:libDaisy/src/per/dac.h ****     /** Return Values for the DacHandle class */
  25:libDaisy/src/per/dac.h ****     enum class Result
  26:libDaisy/src/per/dac.h ****     {
  27:libDaisy/src/per/dac.h ****         OK,
  28:libDaisy/src/per/dac.h ****         ERR,
  29:libDaisy/src/per/dac.h ****     };
  30:libDaisy/src/per/dac.h **** 
  31:libDaisy/src/per/dac.h ****     /** Selects which channel(s) will be configured for use. */
  32:libDaisy/src/per/dac.h ****     enum class Channel
  33:libDaisy/src/per/dac.h ****     {
  34:libDaisy/src/per/dac.h ****         ONE,
  35:libDaisy/src/per/dac.h ****         TWO,
  36:libDaisy/src/per/dac.h ****         BOTH,
  37:libDaisy/src/per/dac.h ****     };
  38:libDaisy/src/per/dac.h **** 
  39:libDaisy/src/per/dac.h ****     /** Sets the Mode for the DAC channels.
  40:libDaisy/src/per/dac.h ****      **
  41:libDaisy/src/per/dac.h ****      ** Polling mode uses the blocking mode to transmit a single value at a time.
  42:libDaisy/src/per/dac.h ****      **
  43:libDaisy/src/per/dac.h ****      ** DMA mode uses a buffer, and periodically transmits it triggering a 
  44:libDaisy/src/per/dac.h ****      ** callback to fill the buffer when it is ready for more samples.
  45:libDaisy/src/per/dac.h ****      ***/
  46:libDaisy/src/per/dac.h ****     enum class Mode
  47:libDaisy/src/per/dac.h ****     {
  48:libDaisy/src/per/dac.h ****         POLLING,
  49:libDaisy/src/per/dac.h ****         DMA,
  50:libDaisy/src/per/dac.h ****     };
  51:libDaisy/src/per/dac.h **** 
  52:libDaisy/src/per/dac.h ****     /** Sets the number of bits per sample transmitted out of the DAC.
  53:libDaisy/src/per/dac.h ****      ** The output range will be: 0V - VDDA
  54:libDaisy/src/per/dac.h ****      ** The resolution will be roughly: bitdepth / (VDDA - 0V) 
  55:libDaisy/src/per/dac.h ****      ***/
  56:libDaisy/src/per/dac.h ****     enum class BitDepth
  57:libDaisy/src/per/dac.h ****     {
  58:libDaisy/src/per/dac.h ****         BITS_8,
  59:libDaisy/src/per/dac.h ****         BITS_12
  60:libDaisy/src/per/dac.h ****     };
  61:libDaisy/src/per/dac.h **** 
  62:libDaisy/src/per/dac.h ****     /** Sets whether the DAC output is buffered for higher drive ability. */
  63:libDaisy/src/per/dac.h ****     enum class BufferState
  64:libDaisy/src/per/dac.h ****     {
  65:libDaisy/src/per/dac.h ****         ENABLED,
  66:libDaisy/src/per/dac.h ****         DISABLED,
  67:libDaisy/src/per/dac.h ****     };
  68:libDaisy/src/per/dac.h **** 
  69:libDaisy/src/per/dac.h ****     /** Configuration structure for initializing the DAC structure. */
  70:libDaisy/src/per/dac.h ****     struct Config
  71:libDaisy/src/per/dac.h ****     {
  72:libDaisy/src/per/dac.h ****         /** Target Samplerate in Hz used to configure the internal 
ARM GAS  C:\Users\yaman\AppData\Local\Temp\ccCu6FW5.s 			page 297


  73:libDaisy/src/per/dac.h ****          ** timebase for DMA mode. Does nothing in POLLING mode.
  74:libDaisy/src/per/dac.h ****          ** If the value is 0 at Init time this will default to 48000Hz 
  75:libDaisy/src/per/dac.h ****          ** otherwise the driver will attempt meet the target.*/
  76:libDaisy/src/per/dac.h ****         uint32_t target_samplerate;
  77:libDaisy/src/per/dac.h **** 
  78:libDaisy/src/per/dac.h ****         Channel     chn;
  79:libDaisy/src/per/dac.h ****         Mode        mode;
  80:libDaisy/src/per/dac.h ****         BitDepth    bitdepth;
  81:libDaisy/src/per/dac.h ****         BufferState buff_state;
  82:libDaisy/src/per/dac.h ****     };
  83:libDaisy/src/per/dac.h **** 
  84:libDaisy/src/per/dac.h ****     DacHandle() : pimpl_(nullptr) {}
 11384              		.loc 20 84 5 is_stmt 1 view .LVU2799
 11385              	.LBE2813:
 11386              	.LBE2820:
 11387              	.LBE2863:
 11388              	.LBB2864:
 11389              	.LBB2856:
 11390              	.LBB2850:
  84:libDaisy/src/hid/midi.h ****     ~MidiHandler() {}
 11391              		.loc 5 84 19 is_stmt 0 view .LVU2800
 11392 0022 A3F89041 		strh	r4, [r3, #400]	@ movhi
 11393 0026 0724     		movs	r4, #7
 11394              	.LBE2850:
 11395              	.LBE2856:
 11396              	.LBE2864:
 11397              	.LBB2865:
 11398              	.LBB2821:
 11399              	.LBB2816:
 11400              	.LBB2814:
 11401              	.LBB2815:
 11402              		.loc 20 84 33 view .LVU2801
 11403 0028 0262     		str	r2, [r0, #32]
 11404              	.LVL749:
 11405              		.loc 20 84 33 view .LVU2802
 11406              	.LBE2815:
 11407              	.LBE2814:
 11408              	.LBE2816:
 11409              	.LBB2817:
 11410              	.LBI2817:
  40:libDaisy/src/hid/usb.h **** 
 11411              		.loc 10 40 5 is_stmt 1 view .LVU2803
  40:libDaisy/src/hid/usb.h **** 
 11412              		.loc 10 40 5 is_stmt 0 view .LVU2804
 11413              	.LBE2817:
 11414              	.LBB2818:
 11415              	.LBI2818:
  77:libDaisy/src/sys/system.h ****     ~System() {}
 11416              		.loc 9 77 5 is_stmt 1 view .LVU2805
  77:libDaisy/src/sys/system.h ****     ~System() {}
 11417              		.loc 9 77 5 is_stmt 0 view .LVU2806
 11418              	.LBE2818:
 11419              	.LBE2821:
 11420              	.LBE2865:
 11421              	.LBB2866:
 11422              	.LBI2866:
  20:libDaisy/src/hid/encoder.h ****     ~Encoder() {}
ARM GAS  C:\Users\yaman\AppData\Local\Temp\ccCu6FW5.s 			page 298


 11423              		.loc 6 20 5 is_stmt 1 view .LVU2807
 11424              	.LBB2867:
 11425              	.LBB2868:
 11426              	.LBI2868:
  41:libDaisy/src/hid/switch.h ****     ~Switch() {}
 11427              		.loc 7 41 5 view .LVU2808
  41:libDaisy/src/hid/switch.h ****     ~Switch() {}
 11428              		.loc 7 41 5 is_stmt 0 view .LVU2809
 11429              	.LBE2868:
 11430              	.LBE2867:
 11431              	.LBE2866:
 11432              	.LBE2892:
 11433              	.LBE2894:
 11434              	.LBE2896:
 11435              	.LBE2899:
  23:examples/../src/kxmx_bluemchen.h ****     /** Destructor */
 11436              		.loc 1 23 17 is_stmt 1 view .LVU2810
 11437              	.LBB2900:
 11438              	.LBB2897:
 11439              	.LBB2895:
 11440              	.LBB2893:
 11441              	.LBB2869:
 11442              	.LBI2822:
  84:libDaisy/src/hid/midi.h ****     ~MidiHandler() {}
 11443              		.loc 5 84 5 view .LVU2811
 11444              	.LBB2857:
 11445              	.LBB2851:
 11446              	.LBB2836:
 11447              	.LBI2836:
 11448              		.file 21 "libDaisy/src/per/uart.h"
   1:libDaisy/src/per/uart.h **** /* 
   2:libDaisy/src/per/uart.h **** TODO
   3:libDaisy/src/per/uart.h **** - UART1 defaults to DMA, add flexible config for DMA on all periphs
   4:libDaisy/src/per/uart.h **** - Transmit function improvements.
   5:libDaisy/src/per/uart.h **** - Overflow handling, etc. for Rx Queue.
   6:libDaisy/src/per/uart.h **** */
   7:libDaisy/src/per/uart.h **** 
   8:libDaisy/src/per/uart.h **** #pragma once
   9:libDaisy/src/per/uart.h **** #ifndef DSY_UART_H
  10:libDaisy/src/per/uart.h **** #define DSY_UART_H /**< macro */
  11:libDaisy/src/per/uart.h **** #include "daisy_core.h"
  12:libDaisy/src/per/uart.h **** 
  13:libDaisy/src/per/uart.h **** 
  14:libDaisy/src/per/uart.h **** namespace daisy
  15:libDaisy/src/per/uart.h **** {
  16:libDaisy/src/per/uart.h **** /** @addtogroup serial
  17:libDaisy/src/per/uart.h ****     @{
  18:libDaisy/src/per/uart.h ****     */
  19:libDaisy/src/per/uart.h **** 
  20:libDaisy/src/per/uart.h **** /** 
  21:libDaisy/src/per/uart.h ****     Uart Peripheral
  22:libDaisy/src/per/uart.h ****     @author shensley
  23:libDaisy/src/per/uart.h ****     @date March 2020
  24:libDaisy/src/per/uart.h ****     */
  25:libDaisy/src/per/uart.h **** class UartHandler
  26:libDaisy/src/per/uart.h **** {
  27:libDaisy/src/per/uart.h ****   public:
ARM GAS  C:\Users\yaman\AppData\Local\Temp\ccCu6FW5.s 			page 299


  28:libDaisy/src/per/uart.h ****     struct Config
  29:libDaisy/src/per/uart.h ****     {
  30:libDaisy/src/per/uart.h ****         enum class Peripheral
  31:libDaisy/src/per/uart.h ****         {
  32:libDaisy/src/per/uart.h ****             USART_1,
  33:libDaisy/src/per/uart.h ****             USART_2,
  34:libDaisy/src/per/uart.h ****             USART_3,
  35:libDaisy/src/per/uart.h ****             UART_4,
  36:libDaisy/src/per/uart.h ****             UART_5,
  37:libDaisy/src/per/uart.h ****             USART_6,
  38:libDaisy/src/per/uart.h ****             UART_7,
  39:libDaisy/src/per/uart.h ****             UART_8,
  40:libDaisy/src/per/uart.h ****             LPUART_1,
  41:libDaisy/src/per/uart.h ****         };
  42:libDaisy/src/per/uart.h **** 
  43:libDaisy/src/per/uart.h ****         enum class StopBits
  44:libDaisy/src/per/uart.h ****         {
  45:libDaisy/src/per/uart.h ****             BITS_0_5,
  46:libDaisy/src/per/uart.h ****             BITS_1,
  47:libDaisy/src/per/uart.h ****             BITS_1_5,
  48:libDaisy/src/per/uart.h ****             BITS_2,
  49:libDaisy/src/per/uart.h ****         };
  50:libDaisy/src/per/uart.h **** 
  51:libDaisy/src/per/uart.h ****         enum class Parity
  52:libDaisy/src/per/uart.h ****         {
  53:libDaisy/src/per/uart.h ****             NONE,
  54:libDaisy/src/per/uart.h ****             EVEN,
  55:libDaisy/src/per/uart.h ****             ODD,
  56:libDaisy/src/per/uart.h ****         };
  57:libDaisy/src/per/uart.h **** 
  58:libDaisy/src/per/uart.h ****         enum class Mode
  59:libDaisy/src/per/uart.h ****         {
  60:libDaisy/src/per/uart.h ****             RX,
  61:libDaisy/src/per/uart.h ****             TX,
  62:libDaisy/src/per/uart.h ****             TX_RX,
  63:libDaisy/src/per/uart.h ****         };
  64:libDaisy/src/per/uart.h **** 
  65:libDaisy/src/per/uart.h ****         enum class WordLength
  66:libDaisy/src/per/uart.h ****         {
  67:libDaisy/src/per/uart.h ****             BITS_7,
  68:libDaisy/src/per/uart.h ****             BITS_8,
  69:libDaisy/src/per/uart.h ****             BITS_9,
  70:libDaisy/src/per/uart.h ****         };
  71:libDaisy/src/per/uart.h **** 
  72:libDaisy/src/per/uart.h ****         struct
  73:libDaisy/src/per/uart.h ****         {
  74:libDaisy/src/per/uart.h ****             dsy_gpio_pin tx; /**< & */
  75:libDaisy/src/per/uart.h ****             dsy_gpio_pin rx; /**< & */
  76:libDaisy/src/per/uart.h ****         } pin_config;        /**< & */
  77:libDaisy/src/per/uart.h **** 
  78:libDaisy/src/per/uart.h ****         Peripheral periph;
  79:libDaisy/src/per/uart.h ****         StopBits   stopbits;
  80:libDaisy/src/per/uart.h ****         Parity     parity;
  81:libDaisy/src/per/uart.h ****         Mode       mode;
  82:libDaisy/src/per/uart.h ****         WordLength wordlength;
  83:libDaisy/src/per/uart.h ****         uint32_t   baudrate;
  84:libDaisy/src/per/uart.h ****     };
ARM GAS  C:\Users\yaman\AppData\Local\Temp\ccCu6FW5.s 			page 300


  85:libDaisy/src/per/uart.h **** 
  86:libDaisy/src/per/uart.h **** 
  87:libDaisy/src/per/uart.h ****     UartHandler() : pimpl_(nullptr) {}
 11449              		.loc 21 87 5 view .LVU2812
 11450              	.LBE2836:
  84:libDaisy/src/hid/midi.h ****     ~MidiHandler() {}
 11451              		.loc 5 84 19 is_stmt 0 view .LVU2813
 11452 002a 83F89241 		strb	r4, [r3, #402]
 11453              	.LBE2851:
 11454              	.LBE2857:
 11455              	.LBE2869:
 11456              	.LBB2870:
 11457              	.LBB2871:
 11458              	.LBB2872:
  17:libDaisy/src/hid/disp/oled_display.h ****     virtual ~OledDisplay() {}
 11459              		.loc 2 17 19 view .LVU2814
 11460 002e 0C4C     		ldr	r4, .L848+12
 11461              	.LBE2872:
 11462              	.LBE2871:
 11463              	.LBE2870:
 11464              	.LBB2887:
 11465              	.LBB2858:
 11466              	.LBB2852:
 11467              	.LBB2839:
 11468              	.LBB2837:
 11469              	.LBB2838:
 11470              		.loc 21 87 35 view .LVU2815
 11471 0030 C0F8D820 		str	r2, [r0, #216]
 11472              	.LVL750:
 11473              		.loc 21 87 35 view .LVU2816
 11474              	.LBE2838:
 11475              	.LBE2837:
 11476              	.LBE2839:
 11477              	.LBB2840:
 11478              	.LBI2840:
 11479              		.file 22 "libDaisy/src/util/ringbuffer.h"
   1:libDaisy/src/util/ringbuffer.h **** #pragma once
   2:libDaisy/src/util/ringbuffer.h **** #ifndef DSY_RINGBUFFER_H
   3:libDaisy/src/util/ringbuffer.h **** #define DSY_RINGBUFFER_H
   4:libDaisy/src/util/ringbuffer.h **** 
   5:libDaisy/src/util/ringbuffer.h **** #include <algorithm>
   6:libDaisy/src/util/ringbuffer.h **** 
   7:libDaisy/src/util/ringbuffer.h **** namespace daisy
   8:libDaisy/src/util/ringbuffer.h **** {
   9:libDaisy/src/util/ringbuffer.h **** /** @addtogroup utility
  10:libDaisy/src/util/ringbuffer.h ****     @{
  11:libDaisy/src/util/ringbuffer.h **** */
  12:libDaisy/src/util/ringbuffer.h **** 
  13:libDaisy/src/util/ringbuffer.h **** /**
  14:libDaisy/src/util/ringbuffer.h **** Utility Ring Buffer \n 
  15:libDaisy/src/util/ringbuffer.h **** imported from pichenettes/stmlib
  16:libDaisy/src/util/ringbuffer.h **** */
  17:libDaisy/src/util/ringbuffer.h **** template <typename T, size_t size>
  18:libDaisy/src/util/ringbuffer.h **** class RingBuffer
  19:libDaisy/src/util/ringbuffer.h **** {
  20:libDaisy/src/util/ringbuffer.h ****   public:
  21:libDaisy/src/util/ringbuffer.h ****     RingBuffer() {}
ARM GAS  C:\Users\yaman\AppData\Local\Temp\ccCu6FW5.s 			page 301


 11480              		.loc 22 21 5 is_stmt 1 view .LVU2817
 11481              		.loc 22 21 5 is_stmt 0 view .LVU2818
 11482              	.LBE2840:
 11483              	.LBB2841:
 11484              	.LBI2825:
  86:libDaisy/src/hid/midi.h **** 
  87:libDaisy/src/hid/midi.h ****     struct Config
 11485              		.loc 5 87 12 is_stmt 1 view .LVU2819
 11486              	.LBB2834:
 11487              	.LBI2826:
  34:libDaisy/src/hid/midi.h ****         {
 11488              		.loc 5 34 9 view .LVU2820
 11489              	.LBB2832:
 11490              	.LBB2830:
  36:libDaisy/src/hid/midi.h ****             rx     = {DSY_GPIOB, 7};
 11491              		.loc 5 36 13 view .LVU2821
  36:libDaisy/src/hid/midi.h ****             rx     = {DSY_GPIOB, 7};
 11492              		.loc 5 36 20 is_stmt 0 view .LVU2822
 11493 0034 C3F88021 		str	r2, [r3, #384]
  37:libDaisy/src/hid/midi.h ****             tx     = {DSY_GPIOB, 6};
 11494              		.loc 5 37 13 is_stmt 1 view .LVU2823
  38:libDaisy/src/hid/midi.h ****         }
 11495              		.loc 5 38 13 view .LVU2824
  38:libDaisy/src/hid/midi.h ****         }
 11496              		.loc 5 38 20 is_stmt 0 view .LVU2825
 11497 0038 A3F88611 		strh	r1, [r3, #390]	@ movhi
 11498              	.LVL751:
  38:libDaisy/src/hid/midi.h ****         }
 11499              		.loc 5 38 20 view .LVU2826
 11500              	.LBE2830:
 11501              	.LBE2832:
 11502              	.LBE2834:
 11503              	.LBE2841:
 11504              	.LBB2842:
 11505              	.LBI2842:
  25:libDaisy/src/hid/midi.h ****     ~MidiUartTransport() {}
 11506              		.loc 5 25 5 is_stmt 1 view .LVU2827
 11507              	.LBB2843:
 11508              	.LBI2843:
 11509              		.loc 21 87 5 view .LVU2828
 11510              		.loc 21 87 5 is_stmt 0 view .LVU2829
 11511              	.LBE2843:
 11512              	.LBE2842:
 11513              	.LBE2852:
 11514              	.LBE2858:
 11515              	.LBE2887:
 11516              	.LBB2888:
 11517              	.LBI2888:
  77:libDaisy/src/per/sdmmc.h ****     ~SdmmcHandler() {}
 11518              		.loc 4 77 5 is_stmt 1 view .LVU2830
  77:libDaisy/src/per/sdmmc.h ****     ~SdmmcHandler() {}
 11519              		.loc 4 77 5 is_stmt 0 view .LVU2831
 11520              	.LBE2888:
 11521              	.LBB2889:
 11522              	.LBI2870:
  17:libDaisy/src/hid/disp/oled_display.h ****     virtual ~OledDisplay() {}
 11523              		.loc 2 17 5 is_stmt 1 view .LVU2832
ARM GAS  C:\Users\yaman\AppData\Local\Temp\ccCu6FW5.s 			page 302


 11524              	.LBB2885:
 11525              	.LBB2883:
 11526              	.LBB2873:
 11527              	.LBI2873:
 218:libDaisy/src/hid/disp/display.h ****     virtual ~OneBitGraphicsDisplayImpl() {}
 11528              		.loc 3 218 5 view .LVU2833
 11529              	.LBB2874:
 11530              	.LBI2874:
  22:libDaisy/src/hid/disp/display.h ****     virtual ~OneBitGraphicsDisplay() {}
 11531              		.loc 3 22 5 view .LVU2834
  22:libDaisy/src/hid/disp/display.h ****     virtual ~OneBitGraphicsDisplay() {}
 11532              		.loc 3 22 5 is_stmt 0 view .LVU2835
 11533              	.LBE2874:
 11534              	.LBE2873:
 11535              	.LBE2883:
 11536              	.LBE2885:
 11537              	.LBE2889:
 11538              	.LBB2890:
 11539              	.LBB2859:
 11540              	.LBB2853:
 11541              	.LBB2847:
 11542              	.LBB2846:
 11543              	.LBB2844:
 11544              	.LBB2845:
 11545              		.loc 21 87 35 view .LVU2836
 11546 003c C3F88821 		str	r2, [r3, #392]
 11547              	.LBE2845:
 11548              	.LBE2844:
 11549              	.LBE2846:
 11550              	.LBE2847:
 11551              	.LBE2853:
 11552              	.LBE2859:
 11553              	.LBE2890:
 11554              	.LBB2891:
 11555              	.LBB2886:
 11556              	.LBB2884:
 11557              	.LBB2875:
 11558              	.LBB2876:
 11559              	.LBB2877:
 11560              	.LBB2878:
 11561              	.LBB2879:
 11562              		.file 23 "libDaisy/src/per/i2c.h"
   1:libDaisy/src/per/i2c.h **** #pragma once
   2:libDaisy/src/per/i2c.h **** #include "daisy_core.h"
   3:libDaisy/src/per/i2c.h **** 
   4:libDaisy/src/per/i2c.h **** namespace daisy
   5:libDaisy/src/per/i2c.h **** {
   6:libDaisy/src/per/i2c.h **** /** A handle for interacting with an I2C peripheral. This is a dumb
   7:libDaisy/src/per/i2c.h ****  *  gateway that internally points to one of the four I2C peripherals
   8:libDaisy/src/per/i2c.h ****  *  after it was initialised. It can then be copied and passed around.
   9:libDaisy/src/per/i2c.h ****  *  Use an I2CHandle like this:
  10:libDaisy/src/per/i2c.h ****  *  
  11:libDaisy/src/per/i2c.h ****  *      // setup the configuration
  12:libDaisy/src/per/i2c.h ****  *      I2CHandle::Config i2c_conf;
  13:libDaisy/src/per/i2c.h ****  *      i2c_conf.periph = I2CHandle::Config::Peripheral::I2C_1;
  14:libDaisy/src/per/i2c.h ****  *      i2c_conf.speed  = I2CHandle::Config::Speed::I2C_400KHZ;
  15:libDaisy/src/per/i2c.h ****  *      i2c_conf.mode   = I2CHandle::Config::Mode::Master;
ARM GAS  C:\Users\yaman\AppData\Local\Temp\ccCu6FW5.s 			page 303


  16:libDaisy/src/per/i2c.h ****  *      i2c_conf.pin_config.scl  = {DSY_GPIOB, 8};
  17:libDaisy/src/per/i2c.h ****  *      i2c_conf.pin_config.sda  = {DSY_GPIOB, 9};
  18:libDaisy/src/per/i2c.h ****  *      // initialise the peripheral
  19:libDaisy/src/per/i2c.h ****  *      I2CHandle i2c;
  20:libDaisy/src/per/i2c.h ****  *      i2c.Init(i2c_conf);
  21:libDaisy/src/per/i2c.h ****  *      // now i2c points to the corresponding peripheral and can be used.
  22:libDaisy/src/per/i2c.h ****  *      i2c.TransmitBlocking( ... );
  23:libDaisy/src/per/i2c.h ****  */
  24:libDaisy/src/per/i2c.h **** class I2CHandle
  25:libDaisy/src/per/i2c.h **** {
  26:libDaisy/src/per/i2c.h ****   public:
  27:libDaisy/src/per/i2c.h ****     /** Contains settings for initialising an I2C interface. */
  28:libDaisy/src/per/i2c.h ****     struct Config
  29:libDaisy/src/per/i2c.h ****     {
  30:libDaisy/src/per/i2c.h ****         /** Specifies whether the interface will operate in master or slave mode. */
  31:libDaisy/src/per/i2c.h ****         enum class Mode
  32:libDaisy/src/per/i2c.h ****         {
  33:libDaisy/src/per/i2c.h ****             I2C_MASTER,
  34:libDaisy/src/per/i2c.h ****             I2C_SLAVE,
  35:libDaisy/src/per/i2c.h ****         };
  36:libDaisy/src/per/i2c.h **** 
  37:libDaisy/src/per/i2c.h ****         /** Specifices the internal peripheral to use (these are mapped to different pins on the ha
  38:libDaisy/src/per/i2c.h ****         enum class Peripheral
  39:libDaisy/src/per/i2c.h ****         {
  40:libDaisy/src/per/i2c.h ****             I2C_1 = 0, /**< & */
  41:libDaisy/src/per/i2c.h ****             I2C_2,     /**< & */
  42:libDaisy/src/per/i2c.h ****             I2C_3,     /**< & */
  43:libDaisy/src/per/i2c.h ****             I2C_4,     /**< & */
  44:libDaisy/src/per/i2c.h ****         };
  45:libDaisy/src/per/i2c.h **** 
  46:libDaisy/src/per/i2c.h ****         /** Rate at which the clock/data will be sent/received. The device being used will have max
  47:libDaisy/src/per/i2c.h ****          *  1MHZ Mode is currently 886kHz
  48:libDaisy/src/per/i2c.h ****          */
  49:libDaisy/src/per/i2c.h ****         enum class Speed
  50:libDaisy/src/per/i2c.h ****         {
  51:libDaisy/src/per/i2c.h ****             I2C_100KHZ, /**< & */
  52:libDaisy/src/per/i2c.h ****             I2C_400KHZ, /**< & */
  53:libDaisy/src/per/i2c.h ****             I2C_1MHZ,   /**< & */
  54:libDaisy/src/per/i2c.h ****         };
  55:libDaisy/src/per/i2c.h **** 
  56:libDaisy/src/per/i2c.h ****         Peripheral periph; /**< & */
  57:libDaisy/src/per/i2c.h ****         struct
  58:libDaisy/src/per/i2c.h ****         {
  59:libDaisy/src/per/i2c.h ****             dsy_gpio_pin scl; /**< & */
  60:libDaisy/src/per/i2c.h ****             dsy_gpio_pin sda; /**< & */
  61:libDaisy/src/per/i2c.h ****         } pin_config;         /**< & */
  62:libDaisy/src/per/i2c.h **** 
  63:libDaisy/src/per/i2c.h ****         Speed speed; /**< & */
  64:libDaisy/src/per/i2c.h ****         Mode  mode;  /**< & */
  65:libDaisy/src/per/i2c.h ****         // 0x10 is chosen as a default to avoid conflicts with reserved addresses
  66:libDaisy/src/per/i2c.h ****         uint8_t address = 0x10; /**< & */
  67:libDaisy/src/per/i2c.h ****     };
  68:libDaisy/src/per/i2c.h **** 
  69:libDaisy/src/per/i2c.h ****     /** Return values for I2C functions. */
  70:libDaisy/src/per/i2c.h ****     enum class Result
  71:libDaisy/src/per/i2c.h ****     {
  72:libDaisy/src/per/i2c.h ****         OK, /**< & */
ARM GAS  C:\Users\yaman\AppData\Local\Temp\ccCu6FW5.s 			page 304


  73:libDaisy/src/per/i2c.h ****         ERR /**< & */
  74:libDaisy/src/per/i2c.h ****     };
  75:libDaisy/src/per/i2c.h **** 
  76:libDaisy/src/per/i2c.h ****     enum class Direction
  77:libDaisy/src/per/i2c.h ****     {
  78:libDaisy/src/per/i2c.h ****         TRANSMIT, /**< & */
  79:libDaisy/src/per/i2c.h ****         RECEIVE,  /**< & */
  80:libDaisy/src/per/i2c.h ****     };
  81:libDaisy/src/per/i2c.h **** 
  82:libDaisy/src/per/i2c.h ****     I2CHandle() : pimpl_(nullptr) {}
 11563              		.loc 23 82 33 view .LVU2837
 11564 0040 C3F8A021 		str	r2, [r3, #416]
 11565              	.LBE2879:
 11566              	.LBE2878:
 11567              	.LBE2877:
 11568              	.LBE2876:
 11569              	.LBE2875:
  17:libDaisy/src/hid/disp/oled_display.h ****     virtual ~OledDisplay() {}
 11570              		.loc 2 17 19 view .LVU2838
 11571 0044 C3F89841 		str	r4, [r3, #408]
 11572              	.LVL752:
 11573              	.LBB2882:
 11574              	.LBI2875:
 132:libDaisy/src/dev/oled_ssd130x.h **** {
 11575              		.loc 13 132 7 is_stmt 1 view .LVU2839
 11576              	.LBB2881:
 11577              	.LBI2876:
  15:libDaisy/src/dev/oled_ssd130x.h **** {
 11578              		.loc 13 15 7 view .LVU2840
 11579              	.LBB2880:
 11580              	.LBI2877:
 11581              		.loc 23 82 5 view .LVU2841
 11582              		.loc 23 82 5 is_stmt 0 view .LVU2842
 11583              	.LBE2880:
 11584              	.LBE2881:
 11585              	.LBE2882:
 11586              	.LBE2884:
 11587              	.LBE2886:
 11588              	.LBE2891:
 11589              	.LBE2893:
 11590              	.LBE2895:
  13:examples/looper.cpp **** Bluemchen bluemchen;
 11591              		.loc 14 13 11 view .LVU2843
 11592 0048 064A     		ldr	r2, .L848+16
 11593 004a 0749     		ldr	r1, .L848+20
 11594              	.LBE2897:
 11595              	.LBE2900:
 11596              		.loc 14 243 1 view .LVU2844
 11597 004c 5DF8044B 		ldr	r4, [sp], #4
 11598              		.cfi_restore 4
 11599              		.cfi_def_cfa_offset 0
 11600              	.LBB2901:
 11601              	.LBB2898:
  13:examples/looper.cpp **** Bluemchen bluemchen;
 11602              		.loc 14 13 11 view .LVU2845
 11603 0050 FFF7FEBF 		b	__aeabi_atexit
 11604              	.LVL753:
ARM GAS  C:\Users\yaman\AppData\Local\Temp\ccCu6FW5.s 			page 305


 11605              	.L849:
 11606              		.align	2
 11607              	.L848:
 11608 0054 00000000 		.word	bluemchen
 11609 0058 00000000 		.word	.LANCHOR9
 11610 005c 80707FF0 		.word	-260083584
 11611 0060 08000000 		.word	_ZTVN5daisy11OledDisplayINS_13SSD130xDriverILj64ELj32ENS_19SSD130xI2CTransportEEEEE+8
 11612 0064 00000000 		.word	__dso_handle
 11613 0068 00000000 		.word	_ZN4kxmx9BluemchenD1Ev
 11614              	.LBE2898:
 11615              	.LBE2901:
 11616              		.cfi_endproc
 11617              	.LFE5390:
 11619              		.section	.init_array,"aw",%init_array
 11620              		.align	2
 11621 0000 00000000 		.word	_GLOBAL__sub_I_bluemchen(target1)
 11622              		.section	.rodata.str1.4,"aMS",%progbits,1
 11623              		.align	2
 11624              	.LC5:
 11625 0000 49444C45 		.ascii	"IDLE\000"
 11625      00
 11626 0005 000000   		.align	2
 11627              	.LC6:
 11628 0008 57414954 		.ascii	"WAIT R\000"
 11628      205200
 11629 000f 00       		.align	2
 11630              	.LC7:
 11631 0010 5245432E 		.ascii	"REC...\000"
 11631      2E2E00
 11632 0017 00       		.align	2
 11633              	.LC8:
 11634 0018 4C4F4F50 		.ascii	"LOOP\000"
 11634      00
 11635              		.weak	_ZTSN5daisy21OneBitGraphicsDisplayE
 11636              		.section	.rodata._ZTSN5daisy21OneBitGraphicsDisplayE,"aG",%progbits,_ZTSN5daisy21OneBitGraphicsDis
 11637              		.align	2
 11640              	_ZTSN5daisy21OneBitGraphicsDisplayE:
 11641 0000 4E356461 		.ascii	"N5daisy21OneBitGraphicsDisplayE\000"
 11641      69737932 
 11641      314F6E65 
 11641      42697447 
 11641      72617068 
 11642              		.weak	_ZTIN5daisy21OneBitGraphicsDisplayE
 11643              		.section	.rodata._ZTIN5daisy21OneBitGraphicsDisplayE,"aG",%progbits,_ZTIN5daisy21OneBitGraphicsDis
 11644              		.align	2
 11647              	_ZTIN5daisy21OneBitGraphicsDisplayE:
 11648 0000 08000000 		.word	_ZTVN10__cxxabiv117__class_type_infoE+8
 11649 0004 00000000 		.word	_ZTSN5daisy21OneBitGraphicsDisplayE
 11650              		.weak	_ZTSN5daisy25OneBitGraphicsDisplayImplINS_11OledDisplayINS_13SSD130xDriverILj64ELj32ENS_19SS
 11651              		.section	.rodata._ZTSN5daisy25OneBitGraphicsDisplayImplINS_11OledDisplayINS_13SSD130xDriverILj64EL
 11652              		.align	2
 11655              	_ZTSN5daisy25OneBitGraphicsDisplayImplINS_11OledDisplayINS_13SSD130xDriverILj64ELj32ENS_19SSD130xI2
 11656 0000 4E356461 		.ascii	"N5daisy25OneBitGraphicsDisplayImplINS_11OledDisplay"
 11656      69737932 
 11656      354F6E65 
 11656      42697447 
 11656      72617068 
ARM GAS  C:\Users\yaman\AppData\Local\Temp\ccCu6FW5.s 			page 306


 11657 0033 494E535F 		.ascii	"INS_13SSD130xDriverILj64ELj32ENS_19SSD130xI2CTransp"
 11657      31335353 
 11657      44313330 
 11657      78447269 
 11657      76657249 
 11658 0066 6F727445 		.ascii	"ortEEEEEEE\000"
 11658      45454545 
 11658      454500
 11659              		.weak	_ZTIN5daisy25OneBitGraphicsDisplayImplINS_11OledDisplayINS_13SSD130xDriverILj64ELj32ENS_19SS
 11660              		.section	.rodata._ZTIN5daisy25OneBitGraphicsDisplayImplINS_11OledDisplayINS_13SSD130xDriverILj64EL
 11661              		.align	2
 11664              	_ZTIN5daisy25OneBitGraphicsDisplayImplINS_11OledDisplayINS_13SSD130xDriverILj64ELj32ENS_19SSD130xI2
 11665 0000 08000000 		.word	_ZTVN10__cxxabiv120__si_class_type_infoE+8
 11666 0004 00000000 		.word	_ZTSN5daisy25OneBitGraphicsDisplayImplINS_11OledDisplayINS_13SSD130xDriverILj64ELj32ENS_19SS
 11667 0008 00000000 		.word	_ZTIN5daisy21OneBitGraphicsDisplayE
 11668              		.weak	_ZTSN5daisy11OledDisplayINS_13SSD130xDriverILj64ELj32ENS_19SSD130xI2CTransportEEEEE
 11669              		.section	.rodata._ZTSN5daisy11OledDisplayINS_13SSD130xDriverILj64ELj32ENS_19SSD130xI2CTransportEEE
 11670              		.align	2
 11673              	_ZTSN5daisy11OledDisplayINS_13SSD130xDriverILj64ELj32ENS_19SSD130xI2CTransportEEEEE:
 11674 0000 4E356461 		.ascii	"N5daisy11OledDisplayINS_13SSD130xDriverILj64ELj32EN"
 11674      69737931 
 11674      314F6C65 
 11674      64446973 
 11674      706C6179 
 11675 0033 535F3139 		.ascii	"S_19SSD130xI2CTransportEEEEE\000"
 11675      53534431 
 11675      33307849 
 11675      32435472 
 11675      616E7370 
 11676              		.weak	_ZTIN5daisy11OledDisplayINS_13SSD130xDriverILj64ELj32ENS_19SSD130xI2CTransportEEEEE
 11677              		.section	.rodata._ZTIN5daisy11OledDisplayINS_13SSD130xDriverILj64ELj32ENS_19SSD130xI2CTransportEEE
 11678              		.align	2
 11681              	_ZTIN5daisy11OledDisplayINS_13SSD130xDriverILj64ELj32ENS_19SSD130xI2CTransportEEEEE:
 11682 0000 08000000 		.word	_ZTVN10__cxxabiv120__si_class_type_infoE+8
 11683 0004 00000000 		.word	_ZTSN5daisy11OledDisplayINS_13SSD130xDriverILj64ELj32ENS_19SSD130xI2CTransportEEEEE
 11684 0008 00000000 		.word	_ZTIN5daisy25OneBitGraphicsDisplayImplINS_11OledDisplayINS_13SSD130xDriverILj64ELj32ENS_19SS
 11685              		.weak	_ZTVN5daisy11OledDisplayINS_13SSD130xDriverILj64ELj32ENS_19SSD130xI2CTransportEEEEE
 11686              		.section	.rodata._ZTVN5daisy11OledDisplayINS_13SSD130xDriverILj64ELj32ENS_19SSD130xI2CTransportEEE
 11687              		.align	2
 11690              	_ZTVN5daisy11OledDisplayINS_13SSD130xDriverILj64ELj32ENS_19SSD130xI2CTransportEEEEE:
 11691 0000 00000000 		.word	0
 11692 0004 00000000 		.word	_ZTIN5daisy11OledDisplayINS_13SSD130xDriverILj64ELj32ENS_19SSD130xI2CTransportEEEEE
 11693 0008 00000000 		.word	_ZN5daisy11OledDisplayINS_13SSD130xDriverILj64ELj32ENS_19SSD130xI2CTransportEEEED1Ev
 11694 000c 00000000 		.word	_ZN5daisy11OledDisplayINS_13SSD130xDriverILj64ELj32ENS_19SSD130xI2CTransportEEEED0Ev
 11695 0010 00000000 		.word	_ZNK5daisy11OledDisplayINS_13SSD130xDriverILj64ELj32ENS_19SSD130xI2CTransportEEEE6HeightEv
 11696 0014 00000000 		.word	_ZNK5daisy11OledDisplayINS_13SSD130xDriverILj64ELj32ENS_19SSD130xI2CTransportEEEE5WidthEv
 11697 0018 00000000 		.word	_ZN5daisy11OledDisplayINS_13SSD130xDriverILj64ELj32ENS_19SSD130xI2CTransportEEEE4FillEb
 11698 001c 00000000 		.word	_ZN5daisy11OledDisplayINS_13SSD130xDriverILj64ELj32ENS_19SSD130xI2CTransportEEEE9DrawPixelEj
 11699 0020 00000000 		.word	_ZN5daisy25OneBitGraphicsDisplayImplINS_11OledDisplayINS_13SSD130xDriverILj64ELj32ENS_19SSD1
 11700 0024 00000000 		.word	_ZN5daisy25OneBitGraphicsDisplayImplINS_11OledDisplayINS_13SSD130xDriverILj64ELj32ENS_19SSD1
 11701 0028 00000000 		.word	_ZN5daisy25OneBitGraphicsDisplayImplINS_11OledDisplayINS_13SSD130xDriverILj64ELj32ENS_19SSD1
 11702 002c 00000000 		.word	_ZN5daisy25OneBitGraphicsDisplayImplINS_11OledDisplayINS_13SSD130xDriverILj64ELj32ENS_19SSD1
 11703 0030 00000000 		.word	_ZN5daisy25OneBitGraphicsDisplayImplINS_11OledDisplayINS_13SSD130xDriverILj64ELj32ENS_19SSD1
 11704 0034 00000000 		.word	_ZN5daisy25OneBitGraphicsDisplayImplINS_11OledDisplayINS_13SSD130xDriverILj64ELj32ENS_19SSD1
 11705 0038 00000000 		.word	_ZN5daisy11OledDisplayINS_13SSD130xDriverILj64ELj32ENS_19SSD130xI2CTransportEEEE6UpdateEv
 11706              		.global	ignore_release
 11707              		.global	last_oled_update
ARM GAS  C:\Users\yaman\AppData\Local\Temp\ccCu6FW5.s 			page 307


 11708              		.global	shared_knob_r
 11709              		.global	shared_knob_l
 11710              		.global	shared_cv_r
 11711              		.global	shared_cv_l
 11712              		.global	looper_r
 11713              		.global	looper_l
 11714              		.global	buf_r
 11715              		.global	buf_l
 11716              		.global	bluemchen
 11717              		.section	.rodata
 11718              		.align	2
 11719              		.set	.LANCHOR9,. + 0
 11720              	.LC0:
 11721 0000 01       		.byte	1
 11722 0001 07       		.byte	7
 11723 0002 0000     		.space	2
 11724              	.LC1:
 11725 0004 01       		.byte	1
 11726 0005 06       		.byte	6
 11727              		.section	.bss.bluemchen,"aw",%nobits
 11728              		.align	2
 11731              	bluemchen:
 11732 0000 00000000 		.space	37544
 11732      00000000 
 11732      00000000 
 11732      00000000 
 11732      00000000 
 11733              		.section	.bss.ignore_release,"aw",%nobits
 11734              		.set	.LANCHOR6,. + 0
 11737              	ignore_release:
 11738 0000 00       		.space	1
 11739              		.section	.bss.last_oled_update,"aw",%nobits
 11740              		.align	2
 11741              		.set	.LANCHOR7,. + 0
 11744              	last_oled_update:
 11745 0000 00000000 		.space	4
 11746              		.section	.bss.looper_l,"aw",%nobits
 11747              		.align	3
 11748              		.set	.LANCHOR4,. + 0
 11751              	looper_l:
 11752 0000 00000000 		.space	36
 11752      00000000 
 11752      00000000 
 11752      00000000 
 11752      00000000 
 11753              		.section	.bss.looper_r,"aw",%nobits
 11754              		.align	3
 11755              		.set	.LANCHOR5,. + 0
 11758              	looper_r:
 11759 0000 00000000 		.space	36
 11759      00000000 
 11759      00000000 
 11759      00000000 
 11759      00000000 
 11760              		.section	.bss.shared_knob_l,"aw",%nobits
 11761              		.align	2
 11762              		.set	.LANCHOR2,. + 0
ARM GAS  C:\Users\yaman\AppData\Local\Temp\ccCu6FW5.s 			page 308


 11765              	shared_knob_l:
 11766 0000 00000000 		.space	4
 11767              		.section	.bss.shared_knob_r,"aw",%nobits
 11768              		.align	2
 11769              		.set	.LANCHOR3,. + 0
 11772              	shared_knob_r:
 11773 0000 00000000 		.space	4
 11774              		.section	.data.shared_cv_l,"aw"
 11775              		.align	2
 11776              		.set	.LANCHOR0,. + 0
 11779              	shared_cv_l:
 11780 0000 0000003F 		.word	1056964608
 11781              		.section	.data.shared_cv_r,"aw"
 11782              		.align	2
 11783              		.set	.LANCHOR1,. + 0
 11786              	shared_cv_r:
 11787 0000 0000003F 		.word	1056964608
 11788              		.section	.rodata.CSWTCH.98,"a"
 11789              		.align	2
 11790              		.set	.LANCHOR8,. + 0
 11793              	CSWTCH.98:
 11794 0000 00000000 		.word	.LC5
 11795 0004 08000000 		.word	.LC6
 11796 0008 10000000 		.word	.LC7
 11797 000c 18000000 		.word	.LC8
 11798              		.section	.sdram_bss,"aw"
 11799              		.align	2
 11802              	buf_r:
 11803 0000 00000000 		.space	11520000
 11803      00000000 
 11803      00000000 
 11803      00000000 
 11803      00000000 
 11806              	buf_l:
 11807 afc800 00000000 		.space	11520000
 11807      00000000 
 11807      00000000 
 11807      00000000 
 11807      00000000 
 11808              		.text
 11809              	.Letext0:
 11810              		.file 24 "c:\\users\\yaman\\downloads\\daisytoolchain-0.3.3\\daisytoolchain-0.3.3\\windows\\arm-no
 11811              		.file 25 "c:\\users\\yaman\\downloads\\daisytoolchain-0.3.3\\daisytoolchain-0.3.3\\windows\\arm-no
 11812              		.file 26 "c:\\users\\yaman\\downloads\\daisytoolchain-0.3.3\\daisytoolchain-0.3.3\\windows\\arm-no
 11813              		.file 27 "c:\\users\\yaman\\downloads\\daisytoolchain-0.3.3\\daisytoolchain-0.3.3\\windows\\lib\\g
 11814              		.file 28 "c:\\users\\yaman\\downloads\\daisytoolchain-0.3.3\\daisytoolchain-0.3.3\\windows\\arm-no
 11815              		.file 29 "c:\\users\\yaman\\downloads\\daisytoolchain-0.3.3\\daisytoolchain-0.3.3\\windows\\arm-no
 11816              		.file 30 "c:\\users\\yaman\\downloads\\daisytoolchain-0.3.3\\daisytoolchain-0.3.3\\windows\\arm-no
 11817              		.file 31 "c:\\users\\yaman\\downloads\\daisytoolchain-0.3.3\\daisytoolchain-0.3.3\\windows\\arm-no
 11818              		.file 32 "c:\\users\\yaman\\downloads\\daisytoolchain-0.3.3\\daisytoolchain-0.3.3\\windows\\arm-no
 11819              		.file 33 "c:\\users\\yaman\\downloads\\daisytoolchain-0.3.3\\daisytoolchain-0.3.3\\windows\\arm-no
 11820              		.file 34 "c:\\users\\yaman\\downloads\\daisytoolchain-0.3.3\\daisytoolchain-0.3.3\\windows\\arm-no
 11821              		.file 35 "c:\\users\\yaman\\downloads\\daisytoolchain-0.3.3\\daisytoolchain-0.3.3\\windows\\arm-no
 11822              		.file 36 "c:\\users\\yaman\\downloads\\daisytoolchain-0.3.3\\daisytoolchain-0.3.3\\windows\\arm-no
 11823              		.file 37 "c:\\users\\yaman\\downloads\\daisytoolchain-0.3.3\\daisytoolchain-0.3.3\\windows\\arm-no
 11824              		.file 38 "c:\\users\\yaman\\downloads\\daisytoolchain-0.3.3\\daisytoolchain-0.3.3\\windows\\arm-no
 11825              		.file 39 "c:\\users\\yaman\\downloads\\daisytoolchain-0.3.3\\daisytoolchain-0.3.3\\windows\\arm-no
ARM GAS  C:\Users\yaman\AppData\Local\Temp\ccCu6FW5.s 			page 309


 11826              		.file 40 "c:\\users\\yaman\\downloads\\daisytoolchain-0.3.3\\daisytoolchain-0.3.3\\windows\\arm-no
 11827              		.file 41 "c:\\users\\yaman\\downloads\\daisytoolchain-0.3.3\\daisytoolchain-0.3.3\\windows\\arm-no
 11828              		.file 42 "c:\\users\\yaman\\downloads\\daisytoolchain-0.3.3\\daisytoolchain-0.3.3\\windows\\arm-no
 11829              		.file 43 "c:\\users\\yaman\\downloads\\daisytoolchain-0.3.3\\daisytoolchain-0.3.3\\windows\\arm-no
 11830              		.file 44 "c:\\users\\yaman\\downloads\\daisytoolchain-0.3.3\\daisytoolchain-0.3.3\\windows\\arm-no
 11831              		.file 45 "c:\\users\\yaman\\downloads\\daisytoolchain-0.3.3\\daisytoolchain-0.3.3\\windows\\arm-no
 11832              		.file 46 "c:\\users\\yaman\\downloads\\daisytoolchain-0.3.3\\daisytoolchain-0.3.3\\windows\\arm-no
 11833              		.file 47 "c:\\users\\yaman\\downloads\\daisytoolchain-0.3.3\\daisytoolchain-0.3.3\\windows\\arm-no
 11834              		.file 48 "c:\\users\\yaman\\downloads\\daisytoolchain-0.3.3\\daisytoolchain-0.3.3\\windows\\arm-no
 11835              		.file 49 "c:\\users\\yaman\\downloads\\daisytoolchain-0.3.3\\daisytoolchain-0.3.3\\windows\\arm-no
 11836              		.file 50 "c:\\users\\yaman\\downloads\\daisytoolchain-0.3.3\\daisytoolchain-0.3.3\\windows\\arm-no
 11837              		.file 51 "c:\\users\\yaman\\downloads\\daisytoolchain-0.3.3\\daisytoolchain-0.3.3\\windows\\arm-no
 11838              		.file 52 "c:\\users\\yaman\\downloads\\daisytoolchain-0.3.3\\daisytoolchain-0.3.3\\windows\\arm-no
 11839              		.file 53 "c:\\users\\yaman\\downloads\\daisytoolchain-0.3.3\\daisytoolchain-0.3.3\\windows\\arm-no
 11840              		.file 54 "DaisySP/Source/Control/adenv.h"
 11841              		.file 55 "DaisySP/Source/Utility/dsp.h"
 11842              		.file 56 "c:\\users\\yaman\\downloads\\daisytoolchain-0.3.3\\daisytoolchain-0.3.3\\windows\\lib\\g
 11843              		.file 57 "c:\\users\\yaman\\downloads\\daisytoolchain-0.3.3\\daisytoolchain-0.3.3\\windows\\arm-no
 11844              		.file 58 "c:\\users\\yaman\\downloads\\daisytoolchain-0.3.3\\daisytoolchain-0.3.3\\windows\\arm-no
 11845              		.file 59 "c:\\users\\yaman\\downloads\\daisytoolchain-0.3.3\\daisytoolchain-0.3.3\\windows\\arm-no
 11846              		.file 60 "c:\\users\\yaman\\downloads\\daisytoolchain-0.3.3\\daisytoolchain-0.3.3\\windows\\arm-no
 11847              		.file 61 "c:\\users\\yaman\\downloads\\daisytoolchain-0.3.3\\daisytoolchain-0.3.3\\windows\\arm-no
 11848              		.file 62 "libDaisy/src/daisy_core.h"
 11849              		.file 63 "libDaisy/src/per/tim.h"
 11850              		.file 64 "libDaisy/src/per/sai.h"
 11851              		.file 65 "libDaisy/src/hid/MidiEvent.h"
 11852              		.file 66 "libDaisy/src/util/wav_format.h"
 11853              		.file 67 "libDaisy/src/dev/max11300.h"
 11854              		.file 68 "libDaisy/src/per/gpio.h"
 11855              		.file 69 "libDaisy/src/dev/sdram.h"
 11856              		.file 70 "libDaisy/src/util/oled_fonts.h"
 11857              		.file 71 "libDaisy/src/dev/sr_595.h"
 11858              		.file 72 "c:\\users\\yaman\\downloads\\daisytoolchain-0.3.3\\daisytoolchain-0.3.3\\windows\\arm-no
 11859              		.file 73 "<built-in>"
ARM GAS  C:\Users\yaman\AppData\Local\Temp\ccCu6FW5.s 			page 310


DEFINED SYMBOLS
                            *ABS*:00000000 looper.cpp
C:\Users\yaman\AppData\Local\Temp\ccCu6FW5.s:17     .text._ZN4kxmx9BluemchenD2Ev:00000000 $t
C:\Users\yaman\AppData\Local\Temp\ccCu6FW5.s:26     .text._ZN4kxmx9BluemchenD2Ev:00000000 _ZN4kxmx9BluemchenD2Ev
C:\Users\yaman\AppData\Local\Temp\ccCu6FW5.s:26     .text._ZN4kxmx9BluemchenD2Ev:00000000 _ZN4kxmx9BluemchenD1Ev
C:\Users\yaman\AppData\Local\Temp\ccCu6FW5.s:114    .text._ZN5daisy11OledDisplayINS_13SSD130xDriverILj64ELj32ENS_19SSD130xI2CTransportEEEED2Ev:00000000 $t
C:\Users\yaman\AppData\Local\Temp\ccCu6FW5.s:122    .text._ZN5daisy11OledDisplayINS_13SSD130xDriverILj64ELj32ENS_19SSD130xI2CTransportEEEED2Ev:00000000 _ZN5daisy11OledDisplayINS_13SSD130xDriverILj64ELj32ENS_19SSD130xI2CTransportEEEED2Ev
C:\Users\yaman\AppData\Local\Temp\ccCu6FW5.s:122    .text._ZN5daisy11OledDisplayINS_13SSD130xDriverILj64ELj32ENS_19SSD130xI2CTransportEEEED2Ev:00000000 _ZN5daisy11OledDisplayINS_13SSD130xDriverILj64ELj32ENS_19SSD130xI2CTransportEEEED1Ev
C:\Users\yaman\AppData\Local\Temp\ccCu6FW5.s:147    .text._ZN5daisy11OledDisplayINS_13SSD130xDriverILj64ELj32ENS_19SSD130xI2CTransportEEEE4FillEb:00000000 $t
C:\Users\yaman\AppData\Local\Temp\ccCu6FW5.s:155    .text._ZN5daisy11OledDisplayINS_13SSD130xDriverILj64ELj32ENS_19SSD130xI2CTransportEEEE4FillEb:00000000 _ZN5daisy11OledDisplayINS_13SSD130xDriverILj64ELj32ENS_19SSD130xI2CTransportEEEE4FillEb
C:\Users\yaman\AppData\Local\Temp\ccCu6FW5.s:187    .text._ZNK5daisy11OledDisplayINS_13SSD130xDriverILj64ELj32ENS_19SSD130xI2CTransportEEEE6HeightEv:00000000 $t
C:\Users\yaman\AppData\Local\Temp\ccCu6FW5.s:195    .text._ZNK5daisy11OledDisplayINS_13SSD130xDriverILj64ELj32ENS_19SSD130xI2CTransportEEEE6HeightEv:00000000 _ZNK5daisy11OledDisplayINS_13SSD130xDriverILj64ELj32ENS_19SSD130xI2CTransportEEEE6HeightEv
C:\Users\yaman\AppData\Local\Temp\ccCu6FW5.s:212    .text._ZNK5daisy11OledDisplayINS_13SSD130xDriverILj64ELj32ENS_19SSD130xI2CTransportEEEE5WidthEv:00000000 $t
C:\Users\yaman\AppData\Local\Temp\ccCu6FW5.s:220    .text._ZNK5daisy11OledDisplayINS_13SSD130xDriverILj64ELj32ENS_19SSD130xI2CTransportEEEE5WidthEv:00000000 _ZNK5daisy11OledDisplayINS_13SSD130xDriverILj64ELj32ENS_19SSD130xI2CTransportEEEE5WidthEv
C:\Users\yaman\AppData\Local\Temp\ccCu6FW5.s:237    .text._ZN5daisy11OledDisplayINS_13SSD130xDriverILj64ELj32ENS_19SSD130xI2CTransportEEEED0Ev:00000000 $t
C:\Users\yaman\AppData\Local\Temp\ccCu6FW5.s:245    .text._ZN5daisy11OledDisplayINS_13SSD130xDriverILj64ELj32ENS_19SSD130xI2CTransportEEEED0Ev:00000000 _ZN5daisy11OledDisplayINS_13SSD130xDriverILj64ELj32ENS_19SSD130xI2CTransportEEEED0Ev
C:\Users\yaman\AppData\Local\Temp\ccCu6FW5.s:285    .text._ZN5daisy11OledDisplayINS_13SSD130xDriverILj64ELj32ENS_19SSD130xI2CTransportEEEE6UpdateEv:00000000 $t
C:\Users\yaman\AppData\Local\Temp\ccCu6FW5.s:293    .text._ZN5daisy11OledDisplayINS_13SSD130xDriverILj64ELj32ENS_19SSD130xI2CTransportEEEE6UpdateEv:00000000 _ZN5daisy11OledDisplayINS_13SSD130xDriverILj64ELj32ENS_19SSD130xI2CTransportEEEE6UpdateEv
C:\Users\yaman\AppData\Local\Temp\ccCu6FW5.s:477    .text._Z13AudioCallbackPKPKfPPfj:00000000 $t
C:\Users\yaman\AppData\Local\Temp\ccCu6FW5.s:485    .text._Z13AudioCallbackPKPKfPPfj:00000000 _Z13AudioCallbackPKPKfPPfj
C:\Users\yaman\AppData\Local\Temp\ccCu6FW5.s:1307   .text._Z13AudioCallbackPKPKfPPfj:000002c0 $d
C:\Users\yaman\AppData\Local\Temp\ccCu6FW5.s:1334   .text._Z13AudioCallbackPKPKfPPfj:000002f8 $t
C:\Users\yaman\AppData\Local\Temp\ccCu6FW5.s:1584   .text._ZN5daisy25OneBitGraphicsDisplayImplINS_11OledDisplayINS_13SSD130xDriverILj64ELj32ENS_19SSD130xI2CTransportEEEEEE11WriteStringEPKc7FontDefb:00000000 $t
C:\Users\yaman\AppData\Local\Temp\ccCu6FW5.s:1592   .text._ZN5daisy25OneBitGraphicsDisplayImplINS_11OledDisplayINS_13SSD130xDriverILj64ELj32ENS_19SSD130xI2CTransportEEEEEE11WriteStringEPKc7FontDefb:00000000 _ZN5daisy25OneBitGraphicsDisplayImplINS_11OledDisplayINS_13SSD130xDriverILj64ELj32ENS_19SSD130xI2CTransportEEEEEE11WriteStringEPKc7FontDefb
C:\Users\yaman\AppData\Local\Temp\ccCu6FW5.s:2190   .text._ZN5daisy25OneBitGraphicsDisplayImplINS_11OledDisplayINS_13SSD130xDriverILj64ELj32ENS_19SSD130xI2CTransportEEEEEE11WriteStringEPKc7FontDefb:00000224 $d
C:\Users\yaman\AppData\Local\Temp\ccCu6FW5.s:2196   .text._ZN5daisy11OledDisplayINS_13SSD130xDriverILj64ELj32ENS_19SSD130xI2CTransportEEEE9DrawPixelEjjb:00000000 $t
C:\Users\yaman\AppData\Local\Temp\ccCu6FW5.s:2204   .text._ZN5daisy11OledDisplayINS_13SSD130xDriverILj64ELj32ENS_19SSD130xI2CTransportEEEE9DrawPixelEjjb:00000000 _ZN5daisy11OledDisplayINS_13SSD130xDriverILj64ELj32ENS_19SSD130xI2CTransportEEEE9DrawPixelEjjb
C:\Users\yaman\AppData\Local\Temp\ccCu6FW5.s:2281   .text._ZN5daisy25OneBitGraphicsDisplayImplINS_11OledDisplayINS_13SSD130xDriverILj64ELj32ENS_19SSD130xI2CTransportEEEEEE18WriteStringAlignedEPKcRK7FontDefNS_9RectangleENS_9AlignmentEb:00000000 $t
C:\Users\yaman\AppData\Local\Temp\ccCu6FW5.s:2289   .text._ZN5daisy25OneBitGraphicsDisplayImplINS_11OledDisplayINS_13SSD130xDriverILj64ELj32ENS_19SSD130xI2CTransportEEEEEE18WriteStringAlignedEPKcRK7FontDefNS_9RectangleENS_9AlignmentEb:00000000 _ZN5daisy25OneBitGraphicsDisplayImplINS_11OledDisplayINS_13SSD130xDriverILj64ELj32ENS_19SSD130xI2CTransportEEEEEE18WriteStringAlignedEPKcRK7FontDefNS_9RectangleENS_9AlignmentEb
C:\Users\yaman\AppData\Local\Temp\ccCu6FW5.s:2431   .text._ZN5daisy25OneBitGraphicsDisplayImplINS_11OledDisplayINS_13SSD130xDriverILj64ELj32ENS_19SSD130xI2CTransportEEEEEE18WriteStringAlignedEPKcRK7FontDefNS_9RectangleENS_9AlignmentEb:0000004a $d
C:\Users\yaman\AppData\Local\Temp\ccCu6FW5.s:2440   .text._ZN5daisy25OneBitGraphicsDisplayImplINS_11OledDisplayINS_13SSD130xDriverILj64ELj32ENS_19SSD130xI2CTransportEEEEEE18WriteStringAlignedEPKcRK7FontDefNS_9RectangleENS_9AlignmentEb:0000005c $t
C:\Users\yaman\AppData\Local\Temp\ccCu6FW5.s:3726   .text._ZN5daisy25OneBitGraphicsDisplayImplINS_11OledDisplayINS_13SSD130xDriverILj64ELj32ENS_19SSD130xI2CTransportEEEEEE18WriteStringAlignedEPKcRK7FontDefNS_9RectangleENS_9AlignmentEb:0000034c $d
C:\Users\yaman\AppData\Local\Temp\ccCu6FW5.s:3741   .text._ZN5daisy25OneBitGraphicsDisplayImplINS_11OledDisplayINS_13SSD130xDriverILj64ELj32ENS_19SSD130xI2CTransportEEEEEE18WriteStringAlignedEPKcRK7FontDefNS_9RectangleENS_9AlignmentEb:00000354 $t
C:\Users\yaman\AppData\Local\Temp\ccCu6FW5.s:4107   .text._ZN5daisy25OneBitGraphicsDisplayImplINS_11OledDisplayINS_13SSD130xDriverILj64ELj32ENS_19SSD130xI2CTransportEEEEEE18WriteStringAlignedEPKcRK7FontDefNS_9RectangleENS_9AlignmentEb:00000440 $d
C:\Users\yaman\AppData\Local\Temp\ccCu6FW5.s:4115   .text._ZN5daisy25OneBitGraphicsDisplayImplINS_11OledDisplayINS_13SSD130xDriverILj64ELj32ENS_19SSD130xI2CTransportEEEEEE9WriteCharEc7FontDefb:00000000 $t
C:\Users\yaman\AppData\Local\Temp\ccCu6FW5.s:4123   .text._ZN5daisy25OneBitGraphicsDisplayImplINS_11OledDisplayINS_13SSD130xDriverILj64ELj32ENS_19SSD130xI2CTransportEEEEEE9WriteCharEc7FontDefb:00000000 _ZN5daisy25OneBitGraphicsDisplayImplINS_11OledDisplayINS_13SSD130xDriverILj64ELj32ENS_19SSD130xI2CTransportEEEEEE9WriteCharEc7FontDefb
C:\Users\yaman\AppData\Local\Temp\ccCu6FW5.s:4678   .text._ZN5daisy25OneBitGraphicsDisplayImplINS_11OledDisplayINS_13SSD130xDriverILj64ELj32ENS_19SSD130xI2CTransportEEEEEE9WriteCharEc7FontDefb:000001dc $d
C:\Users\yaman\AppData\Local\Temp\ccCu6FW5.s:4686   .text._ZN5daisy25OneBitGraphicsDisplayImplINS_11OledDisplayINS_13SSD130xDriverILj64ELj32ENS_19SSD130xI2CTransportEEEEEE8DrawLineEjjjjb:00000000 $t
C:\Users\yaman\AppData\Local\Temp\ccCu6FW5.s:4694   .text._ZN5daisy25OneBitGraphicsDisplayImplINS_11OledDisplayINS_13SSD130xDriverILj64ELj32ENS_19SSD130xI2CTransportEEEEEE8DrawLineEjjjjb:00000000 _ZN5daisy25OneBitGraphicsDisplayImplINS_11OledDisplayINS_13SSD130xDriverILj64ELj32ENS_19SSD130xI2CTransportEEEEEE8DrawLineEjjjjb
C:\Users\yaman\AppData\Local\Temp\ccCu6FW5.s:5082   .text._ZN5daisy25OneBitGraphicsDisplayImplINS_11OledDisplayINS_13SSD130xDriverILj64ELj32ENS_19SSD130xI2CTransportEEEEEE7DrawArcEjjjiib:00000000 $t
C:\Users\yaman\AppData\Local\Temp\ccCu6FW5.s:5090   .text._ZN5daisy25OneBitGraphicsDisplayImplINS_11OledDisplayINS_13SSD130xDriverILj64ELj32ENS_19SSD130xI2CTransportEEEEEE7DrawArcEjjjiib:00000000 _ZN5daisy25OneBitGraphicsDisplayImplINS_11OledDisplayINS_13SSD130xDriverILj64ELj32ENS_19SSD130xI2CTransportEEEEEE7DrawArcEjjjiib
C:\Users\yaman\AppData\Local\Temp\ccCu6FW5.s:5776   .text._ZN5daisy25OneBitGraphicsDisplayImplINS_11OledDisplayINS_13SSD130xDriverILj64ELj32ENS_19SSD130xI2CTransportEEEEEE7DrawArcEjjjiib:00000368 $d
C:\Users\yaman\AppData\Local\Temp\ccCu6FW5.s:5790   .text._ZN5daisy25OneBitGraphicsDisplayImplINS_11OledDisplayINS_13SSD130xDriverILj64ELj32ENS_19SSD130xI2CTransportEEEEEE7DrawArcEjjjiib:00000378 $t
C:\Users\yaman\AppData\Local\Temp\ccCu6FW5.s:6010   .text._ZN5daisy25OneBitGraphicsDisplayImplINS_11OledDisplayINS_13SSD130xDriverILj64ELj32ENS_19SSD130xI2CTransportEEEEEE8DrawRectEjjjjbb:00000000 $t
C:\Users\yaman\AppData\Local\Temp\ccCu6FW5.s:6018   .text._ZN5daisy25OneBitGraphicsDisplayImplINS_11OledDisplayINS_13SSD130xDriverILj64ELj32ENS_19SSD130xI2CTransportEEEEEE8DrawRectEjjjjbb:00000000 _ZN5daisy25OneBitGraphicsDisplayImplINS_11OledDisplayINS_13SSD130xDriverILj64ELj32ENS_19SSD130xI2CTransportEEEEEE8DrawRectEjjjjbb
C:\Users\yaman\AppData\Local\Temp\ccCu6FW5.s:8216   .text._Z15ProcessControlsv:00000000 $t
C:\Users\yaman\AppData\Local\Temp\ccCu6FW5.s:8224   .text._Z15ProcessControlsv:00000000 _Z15ProcessControlsv
C:\Users\yaman\AppData\Local\Temp\ccCu6FW5.s:8629   .text._Z15ProcessControlsv:000000b8 $d
C:\Users\yaman\AppData\Local\Temp\ccCu6FW5.s:11731  .bss.bluemchen:00000000 bluemchen
C:\Users\yaman\AppData\Local\Temp\ccCu6FW5.s:8648   .rodata.main.str1.4:00000000 $d
C:\Users\yaman\AppData\Local\Temp\ccCu6FW5.s:8658   .text.startup.main:00000000 $t
C:\Users\yaman\AppData\Local\Temp\ccCu6FW5.s:8666   .text.startup.main:00000000 main
C:\Users\yaman\AppData\Local\Temp\ccCu6FW5.s:9558   .text.startup.main:00000290 $d
C:\Users\yaman\AppData\Local\Temp\ccCu6FW5.s:11806  .sdram_bss:00afc800 buf_l
C:\Users\yaman\AppData\Local\Temp\ccCu6FW5.s:11802  .sdram_bss:00000000 buf_r
C:\Users\yaman\AppData\Local\Temp\ccCu6FW5.s:9576   .text.startup.main:000002c0 $t
C:\Users\yaman\AppData\Local\Temp\ccCu6FW5.s:10426  .text.startup.main:000005d4 $d
ARM GAS  C:\Users\yaman\AppData\Local\Temp\ccCu6FW5.s 			page 311


C:\Users\yaman\AppData\Local\Temp\ccCu6FW5.s:10444  .text.startup.main:00000604 $t
C:\Users\yaman\AppData\Local\Temp\ccCu6FW5.s:11224  .text.startup.main:00000834 $d
C:\Users\yaman\AppData\Local\Temp\ccCu6FW5.s:11244  .text.startup._GLOBAL__sub_I_bluemchen:00000000 $t
C:\Users\yaman\AppData\Local\Temp\ccCu6FW5.s:11251  .text.startup._GLOBAL__sub_I_bluemchen:00000000 _GLOBAL__sub_I_bluemchen
C:\Users\yaman\AppData\Local\Temp\ccCu6FW5.s:11608  .text.startup._GLOBAL__sub_I_bluemchen:00000054 $d
C:\Users\yaman\AppData\Local\Temp\ccCu6FW5.s:11690  .rodata._ZTVN5daisy11OledDisplayINS_13SSD130xDriverILj64ELj32ENS_19SSD130xI2CTransportEEEEE:00000000 _ZTVN5daisy11OledDisplayINS_13SSD130xDriverILj64ELj32ENS_19SSD130xI2CTransportEEEEE
C:\Users\yaman\AppData\Local\Temp\ccCu6FW5.s:11620  .init_array:00000000 $d
C:\Users\yaman\AppData\Local\Temp\ccCu6FW5.s:11623  .rodata.str1.4:00000000 $d
C:\Users\yaman\AppData\Local\Temp\ccCu6FW5.s:11640  .rodata._ZTSN5daisy21OneBitGraphicsDisplayE:00000000 _ZTSN5daisy21OneBitGraphicsDisplayE
C:\Users\yaman\AppData\Local\Temp\ccCu6FW5.s:11637  .rodata._ZTSN5daisy21OneBitGraphicsDisplayE:00000000 $d
C:\Users\yaman\AppData\Local\Temp\ccCu6FW5.s:11647  .rodata._ZTIN5daisy21OneBitGraphicsDisplayE:00000000 _ZTIN5daisy21OneBitGraphicsDisplayE
C:\Users\yaman\AppData\Local\Temp\ccCu6FW5.s:11644  .rodata._ZTIN5daisy21OneBitGraphicsDisplayE:00000000 $d
C:\Users\yaman\AppData\Local\Temp\ccCu6FW5.s:11655  .rodata._ZTSN5daisy25OneBitGraphicsDisplayImplINS_11OledDisplayINS_13SSD130xDriverILj64ELj32ENS_19SSD130xI2CTransportEEEEEEE:00000000 _ZTSN5daisy25OneBitGraphicsDisplayImplINS_11OledDisplayINS_13SSD130xDriverILj64ELj32ENS_19SSD130xI2CTransportEEEEEEE
C:\Users\yaman\AppData\Local\Temp\ccCu6FW5.s:11652  .rodata._ZTSN5daisy25OneBitGraphicsDisplayImplINS_11OledDisplayINS_13SSD130xDriverILj64ELj32ENS_19SSD130xI2CTransportEEEEEEE:00000000 $d
C:\Users\yaman\AppData\Local\Temp\ccCu6FW5.s:11664  .rodata._ZTIN5daisy25OneBitGraphicsDisplayImplINS_11OledDisplayINS_13SSD130xDriverILj64ELj32ENS_19SSD130xI2CTransportEEEEEEE:00000000 _ZTIN5daisy25OneBitGraphicsDisplayImplINS_11OledDisplayINS_13SSD130xDriverILj64ELj32ENS_19SSD130xI2CTransportEEEEEEE
C:\Users\yaman\AppData\Local\Temp\ccCu6FW5.s:11661  .rodata._ZTIN5daisy25OneBitGraphicsDisplayImplINS_11OledDisplayINS_13SSD130xDriverILj64ELj32ENS_19SSD130xI2CTransportEEEEEEE:00000000 $d
C:\Users\yaman\AppData\Local\Temp\ccCu6FW5.s:11673  .rodata._ZTSN5daisy11OledDisplayINS_13SSD130xDriverILj64ELj32ENS_19SSD130xI2CTransportEEEEE:00000000 _ZTSN5daisy11OledDisplayINS_13SSD130xDriverILj64ELj32ENS_19SSD130xI2CTransportEEEEE
C:\Users\yaman\AppData\Local\Temp\ccCu6FW5.s:11670  .rodata._ZTSN5daisy11OledDisplayINS_13SSD130xDriverILj64ELj32ENS_19SSD130xI2CTransportEEEEE:00000000 $d
C:\Users\yaman\AppData\Local\Temp\ccCu6FW5.s:11681  .rodata._ZTIN5daisy11OledDisplayINS_13SSD130xDriverILj64ELj32ENS_19SSD130xI2CTransportEEEEE:00000000 _ZTIN5daisy11OledDisplayINS_13SSD130xDriverILj64ELj32ENS_19SSD130xI2CTransportEEEEE
C:\Users\yaman\AppData\Local\Temp\ccCu6FW5.s:11678  .rodata._ZTIN5daisy11OledDisplayINS_13SSD130xDriverILj64ELj32ENS_19SSD130xI2CTransportEEEEE:00000000 $d
C:\Users\yaman\AppData\Local\Temp\ccCu6FW5.s:11687  .rodata._ZTVN5daisy11OledDisplayINS_13SSD130xDriverILj64ELj32ENS_19SSD130xI2CTransportEEEEE:00000000 $d
C:\Users\yaman\AppData\Local\Temp\ccCu6FW5.s:11737  .bss.ignore_release:00000000 ignore_release
C:\Users\yaman\AppData\Local\Temp\ccCu6FW5.s:11744  .bss.last_oled_update:00000000 last_oled_update
C:\Users\yaman\AppData\Local\Temp\ccCu6FW5.s:11772  .bss.shared_knob_r:00000000 shared_knob_r
C:\Users\yaman\AppData\Local\Temp\ccCu6FW5.s:11765  .bss.shared_knob_l:00000000 shared_knob_l
C:\Users\yaman\AppData\Local\Temp\ccCu6FW5.s:11786  .data.shared_cv_r:00000000 shared_cv_r
C:\Users\yaman\AppData\Local\Temp\ccCu6FW5.s:11779  .data.shared_cv_l:00000000 shared_cv_l
C:\Users\yaman\AppData\Local\Temp\ccCu6FW5.s:11758  .bss.looper_r:00000000 looper_r
C:\Users\yaman\AppData\Local\Temp\ccCu6FW5.s:11751  .bss.looper_l:00000000 looper_l
C:\Users\yaman\AppData\Local\Temp\ccCu6FW5.s:11718  .rodata:00000000 $d
C:\Users\yaman\AppData\Local\Temp\ccCu6FW5.s:11728  .bss.bluemchen:00000000 $d
C:\Users\yaman\AppData\Local\Temp\ccCu6FW5.s:11738  .bss.ignore_release:00000000 $d
C:\Users\yaman\AppData\Local\Temp\ccCu6FW5.s:11740  .bss.last_oled_update:00000000 $d
C:\Users\yaman\AppData\Local\Temp\ccCu6FW5.s:11747  .bss.looper_l:00000000 $d
C:\Users\yaman\AppData\Local\Temp\ccCu6FW5.s:11754  .bss.looper_r:00000000 $d
C:\Users\yaman\AppData\Local\Temp\ccCu6FW5.s:11761  .bss.shared_knob_l:00000000 $d
C:\Users\yaman\AppData\Local\Temp\ccCu6FW5.s:11768  .bss.shared_knob_r:00000000 $d
C:\Users\yaman\AppData\Local\Temp\ccCu6FW5.s:11775  .data.shared_cv_l:00000000 $d
C:\Users\yaman\AppData\Local\Temp\ccCu6FW5.s:11782  .data.shared_cv_r:00000000 $d
C:\Users\yaman\AppData\Local\Temp\ccCu6FW5.s:11789  .rodata.CSWTCH.98:00000000 $d
C:\Users\yaman\AppData\Local\Temp\ccCu6FW5.s:11793  .rodata.CSWTCH.98:00000000 CSWTCH.98
C:\Users\yaman\AppData\Local\Temp\ccCu6FW5.s:11799  .sdram_bss:00000000 $d
                           .group:00000000 _ZN4kxmx9BluemchenD5Ev
                           .group:00000000 _ZN5daisy11OledDisplayINS_13SSD130xDriverILj64ELj32ENS_19SSD130xI2CTransportEEEED5Ev

UNDEFINED SYMBOLS
memset
_ZdlPvj
_ZN5daisy9I2CHandle16TransmitBlockingEtPhtm
rand
cosf
sinf
_ZN4kxmx9Bluemchen21ProcessAnalogControlsEv
_ZN4kxmx9Bluemchen22ProcessDigitalControlsEv
_ZN5daisy6System6GetNowEv
_ZN4kxmx9Bluemchen4InitEv
_ZN4kxmx9Bluemchen8StartAdcEv
ARM GAS  C:\Users\yaman\AppData\Local\Temp\ccCu6FW5.s 			page 312


_ZN4kxmx9Bluemchen10StartAudioEPFvPKPKfPPfjE
Font_6x8
sprintf
__aeabi_atexit
__dso_handle
_ZTVN10__cxxabiv117__class_type_infoE
_ZTVN10__cxxabiv120__si_class_type_infoE
