ARM GAS  C:\Users\yaman\AppData\Local\Temp\ccCu6FW5.s 			page 1


   1              		.cpu cortex-m7
   2              		.eabi_attribute 28, 1
   3              		.eabi_attribute 20, 1
   4              		.eabi_attribute 21, 1
   5              		.eabi_attribute 23, 3
   6              		.eabi_attribute 24, 1
   7              		.eabi_attribute 25, 1
   8              		.eabi_attribute 26, 1
   9              		.eabi_attribute 30, 2
  10              		.eabi_attribute 34, 1
  11              		.eabi_attribute 18, 4
  12              		.file	"looper.cpp"
  13              		.text
  14              	.Ltext0:
  15              		.cfi_sections	.debug_frame
  16              		.section	.text._ZN4kxmx9BluemchenD2Ev,"axG",%progbits,_ZN4kxmx9BluemchenD5Ev,comdat
  17              		.align	1
  18              		.p2align 2,,3
  19              		.weak	_ZN4kxmx9BluemchenD2Ev
  20              		.arch armv7e-m
  21              		.syntax unified
  22              		.thumb
  23              		.thumb_func
  24              		.fpu fpv5-d16
  26              	_ZN4kxmx9BluemchenD2Ev:
  27              	.LVL0:
  28              	.LFB4745:
  29              		.file 1 "examples/../src/kxmx_bluemchen.h"
   1:examples/../src/kxmx_bluemchen.h **** #pragma once
   2:examples/../src/kxmx_bluemchen.h **** 
   3:examples/../src/kxmx_bluemchen.h **** #include "daisy_seed.h"
   4:examples/../src/kxmx_bluemchen.h **** #include "dev/oled_ssd130x.h"
   5:examples/../src/kxmx_bluemchen.h **** 
   6:examples/../src/kxmx_bluemchen.h **** namespace kxmx
   7:examples/../src/kxmx_bluemchen.h **** {
   8:examples/../src/kxmx_bluemchen.h **** class Bluemchen
   9:examples/../src/kxmx_bluemchen.h **** {
  10:examples/../src/kxmx_bluemchen.h ****   public:
  11:examples/../src/kxmx_bluemchen.h ****     /** Enum of Ctrls to represent the two knobs and two CV inputs of the kxmx_*
  12:examples/../src/kxmx_bluemchen.h ****      */
  13:examples/../src/kxmx_bluemchen.h ****     enum Ctrl
  14:examples/../src/kxmx_bluemchen.h ****     {
  15:examples/../src/kxmx_bluemchen.h ****         CTRL_1,   /**< */
  16:examples/../src/kxmx_bluemchen.h ****         CTRL_2,   /**< */
  17:examples/../src/kxmx_bluemchen.h ****         CTRL_3,   /**< */
  18:examples/../src/kxmx_bluemchen.h ****         CTRL_4,   /**< */
  19:examples/../src/kxmx_bluemchen.h ****         CTRL_LAST /**< */
  20:examples/../src/kxmx_bluemchen.h ****     };
  21:examples/../src/kxmx_bluemchen.h **** 
  22:examples/../src/kxmx_bluemchen.h ****     /** Constructor */
  23:examples/../src/kxmx_bluemchen.h ****     Bluemchen() {}
  24:examples/../src/kxmx_bluemchen.h ****     /** Destructor */
  25:examples/../src/kxmx_bluemchen.h ****     ~Bluemchen() {}
  30              		.loc 1 25 5 view -0
  31              		.cfi_startproc
  32              		@ args = 0, pretend = 0, frame = 0
  33              		@ frame_needed = 0, uses_anonymous_args = 0
ARM GAS  C:\Users\yaman\AppData\Local\Temp\ccCu6FW5.s 			page 2


  34              		@ link register save eliminated.
  35              	.LBB582:
  36              	.LBI582:
  37              		.file 2 "libDaisy/src/hid/disp/oled_display.h"
   1:libDaisy/src/hid/disp/oled_display.h **** #pragma once
   2:libDaisy/src/hid/disp/oled_display.h **** #ifndef DSY_OLED_DISPLAY_H
   3:libDaisy/src/hid/disp/oled_display.h **** #define DSY_OLED_DISPLAY_H /**< Macro */
   4:libDaisy/src/hid/disp/oled_display.h **** 
   5:libDaisy/src/hid/disp/oled_display.h **** #include "display.h"
   6:libDaisy/src/hid/disp/oled_display.h **** 
   7:libDaisy/src/hid/disp/oled_display.h **** namespace daisy
   8:libDaisy/src/hid/disp/oled_display.h **** {
   9:libDaisy/src/hid/disp/oled_display.h **** /** 
  10:libDaisy/src/hid/disp/oled_display.h ****  * This class is for drawing to a monochrome OLED display. 
  11:libDaisy/src/hid/disp/oled_display.h ****  * @ingroup device
  12:libDaisy/src/hid/disp/oled_display.h **** */
  13:libDaisy/src/hid/disp/oled_display.h **** template <typename DisplayDriver>
  14:libDaisy/src/hid/disp/oled_display.h **** class OledDisplay : public OneBitGraphicsDisplayImpl<OledDisplay<DisplayDriver>>
  15:libDaisy/src/hid/disp/oled_display.h **** {
  16:libDaisy/src/hid/disp/oled_display.h ****   public:
  17:libDaisy/src/hid/disp/oled_display.h ****     OledDisplay() {}
  18:libDaisy/src/hid/disp/oled_display.h ****     virtual ~OledDisplay() {}
  38              		.loc 2 18 13 view .LVU1
  39              	.LBB583:
  40              	.LBI583:
  41              		.file 3 "libDaisy/src/hid/disp/display.h"
   1:libDaisy/src/hid/disp/display.h **** #pragma once
   2:libDaisy/src/hid/disp/display.h **** #ifndef DSY_DISPLAY_H
   3:libDaisy/src/hid/disp/display.h **** #define DSY_DISPLAY_H /**< Macro */
   4:libDaisy/src/hid/disp/display.h **** #include <cmath>
   5:libDaisy/src/hid/disp/display.h **** #include "util/oled_fonts.h"
   6:libDaisy/src/hid/disp/display.h **** #include "daisy_core.h"
   7:libDaisy/src/hid/disp/display.h **** #include "graphics_common.h"
   8:libDaisy/src/hid/disp/display.h **** 
   9:libDaisy/src/hid/disp/display.h **** #ifndef deg2rad
  10:libDaisy/src/hid/disp/display.h **** #define deg2rad(deg) ((deg)*3.141592 / 180.0)
  11:libDaisy/src/hid/disp/display.h **** #endif
  12:libDaisy/src/hid/disp/display.h **** 
  13:libDaisy/src/hid/disp/display.h **** namespace daisy
  14:libDaisy/src/hid/disp/display.h **** {
  15:libDaisy/src/hid/disp/display.h **** /** 
  16:libDaisy/src/hid/disp/display.h ****  * This interface is used as a base class for all types of 1bit-per-pixel
  17:libDaisy/src/hid/disp/display.h ****  * graphics displays.
  18:libDaisy/src/hid/disp/display.h **** */
  19:libDaisy/src/hid/disp/display.h **** class OneBitGraphicsDisplay
  20:libDaisy/src/hid/disp/display.h **** {
  21:libDaisy/src/hid/disp/display.h ****   public:
  22:libDaisy/src/hid/disp/display.h ****     OneBitGraphicsDisplay() {}
  23:libDaisy/src/hid/disp/display.h ****     virtual ~OneBitGraphicsDisplay() {}
  24:libDaisy/src/hid/disp/display.h **** 
  25:libDaisy/src/hid/disp/display.h ****     virtual uint16_t Height() const = 0;
  26:libDaisy/src/hid/disp/display.h ****     virtual uint16_t Width() const  = 0;
  27:libDaisy/src/hid/disp/display.h **** 
  28:libDaisy/src/hid/disp/display.h ****     Rectangle GetBounds() const
  29:libDaisy/src/hid/disp/display.h ****     {
  30:libDaisy/src/hid/disp/display.h ****         return Rectangle(int16_t(Width()), int16_t(Height()));
  31:libDaisy/src/hid/disp/display.h ****     }
ARM GAS  C:\Users\yaman\AppData\Local\Temp\ccCu6FW5.s 			page 3


  32:libDaisy/src/hid/disp/display.h **** 
  33:libDaisy/src/hid/disp/display.h **** 
  34:libDaisy/src/hid/disp/display.h ****     size_t CurrentX() { return currentX_; };
  35:libDaisy/src/hid/disp/display.h ****     size_t CurrentY() { return currentY_; };
  36:libDaisy/src/hid/disp/display.h **** 
  37:libDaisy/src/hid/disp/display.h ****     /** 
  38:libDaisy/src/hid/disp/display.h ****     Fills the entire display with either on/off.
  39:libDaisy/src/hid/disp/display.h ****     \param on Sets on or off.
  40:libDaisy/src/hid/disp/display.h ****     */
  41:libDaisy/src/hid/disp/display.h ****     virtual void Fill(bool on) = 0;
  42:libDaisy/src/hid/disp/display.h **** 
  43:libDaisy/src/hid/disp/display.h ****     /**
  44:libDaisy/src/hid/disp/display.h ****     Sets the pixel at the specified coordinate to be on/off.
  45:libDaisy/src/hid/disp/display.h ****     \param x   x Coordinate
  46:libDaisy/src/hid/disp/display.h ****     \param y   y coordinate
  47:libDaisy/src/hid/disp/display.h ****     \param on  on or off
  48:libDaisy/src/hid/disp/display.h ****     */
  49:libDaisy/src/hid/disp/display.h ****     virtual void DrawPixel(uint_fast8_t x, uint_fast8_t y, bool on) = 0;
  50:libDaisy/src/hid/disp/display.h **** 
  51:libDaisy/src/hid/disp/display.h ****     /**
  52:libDaisy/src/hid/disp/display.h ****     Draws a line from (x1, y1) to (y1, y2)
  53:libDaisy/src/hid/disp/display.h ****     \param x1  x Coordinate of the starting point
  54:libDaisy/src/hid/disp/display.h ****     \param y1  y Coordinate of the starting point
  55:libDaisy/src/hid/disp/display.h ****     \param x2  x Coordinate of the ending point
  56:libDaisy/src/hid/disp/display.h ****     \param y2  y Coordinate of the ending point
  57:libDaisy/src/hid/disp/display.h ****     \param on  on or off
  58:libDaisy/src/hid/disp/display.h ****     */
  59:libDaisy/src/hid/disp/display.h ****     virtual void DrawLine(uint_fast8_t x1,
  60:libDaisy/src/hid/disp/display.h ****                           uint_fast8_t y1,
  61:libDaisy/src/hid/disp/display.h ****                           uint_fast8_t x2,
  62:libDaisy/src/hid/disp/display.h ****                           uint_fast8_t y2,
  63:libDaisy/src/hid/disp/display.h ****                           bool         on)
  64:libDaisy/src/hid/disp/display.h ****         = 0;
  65:libDaisy/src/hid/disp/display.h **** 
  66:libDaisy/src/hid/disp/display.h ****     /**
  67:libDaisy/src/hid/disp/display.h ****     Draws a rectangle based on two coordinates.
  68:libDaisy/src/hid/disp/display.h ****     \param x1 x Coordinate of the first point
  69:libDaisy/src/hid/disp/display.h ****     \param y1 y Coordinate of the first point
  70:libDaisy/src/hid/disp/display.h ****     \param x2 x Coordinate of the second point
  71:libDaisy/src/hid/disp/display.h ****     \param y2 y Coordinate of the second point
  72:libDaisy/src/hid/disp/display.h ****     \param on on or off
  73:libDaisy/src/hid/disp/display.h ****     \param fill fill the rectangle or draw only the outline
  74:libDaisy/src/hid/disp/display.h ****     */
  75:libDaisy/src/hid/disp/display.h ****     virtual void DrawRect(uint_fast8_t x1,
  76:libDaisy/src/hid/disp/display.h ****                           uint_fast8_t y1,
  77:libDaisy/src/hid/disp/display.h ****                           uint_fast8_t x2,
  78:libDaisy/src/hid/disp/display.h ****                           uint_fast8_t y2,
  79:libDaisy/src/hid/disp/display.h ****                           bool         on,
  80:libDaisy/src/hid/disp/display.h ****                           bool         fill = false)
  81:libDaisy/src/hid/disp/display.h ****         = 0;
  82:libDaisy/src/hid/disp/display.h **** 
  83:libDaisy/src/hid/disp/display.h ****     /**
  84:libDaisy/src/hid/disp/display.h ****     Draws a rectangle.
  85:libDaisy/src/hid/disp/display.h ****     \param rect the rectangle
  86:libDaisy/src/hid/disp/display.h ****     \param on   on or off
  87:libDaisy/src/hid/disp/display.h ****     \param fill fill the rectangle or draw only the outline
  88:libDaisy/src/hid/disp/display.h ****     */
ARM GAS  C:\Users\yaman\AppData\Local\Temp\ccCu6FW5.s 			page 4


  89:libDaisy/src/hid/disp/display.h ****     void DrawRect(const Rectangle& rect, bool on, bool fill = false)
  90:libDaisy/src/hid/disp/display.h ****     {
  91:libDaisy/src/hid/disp/display.h ****         DrawRect(rect.GetX(),
  92:libDaisy/src/hid/disp/display.h ****                  rect.GetY(),
  93:libDaisy/src/hid/disp/display.h ****                  rect.GetRight(),
  94:libDaisy/src/hid/disp/display.h ****                  rect.GetBottom(),
  95:libDaisy/src/hid/disp/display.h ****                  on,
  96:libDaisy/src/hid/disp/display.h ****                  fill);
  97:libDaisy/src/hid/disp/display.h ****     }
  98:libDaisy/src/hid/disp/display.h **** 
  99:libDaisy/src/hid/disp/display.h ****     /**
 100:libDaisy/src/hid/disp/display.h ****     Draws an arc around the specified coordinate
 101:libDaisy/src/hid/disp/display.h ****     \param x           x Coordinate of the center of the arc
 102:libDaisy/src/hid/disp/display.h ****     \param y           y Coordinate of the center of the arc
 103:libDaisy/src/hid/disp/display.h ****     \param radius      radius of the arc
 104:libDaisy/src/hid/disp/display.h ****     \param start_angle angle where to start the arc
 105:libDaisy/src/hid/disp/display.h ****     \param sweep       total angle of the arc
 106:libDaisy/src/hid/disp/display.h ****     \param on  on or off
 107:libDaisy/src/hid/disp/display.h ****     */
 108:libDaisy/src/hid/disp/display.h ****     virtual void DrawArc(uint_fast8_t x,
 109:libDaisy/src/hid/disp/display.h ****                          uint_fast8_t y,
 110:libDaisy/src/hid/disp/display.h ****                          uint_fast8_t radius,
 111:libDaisy/src/hid/disp/display.h ****                          int_fast16_t start_angle,
 112:libDaisy/src/hid/disp/display.h ****                          int_fast16_t sweep,
 113:libDaisy/src/hid/disp/display.h ****                          bool         on)
 114:libDaisy/src/hid/disp/display.h ****         = 0;
 115:libDaisy/src/hid/disp/display.h **** 
 116:libDaisy/src/hid/disp/display.h ****     /**
 117:libDaisy/src/hid/disp/display.h ****     Draws a circle around the specified coordinate
 118:libDaisy/src/hid/disp/display.h ****     \param x           x Coordinate of the center of the circle
 119:libDaisy/src/hid/disp/display.h ****     \param y           y Coordinate of the center of the circle
 120:libDaisy/src/hid/disp/display.h ****     \param radius      radius of the circle
 121:libDaisy/src/hid/disp/display.h ****     \param on  on or off
 122:libDaisy/src/hid/disp/display.h ****     */
 123:libDaisy/src/hid/disp/display.h ****     void
 124:libDaisy/src/hid/disp/display.h ****     DrawCircle(uint_fast8_t x, uint_fast8_t y, uint_fast8_t radius, bool on)
 125:libDaisy/src/hid/disp/display.h ****     {
 126:libDaisy/src/hid/disp/display.h ****         DrawArc(x, y, radius, 0, 360, on);
 127:libDaisy/src/hid/disp/display.h ****     };
 128:libDaisy/src/hid/disp/display.h **** 
 129:libDaisy/src/hid/disp/display.h ****     /** 
 130:libDaisy/src/hid/disp/display.h ****     Writes the character with the specific FontDef
 131:libDaisy/src/hid/disp/display.h ****     to the display buffer at the current Cursor position.
 132:libDaisy/src/hid/disp/display.h ****     \param ch character to be written
 133:libDaisy/src/hid/disp/display.h ****     \param font font to be written in
 134:libDaisy/src/hid/disp/display.h ****     \param on    on or off
 135:libDaisy/src/hid/disp/display.h ****     \return &
 136:libDaisy/src/hid/disp/display.h ****     */
 137:libDaisy/src/hid/disp/display.h ****     virtual char WriteChar(char ch, FontDef font, bool on) = 0;
 138:libDaisy/src/hid/disp/display.h **** 
 139:libDaisy/src/hid/disp/display.h ****     /** 
 140:libDaisy/src/hid/disp/display.h ****     Similar to WriteChar, except it will handle an entire String.
 141:libDaisy/src/hid/disp/display.h ****     Wrapping does not happen automatically, so the width
 142:libDaisy/src/hid/disp/display.h ****     of the string must be kept within the dimensions of the screen.
 143:libDaisy/src/hid/disp/display.h ****     \param str string to be written
 144:libDaisy/src/hid/disp/display.h ****     \param font font to use
 145:libDaisy/src/hid/disp/display.h ****     \param on  on or off
ARM GAS  C:\Users\yaman\AppData\Local\Temp\ccCu6FW5.s 			page 5


 146:libDaisy/src/hid/disp/display.h ****     \return &
 147:libDaisy/src/hid/disp/display.h ****     */
 148:libDaisy/src/hid/disp/display.h ****     virtual char WriteString(const char* str, FontDef font, bool on) = 0;
 149:libDaisy/src/hid/disp/display.h **** 
 150:libDaisy/src/hid/disp/display.h ****     /** 
 151:libDaisy/src/hid/disp/display.h ****     Similar to WriteString but justified within a bounding box.
 152:libDaisy/src/hid/disp/display.h ****     \param str          string to be written
 153:libDaisy/src/hid/disp/display.h ****     \param font         font to use
 154:libDaisy/src/hid/disp/display.h ****     \param boundingBox  the bounding box to draw the text in
 155:libDaisy/src/hid/disp/display.h ****     \param alignment    the alignment to use
 156:libDaisy/src/hid/disp/display.h ****     \param on           on or off
 157:libDaisy/src/hid/disp/display.h ****     \return The rectangle that was drawn to
 158:libDaisy/src/hid/disp/display.h ****     */
 159:libDaisy/src/hid/disp/display.h ****     virtual Rectangle WriteStringAligned(const char*    str,
 160:libDaisy/src/hid/disp/display.h ****                                          const FontDef& font,
 161:libDaisy/src/hid/disp/display.h ****                                          Rectangle      boundingBox,
 162:libDaisy/src/hid/disp/display.h ****                                          Alignment      alignment,
 163:libDaisy/src/hid/disp/display.h ****                                          bool           on)
 164:libDaisy/src/hid/disp/display.h ****         = 0;
 165:libDaisy/src/hid/disp/display.h **** 
 166:libDaisy/src/hid/disp/display.h ****     /** 
 167:libDaisy/src/hid/disp/display.h ****     Moves the 'Cursor' position used for WriteChar, and WriteStr to the specified coordinate.
 168:libDaisy/src/hid/disp/display.h ****     \param x x pos
 169:libDaisy/src/hid/disp/display.h ****     \param y y pos
 170:libDaisy/src/hid/disp/display.h ****     */
 171:libDaisy/src/hid/disp/display.h ****     void SetCursor(uint16_t x, uint16_t y)
 172:libDaisy/src/hid/disp/display.h ****     {
 173:libDaisy/src/hid/disp/display.h ****         currentX_ = (x >= Width()) ? Width() - 1 : x;
 174:libDaisy/src/hid/disp/display.h ****         currentY_ = (y >= Height()) ? Height() - 1 : y;
 175:libDaisy/src/hid/disp/display.h ****     }
 176:libDaisy/src/hid/disp/display.h **** 
 177:libDaisy/src/hid/disp/display.h ****     /** 
 178:libDaisy/src/hid/disp/display.h ****     Writes the current display buffer to the OLED device using SPI or I2C depending on 
 179:libDaisy/src/hid/disp/display.h ****     how the object was initialized.
 180:libDaisy/src/hid/disp/display.h ****     */
 181:libDaisy/src/hid/disp/display.h ****     virtual void Update() = 0;
 182:libDaisy/src/hid/disp/display.h **** 
 183:libDaisy/src/hid/disp/display.h ****   protected:
 184:libDaisy/src/hid/disp/display.h ****     uint16_t currentX_;
 185:libDaisy/src/hid/disp/display.h ****     uint16_t currentY_;
 186:libDaisy/src/hid/disp/display.h **** };
 187:libDaisy/src/hid/disp/display.h **** 
 188:libDaisy/src/hid/disp/display.h **** /** This class is intended as a intermediary class for your actual implementation of the OneBitGrap
 189:libDaisy/src/hid/disp/display.h ****  *  interface. It uses the CRTP design pattern where the template argument is the child class. It p
 190:libDaisy/src/hid/disp/display.h ****  *  implementations for most of the functions, except DrawPixel(), Update() and Fill(), which you'l
 191:libDaisy/src/hid/disp/display.h ****  *  to provide in your child class.
 192:libDaisy/src/hid/disp/display.h ****  *  The main goal of this class is to provide common drawing functions without relying on massive a
 193:libDaisy/src/hid/disp/display.h ****  *  virtual function calls that would result in a performance loss. To achieve this, any drawing fu
 194:libDaisy/src/hid/disp/display.h ****  *  is implemented here and internally calls other drawing functions (e.g. DrawRect() which interna
 195:libDaisy/src/hid/disp/display.h ****  *  DrawPixel() and DrawLine()) makes these calls via the qualified name of these functions to expl
 196:libDaisy/src/hid/disp/display.h ****  *  suppress the virtual dispatch mechanism like this:
 197:libDaisy/src/hid/disp/display.h ****  * 
 198:libDaisy/src/hid/disp/display.h ****  *      ChildType::DrawPixel(...); // no virtual function call; direct call into the child class fu
 199:libDaisy/src/hid/disp/display.h ****  *  
 200:libDaisy/src/hid/disp/display.h ****  *  To create a custom OneBitGraphicsDisplay implementation, you can 
 201:libDaisy/src/hid/disp/display.h ****  *  A) inherit from OneBitGraphicsDisplay directly and provide all the drawing functions yourself
 202:libDaisy/src/hid/disp/display.h ****  *  B) Inherit from OneBitGraphicsDisplayImpl and only provide DrawPixel(), Fill() and Update()
ARM GAS  C:\Users\yaman\AppData\Local\Temp\ccCu6FW5.s 			page 6


 203:libDaisy/src/hid/disp/display.h ****  *     like this:
 204:libDaisy/src/hid/disp/display.h ****  *  
 205:libDaisy/src/hid/disp/display.h ****  *      class MyDisplayClass : public OneBitGraphicsDisplayImpl<MyDisplayClass> 
 206:libDaisy/src/hid/disp/display.h ****  *      {
 207:libDaisy/src/hid/disp/display.h ****  *      public:
 208:libDaisy/src/hid/disp/display.h ****  *          void Fill() override { ... };
 209:libDaisy/src/hid/disp/display.h ****  *          void DrawPixel(uint_fast8_t x, uint_fast8_t y, bool on) override { ... };
 210:libDaisy/src/hid/disp/display.h ****  *          void Update() override { ... }
 211:libDaisy/src/hid/disp/display.h ****  *      };
 212:libDaisy/src/hid/disp/display.h ****  *  
 213:libDaisy/src/hid/disp/display.h ****  */
 214:libDaisy/src/hid/disp/display.h **** template <class ChildType>
 215:libDaisy/src/hid/disp/display.h **** class OneBitGraphicsDisplayImpl : public OneBitGraphicsDisplay
 216:libDaisy/src/hid/disp/display.h **** {
 217:libDaisy/src/hid/disp/display.h ****   public:
 218:libDaisy/src/hid/disp/display.h ****     OneBitGraphicsDisplayImpl() {}
 219:libDaisy/src/hid/disp/display.h ****     virtual ~OneBitGraphicsDisplayImpl() {}
  42              		.loc 3 219 13 view .LVU2
  43              	.LBB584:
  44              	.LBI584:
  23:libDaisy/src/hid/disp/display.h **** 
  45              		.loc 3 23 13 view .LVU3
  23:libDaisy/src/hid/disp/display.h **** 
  46              		.loc 3 23 13 is_stmt 0 view .LVU4
  47              	.LBE584:
  48              	.LBE583:
  49              	.LBE582:
  50              	.LBB585:
  51              	.LBI585:
  52              		.file 4 "libDaisy/src/per/sdmmc.h"
   1:libDaisy/src/per/sdmmc.h **** /*
   2:libDaisy/src/per/sdmmc.h **** TODO: 
   3:libDaisy/src/per/sdmmc.h **** - Implement configuration (currently all settings are fixed).
   4:libDaisy/src/per/sdmmc.h **** */
   5:libDaisy/src/per/sdmmc.h **** #pragma once
   6:libDaisy/src/per/sdmmc.h **** #ifndef DSY_SDMMC_H
   7:libDaisy/src/per/sdmmc.h **** #define DSY_SDMMC_H /**< macro */
   8:libDaisy/src/per/sdmmc.h **** 
   9:libDaisy/src/per/sdmmc.h **** #include <stdint.h>
  10:libDaisy/src/per/sdmmc.h **** 
  11:libDaisy/src/per/sdmmc.h **** 
  12:libDaisy/src/per/sdmmc.h **** namespace daisy
  13:libDaisy/src/per/sdmmc.h **** {
  14:libDaisy/src/per/sdmmc.h **** /** @ingroup peripheral
  15:libDaisy/src/per/sdmmc.h ****     @{
  16:libDaisy/src/per/sdmmc.h ****     */
  17:libDaisy/src/per/sdmmc.h **** 
  18:libDaisy/src/per/sdmmc.h **** /** Configuration for interfacing with SD cards.
  19:libDaisy/src/per/sdmmc.h ****  *  Currently only supports operation using FatFS filesystem
  20:libDaisy/src/per/sdmmc.h ****  * 
  21:libDaisy/src/per/sdmmc.h ****  *  Only SDMMC1 is supported at this time.
  22:libDaisy/src/per/sdmmc.h ****  *
  23:libDaisy/src/per/sdmmc.h ****  *  Pins are fixed to the following:
  24:libDaisy/src/per/sdmmc.h ****  *  PC12 - SDMMC1 CK
  25:libDaisy/src/per/sdmmc.h ****  *  PD2  - SDMMC1 CMD
  26:libDaisy/src/per/sdmmc.h ****  *  PC8  - SDMMC1 D0
  27:libDaisy/src/per/sdmmc.h ****  *  PC9  - SDMMC1 D1 (optional)
ARM GAS  C:\Users\yaman\AppData\Local\Temp\ccCu6FW5.s 			page 7


  28:libDaisy/src/per/sdmmc.h ****  *  PC10 - SDMMC1 D2 (optional)
  29:libDaisy/src/per/sdmmc.h ****  *  PC11 - SDMMC1 D3 (optional)
  30:libDaisy/src/per/sdmmc.h **** */
  31:libDaisy/src/per/sdmmc.h **** class SdmmcHandler
  32:libDaisy/src/per/sdmmc.h **** {
  33:libDaisy/src/per/sdmmc.h ****   public:
  34:libDaisy/src/per/sdmmc.h ****     /** Return values for the SdmmcHandler class */
  35:libDaisy/src/per/sdmmc.h ****     enum class Result
  36:libDaisy/src/per/sdmmc.h ****     {
  37:libDaisy/src/per/sdmmc.h ****         OK,
  38:libDaisy/src/per/sdmmc.h ****         ERROR,
  39:libDaisy/src/per/sdmmc.h ****     };
  40:libDaisy/src/per/sdmmc.h **** 
  41:libDaisy/src/per/sdmmc.h ****     /** Sets whether 4-bit mode or 1-bit mode is used for the SDMMC */
  42:libDaisy/src/per/sdmmc.h ****     enum class BusWidth
  43:libDaisy/src/per/sdmmc.h ****     {
  44:libDaisy/src/per/sdmmc.h ****         BITS_1, /**< Only 1 bit of data per clock is transferred */
  45:libDaisy/src/per/sdmmc.h ****         BITS_4, /**< 4-bits of parallel data for each clock pulse */
  46:libDaisy/src/per/sdmmc.h ****     };
  47:libDaisy/src/per/sdmmc.h **** 
  48:libDaisy/src/per/sdmmc.h ****     /** 
  49:libDaisy/src/per/sdmmc.h ****     Sets the desired clock speed of the SD card bus. \n 
  50:libDaisy/src/per/sdmmc.h ****     Initialization is always done at or below 400kHz, and then the user speed is set.
  51:libDaisy/src/per/sdmmc.h ****     */
  52:libDaisy/src/per/sdmmc.h ****     enum class Speed
  53:libDaisy/src/per/sdmmc.h ****     {
  54:libDaisy/src/per/sdmmc.h ****         SLOW, /**< 400kHz, initialization  performed at this rate, before moving to user value */
  55:libDaisy/src/per/sdmmc.h ****         MEDIUM_SLOW, /**< 12.5MHz - half of standard rate */
  56:libDaisy/src/per/sdmmc.h ****         STANDARD,    /**< 25MHz - DS (Default Speed for SDMMC) */
  57:libDaisy/src/per/sdmmc.h ****         FAST,        /**< 50MHz - HS (High Speed signaling) */
  58:libDaisy/src/per/sdmmc.h ****         VERY_FAST, /**< 100MHz - SDR50 Overclocked rate for maximum transfer rates */
  59:libDaisy/src/per/sdmmc.h ****     };
  60:libDaisy/src/per/sdmmc.h **** 
  61:libDaisy/src/per/sdmmc.h ****     struct Config
  62:libDaisy/src/per/sdmmc.h ****     {
  63:libDaisy/src/per/sdmmc.h ****         Speed    speed;
  64:libDaisy/src/per/sdmmc.h ****         BusWidth width;
  65:libDaisy/src/per/sdmmc.h ****         bool
  66:libDaisy/src/per/sdmmc.h ****             clock_powersave; /**< When true, the clock will stop between transfers to save power. *
  67:libDaisy/src/per/sdmmc.h **** 
  68:libDaisy/src/per/sdmmc.h ****         /** Configures settings to their default settings */
  69:libDaisy/src/per/sdmmc.h ****         void Defaults()
  70:libDaisy/src/per/sdmmc.h ****         {
  71:libDaisy/src/per/sdmmc.h ****             speed           = Speed::FAST;
  72:libDaisy/src/per/sdmmc.h ****             width           = BusWidth::BITS_4;
  73:libDaisy/src/per/sdmmc.h ****             clock_powersave = false;
  74:libDaisy/src/per/sdmmc.h ****         }
  75:libDaisy/src/per/sdmmc.h ****     };
  76:libDaisy/src/per/sdmmc.h **** 
  77:libDaisy/src/per/sdmmc.h ****     SdmmcHandler() {}
  78:libDaisy/src/per/sdmmc.h ****     ~SdmmcHandler() {}
  53              		.loc 4 78 5 is_stmt 1 view .LVU5
  54              		.loc 4 78 5 is_stmt 0 view .LVU6
  55              	.LBE585:
  56              	.LBB586:
  57              	.LBI586:
  58              		.file 5 "libDaisy/src/hid/midi.h"
ARM GAS  C:\Users\yaman\AppData\Local\Temp\ccCu6FW5.s 			page 8


   1:libDaisy/src/hid/midi.h **** #pragma once
   2:libDaisy/src/hid/midi.h **** #ifndef DSY_MIDI_H
   3:libDaisy/src/hid/midi.h **** #define DSY_MIDI_H
   4:libDaisy/src/hid/midi.h **** 
   5:libDaisy/src/hid/midi.h **** // TODO: make this adjustable
   6:libDaisy/src/hid/midi.h **** #define SYSEX_BUFFER_LEN 128
   7:libDaisy/src/hid/midi.h **** 
   8:libDaisy/src/hid/midi.h **** #include <stdint.h>
   9:libDaisy/src/hid/midi.h **** #include <stdlib.h>
  10:libDaisy/src/hid/midi.h **** #include "per/uart.h"
  11:libDaisy/src/hid/midi.h **** #include "util/ringbuffer.h"
  12:libDaisy/src/hid/midi.h **** #include "hid/MidiEvent.h"
  13:libDaisy/src/hid/midi.h **** #include "hid/usb_midi.h"
  14:libDaisy/src/hid/midi.h **** #include "sys/system.h"
  15:libDaisy/src/hid/midi.h **** 
  16:libDaisy/src/hid/midi.h **** namespace daisy
  17:libDaisy/src/hid/midi.h **** {
  18:libDaisy/src/hid/midi.h **** /** @brief   Transport layer for sending and receiving MIDI data over UART 
  19:libDaisy/src/hid/midi.h ****  *  @details This is the mode of communication used for TRS and DIN MIDI
  20:libDaisy/src/hid/midi.h ****  *  @ingroup midi
  21:libDaisy/src/hid/midi.h **** */
  22:libDaisy/src/hid/midi.h **** class MidiUartTransport
  23:libDaisy/src/hid/midi.h **** {
  24:libDaisy/src/hid/midi.h ****   public:
  25:libDaisy/src/hid/midi.h ****     MidiUartTransport() {}
  26:libDaisy/src/hid/midi.h ****     ~MidiUartTransport() {}
  27:libDaisy/src/hid/midi.h **** 
  28:libDaisy/src/hid/midi.h ****     struct Config
  29:libDaisy/src/hid/midi.h ****     {
  30:libDaisy/src/hid/midi.h ****         UartHandler::Config::Peripheral periph;
  31:libDaisy/src/hid/midi.h ****         dsy_gpio_pin                    rx;
  32:libDaisy/src/hid/midi.h ****         dsy_gpio_pin                    tx;
  33:libDaisy/src/hid/midi.h **** 
  34:libDaisy/src/hid/midi.h ****         Config()
  35:libDaisy/src/hid/midi.h ****         {
  36:libDaisy/src/hid/midi.h ****             periph = UartHandler::Config::Peripheral::USART_1;
  37:libDaisy/src/hid/midi.h ****             rx     = {DSY_GPIOB, 7};
  38:libDaisy/src/hid/midi.h ****             tx     = {DSY_GPIOB, 6};
  39:libDaisy/src/hid/midi.h ****         }
  40:libDaisy/src/hid/midi.h ****     };
  41:libDaisy/src/hid/midi.h **** 
  42:libDaisy/src/hid/midi.h ****     inline void Init(Config config)
  43:libDaisy/src/hid/midi.h ****     {
  44:libDaisy/src/hid/midi.h ****         UartHandler::Config uart_config;
  45:libDaisy/src/hid/midi.h **** 
  46:libDaisy/src/hid/midi.h ****         //defaults
  47:libDaisy/src/hid/midi.h ****         uart_config.baudrate   = 31250;
  48:libDaisy/src/hid/midi.h ****         uart_config.stopbits   = UartHandler::Config::StopBits::BITS_1;
  49:libDaisy/src/hid/midi.h ****         uart_config.parity     = UartHandler::Config::Parity::NONE;
  50:libDaisy/src/hid/midi.h ****         uart_config.mode       = UartHandler::Config::Mode::TX_RX;
  51:libDaisy/src/hid/midi.h ****         uart_config.wordlength = UartHandler::Config::WordLength::BITS_8;
  52:libDaisy/src/hid/midi.h **** 
  53:libDaisy/src/hid/midi.h ****         //user settings
  54:libDaisy/src/hid/midi.h ****         uart_config.periph        = config.periph;
  55:libDaisy/src/hid/midi.h ****         uart_config.pin_config.rx = config.rx;
  56:libDaisy/src/hid/midi.h ****         uart_config.pin_config.tx = config.tx;
  57:libDaisy/src/hid/midi.h **** 
ARM GAS  C:\Users\yaman\AppData\Local\Temp\ccCu6FW5.s 			page 9


  58:libDaisy/src/hid/midi.h ****         uart_.Init(uart_config);
  59:libDaisy/src/hid/midi.h ****     }
  60:libDaisy/src/hid/midi.h **** 
  61:libDaisy/src/hid/midi.h ****     inline void    StartRx() { uart_.StartRx(); }
  62:libDaisy/src/hid/midi.h ****     inline size_t  Readable() { return uart_.Readable(); }
  63:libDaisy/src/hid/midi.h ****     inline uint8_t Rx() { return uart_.PopRx(); }
  64:libDaisy/src/hid/midi.h ****     inline bool    RxActive() { return uart_.RxActive(); }
  65:libDaisy/src/hid/midi.h ****     inline void    FlushRx() { uart_.FlushRx(); }
  66:libDaisy/src/hid/midi.h ****     inline void    Tx(uint8_t* buff, size_t size) { uart_.PollTx(buff, size); }
  67:libDaisy/src/hid/midi.h **** 
  68:libDaisy/src/hid/midi.h ****   private:
  69:libDaisy/src/hid/midi.h ****     UartHandler uart_;
  70:libDaisy/src/hid/midi.h **** };
  71:libDaisy/src/hid/midi.h **** 
  72:libDaisy/src/hid/midi.h **** /** 
  73:libDaisy/src/hid/midi.h ****     @brief Simple MIDI Handler \n 
  74:libDaisy/src/hid/midi.h ****     Parses bytes from an input into valid MidiEvents. \n 
  75:libDaisy/src/hid/midi.h ****     The MidiEvents fill a FIFO queue that the user can pop messages from.
  76:libDaisy/src/hid/midi.h ****     @author shensley
  77:libDaisy/src/hid/midi.h ****     @date March 2020
  78:libDaisy/src/hid/midi.h ****     @ingroup midi
  79:libDaisy/src/hid/midi.h **** */
  80:libDaisy/src/hid/midi.h **** template <typename Transport>
  81:libDaisy/src/hid/midi.h **** class MidiHandler
  82:libDaisy/src/hid/midi.h **** {
  83:libDaisy/src/hid/midi.h ****   public:
  84:libDaisy/src/hid/midi.h ****     MidiHandler() {}
  85:libDaisy/src/hid/midi.h ****     ~MidiHandler() {}
  59              		.loc 5 85 5 is_stmt 1 view .LVU7
  60              	.LBB587:
  61              	.LBI587:
  26:libDaisy/src/hid/midi.h **** 
  62              		.loc 5 26 5 view .LVU8
  26:libDaisy/src/hid/midi.h **** 
  63              		.loc 5 26 5 is_stmt 0 view .LVU9
  64              	.LBE587:
  65              	.LBE586:
  66              	.LBB588:
  67              	.LBI588:
  68              		.file 6 "libDaisy/src/hid/encoder.h"
   1:libDaisy/src/hid/encoder.h **** #pragma once
   2:libDaisy/src/hid/encoder.h **** #ifndef DSY_ENCODER_H
   3:libDaisy/src/hid/encoder.h **** #define DSY_ENCODER_H
   4:libDaisy/src/hid/encoder.h **** #include "daisy_core.h"
   5:libDaisy/src/hid/encoder.h **** #include "per/gpio.h"
   6:libDaisy/src/hid/encoder.h **** #include "hid/switch.h"
   7:libDaisy/src/hid/encoder.h **** 
   8:libDaisy/src/hid/encoder.h **** namespace daisy
   9:libDaisy/src/hid/encoder.h **** {
  10:libDaisy/src/hid/encoder.h **** /** 
  11:libDaisy/src/hid/encoder.h ****     @brief Generic Class for handling Quadrature Encoders \n 
  12:libDaisy/src/hid/encoder.h ****     Inspired/influenced by Mutable Instruments (pichenettes) Encoder classes
  13:libDaisy/src/hid/encoder.h ****     @author Stephen Hensley
  14:libDaisy/src/hid/encoder.h ****     @date December 2019
  15:libDaisy/src/hid/encoder.h ****     @ingroup controls
  16:libDaisy/src/hid/encoder.h **** */
  17:libDaisy/src/hid/encoder.h **** class Encoder
ARM GAS  C:\Users\yaman\AppData\Local\Temp\ccCu6FW5.s 			page 10


  18:libDaisy/src/hid/encoder.h **** {
  19:libDaisy/src/hid/encoder.h ****   public:
  20:libDaisy/src/hid/encoder.h ****     Encoder() {}
  21:libDaisy/src/hid/encoder.h ****     ~Encoder() {}
  69              		.loc 6 21 5 is_stmt 1 view .LVU10
  70              	.LBB589:
  71              	.LBI589:
  72              		.file 7 "libDaisy/src/hid/switch.h"
   1:libDaisy/src/hid/switch.h **** #pragma once
   2:libDaisy/src/hid/switch.h **** #ifndef DSY_SWITCH_H
   3:libDaisy/src/hid/switch.h **** #define DSY_SWITCH_H
   4:libDaisy/src/hid/switch.h **** #include "daisy_core.h"
   5:libDaisy/src/hid/switch.h **** #include "per/gpio.h"
   6:libDaisy/src/hid/switch.h **** #include "sys/system.h"
   7:libDaisy/src/hid/switch.h **** 
   8:libDaisy/src/hid/switch.h **** namespace daisy
   9:libDaisy/src/hid/switch.h **** {
  10:libDaisy/src/hid/switch.h **** /** 
  11:libDaisy/src/hid/switch.h ****     Generic Class for handling momentary/latching switches \n 
  12:libDaisy/src/hid/switch.h ****     Inspired/influenced by Mutable Instruments (pichenettes) Switch classes
  13:libDaisy/src/hid/switch.h ****     @author Stephen Hensley
  14:libDaisy/src/hid/switch.h ****     @date December 2019
  15:libDaisy/src/hid/switch.h ****     @ingroup controls
  16:libDaisy/src/hid/switch.h **** */
  17:libDaisy/src/hid/switch.h **** class Switch
  18:libDaisy/src/hid/switch.h **** {
  19:libDaisy/src/hid/switch.h ****   public:
  20:libDaisy/src/hid/switch.h ****     /** Specifies the expected behavior of the switch */
  21:libDaisy/src/hid/switch.h ****     enum Type
  22:libDaisy/src/hid/switch.h ****     {
  23:libDaisy/src/hid/switch.h ****         TYPE_TOGGLE,    /**< & */
  24:libDaisy/src/hid/switch.h ****         TYPE_MOMENTARY, /**< & */
  25:libDaisy/src/hid/switch.h ****     };
  26:libDaisy/src/hid/switch.h ****     /** Specifies whether the pressed is HIGH or LOW. */
  27:libDaisy/src/hid/switch.h ****     enum Polarity
  28:libDaisy/src/hid/switch.h ****     {
  29:libDaisy/src/hid/switch.h ****         POLARITY_NORMAL,   /**< & */
  30:libDaisy/src/hid/switch.h ****         POLARITY_INVERTED, /**< & */
  31:libDaisy/src/hid/switch.h ****     };
  32:libDaisy/src/hid/switch.h **** 
  33:libDaisy/src/hid/switch.h ****     /** Specifies whether to use built-in Pull Up/Down resistors to hold button at a given state wh
  34:libDaisy/src/hid/switch.h ****     enum Pull
  35:libDaisy/src/hid/switch.h ****     {
  36:libDaisy/src/hid/switch.h ****         PULL_UP,   /**< & */
  37:libDaisy/src/hid/switch.h ****         PULL_DOWN, /**< & */
  38:libDaisy/src/hid/switch.h ****         PULL_NONE, /**< & */
  39:libDaisy/src/hid/switch.h ****     };
  40:libDaisy/src/hid/switch.h **** 
  41:libDaisy/src/hid/switch.h ****     Switch() {}
  42:libDaisy/src/hid/switch.h ****     ~Switch() {}
  73              		.loc 7 42 5 view .LVU11
  74              		.loc 7 42 5 is_stmt 0 view .LVU12
  75              	.LBE589:
  76              	.LBE588:
  77              	.LBB590:
  78              	.LBI590:
  79              		.file 8 "libDaisy/src/daisy_seed.h"
ARM GAS  C:\Users\yaman\AppData\Local\Temp\ccCu6FW5.s 			page 11


   1:libDaisy/src/daisy_seed.h **** #pragma once
   2:libDaisy/src/daisy_seed.h **** #ifndef DSY_SEED_H
   3:libDaisy/src/daisy_seed.h **** #define DSY_SEED_H
   4:libDaisy/src/daisy_seed.h **** 
   5:libDaisy/src/daisy_seed.h **** #include "daisy.h"
   6:libDaisy/src/daisy_seed.h **** 
   7:libDaisy/src/daisy_seed.h **** //Uncomment this out if you're still using the rev2 hardware
   8:libDaisy/src/daisy_seed.h **** //#define SEED_REV2
   9:libDaisy/src/daisy_seed.h **** 
  10:libDaisy/src/daisy_seed.h **** namespace daisy
  11:libDaisy/src/daisy_seed.h **** {
  12:libDaisy/src/daisy_seed.h **** /**
  13:libDaisy/src/daisy_seed.h ****    @brief This is the higher-level interface for the Daisy board. \n 
  14:libDaisy/src/daisy_seed.h ****     All basic peripheral configuration/initialization is setup here. \n
  15:libDaisy/src/daisy_seed.h **** 
  16:libDaisy/src/daisy_seed.h ****    @ingroup boards
  17:libDaisy/src/daisy_seed.h **** */
  18:libDaisy/src/daisy_seed.h **** class DaisySeed
  19:libDaisy/src/daisy_seed.h **** {
  20:libDaisy/src/daisy_seed.h ****   public:
  21:libDaisy/src/daisy_seed.h ****     DaisySeed() {}
  22:libDaisy/src/daisy_seed.h ****     ~DaisySeed() {}
  80              		.loc 8 22 5 is_stmt 1 view .LVU13
  81              	.LBB591:
  82              	.LBI591:
  83              		.file 9 "libDaisy/src/sys/system.h"
   1:libDaisy/src/sys/system.h **** #ifndef DSY_SYSTEM_H
   2:libDaisy/src/sys/system.h **** #define DSY_SYSTEM_H
   3:libDaisy/src/sys/system.h **** 
   4:libDaisy/src/sys/system.h **** #ifndef UNIT_TEST // for unit tests, a dummy implementation is provided below
   5:libDaisy/src/sys/system.h **** 
   6:libDaisy/src/sys/system.h **** #include <cstdint>
   7:libDaisy/src/sys/system.h **** #include "per/tim.h"
   8:libDaisy/src/sys/system.h **** 
   9:libDaisy/src/sys/system.h **** namespace daisy
  10:libDaisy/src/sys/system.h **** {
  11:libDaisy/src/sys/system.h **** /** A handle for interacting with the Core System. 
  12:libDaisy/src/sys/system.h ****  ** This includes the Clock tree, MPU, global DMA initialization,
  13:libDaisy/src/sys/system.h ****  ** cache handling, and any other necessary global initiailzation
  14:libDaisy/src/sys/system.h ****  **
  15:libDaisy/src/sys/system.h ****  ** @author shensley
  16:libDaisy/src/sys/system.h ****  ** @ingroup system
  17:libDaisy/src/sys/system.h ****  */
  18:libDaisy/src/sys/system.h **** class System
  19:libDaisy/src/sys/system.h **** {
  20:libDaisy/src/sys/system.h ****   public:
  21:libDaisy/src/sys/system.h ****     /** Contains settings for initializing the System */
  22:libDaisy/src/sys/system.h ****     struct Config
  23:libDaisy/src/sys/system.h ****     {
  24:libDaisy/src/sys/system.h ****         /** Specifies the system clock frequency that feeds APB/AHB clocks, etc. */
  25:libDaisy/src/sys/system.h ****         enum class SysClkFreq
  26:libDaisy/src/sys/system.h ****         {
  27:libDaisy/src/sys/system.h ****             FREQ_400MHZ,
  28:libDaisy/src/sys/system.h ****             FREQ_480MHZ,
  29:libDaisy/src/sys/system.h ****         };
  30:libDaisy/src/sys/system.h **** 
  31:libDaisy/src/sys/system.h ****         /** Method to call on the struct to set to defaults
ARM GAS  C:\Users\yaman\AppData\Local\Temp\ccCu6FW5.s 			page 12


  32:libDaisy/src/sys/system.h ****          ** CPU Freq set to 400MHz
  33:libDaisy/src/sys/system.h ****          ** Cache Enabled 
  34:libDaisy/src/sys/system.h ****          ** */
  35:libDaisy/src/sys/system.h ****         void Defaults()
  36:libDaisy/src/sys/system.h ****         {
  37:libDaisy/src/sys/system.h ****             cpu_freq    = SysClkFreq::FREQ_400MHZ;
  38:libDaisy/src/sys/system.h ****             use_dcache  = true;
  39:libDaisy/src/sys/system.h ****             use_icache  = true;
  40:libDaisy/src/sys/system.h ****             skip_clocks = false;
  41:libDaisy/src/sys/system.h ****         }
  42:libDaisy/src/sys/system.h **** 
  43:libDaisy/src/sys/system.h ****         /** Method to call on the struct to set to boost mode:
  44:libDaisy/src/sys/system.h ****          ** CPU Freq set to 480MHz
  45:libDaisy/src/sys/system.h ****          ** Cache Enabled 
  46:libDaisy/src/sys/system.h ****          ** */
  47:libDaisy/src/sys/system.h ****         void Boost()
  48:libDaisy/src/sys/system.h ****         {
  49:libDaisy/src/sys/system.h ****             cpu_freq    = SysClkFreq::FREQ_480MHZ;
  50:libDaisy/src/sys/system.h ****             use_dcache  = true;
  51:libDaisy/src/sys/system.h ****             use_icache  = true;
  52:libDaisy/src/sys/system.h ****             skip_clocks = false;
  53:libDaisy/src/sys/system.h ****         }
  54:libDaisy/src/sys/system.h **** 
  55:libDaisy/src/sys/system.h ****         SysClkFreq cpu_freq;
  56:libDaisy/src/sys/system.h ****         bool       use_dcache;
  57:libDaisy/src/sys/system.h ****         bool       use_icache;
  58:libDaisy/src/sys/system.h ****         bool       skip_clocks;
  59:libDaisy/src/sys/system.h ****     };
  60:libDaisy/src/sys/system.h **** 
  61:libDaisy/src/sys/system.h ****     /** Describes the different regions of memory available to the Daisy
  62:libDaisy/src/sys/system.h ****      * 
  63:libDaisy/src/sys/system.h ****      */
  64:libDaisy/src/sys/system.h ****     enum MemoryRegion
  65:libDaisy/src/sys/system.h ****     {
  66:libDaisy/src/sys/system.h ****         INTERNAL_FLASH = 0,
  67:libDaisy/src/sys/system.h ****         ITCMRAM,
  68:libDaisy/src/sys/system.h ****         DTCMRAM,
  69:libDaisy/src/sys/system.h ****         SRAM_D1,
  70:libDaisy/src/sys/system.h ****         SRAM_D2,
  71:libDaisy/src/sys/system.h ****         SRAM_D3,
  72:libDaisy/src/sys/system.h ****         SDRAM,
  73:libDaisy/src/sys/system.h ****         QSPI,
  74:libDaisy/src/sys/system.h ****         INVALID_ADDRESS,
  75:libDaisy/src/sys/system.h ****     };
  76:libDaisy/src/sys/system.h **** 
  77:libDaisy/src/sys/system.h ****     System() {}
  78:libDaisy/src/sys/system.h ****     ~System() {}
  84              		.loc 9 78 5 view .LVU14
  85              		.loc 9 78 5 is_stmt 0 view .LVU15
  86              	.LBE591:
  87              	.LBB592:
  88              	.LBI592:
  89              		.file 10 "libDaisy/src/hid/usb.h"
   1:libDaisy/src/hid/usb.h **** #pragma once
   2:libDaisy/src/hid/usb.h **** #ifndef DSY_HID_USB_H
   3:libDaisy/src/hid/usb.h **** #define DSY_HID_USB_H
   4:libDaisy/src/hid/usb.h **** #include <stdint.h>
ARM GAS  C:\Users\yaman\AppData\Local\Temp\ccCu6FW5.s 			page 13


   5:libDaisy/src/hid/usb.h **** #include <stdlib.h>
   6:libDaisy/src/hid/usb.h **** 
   7:libDaisy/src/hid/usb.h **** namespace daisy
   8:libDaisy/src/hid/usb.h **** /** @addtogroup human_interface
   9:libDaisy/src/hid/usb.h ****     @{
  10:libDaisy/src/hid/usb.h **** */
  11:libDaisy/src/hid/usb.h **** 
  12:libDaisy/src/hid/usb.h **** {
  13:libDaisy/src/hid/usb.h **** /** 
  14:libDaisy/src/hid/usb.h ****     @brief Interface for initializing and using the USB Peripherals on the daisy
  15:libDaisy/src/hid/usb.h ****     @author Stephen Hensley
  16:libDaisy/src/hid/usb.h ****     @date December 2019
  17:libDaisy/src/hid/usb.h **** */
  18:libDaisy/src/hid/usb.h **** class UsbHandle
  19:libDaisy/src/hid/usb.h **** {
  20:libDaisy/src/hid/usb.h ****   public:
  21:libDaisy/src/hid/usb.h ****     /** Return values for USBHandle Functions */
  22:libDaisy/src/hid/usb.h ****     enum class Result
  23:libDaisy/src/hid/usb.h ****     {
  24:libDaisy/src/hid/usb.h ****         OK,
  25:libDaisy/src/hid/usb.h ****         ERR,
  26:libDaisy/src/hid/usb.h ****     };
  27:libDaisy/src/hid/usb.h **** 
  28:libDaisy/src/hid/usb.h ****     /** Specified which of the two USB Peripherals to initialize. */
  29:libDaisy/src/hid/usb.h ****     enum UsbPeriph
  30:libDaisy/src/hid/usb.h ****     {
  31:libDaisy/src/hid/usb.h ****         FS_INTERNAL, /**< Internal pin */
  32:libDaisy/src/hid/usb.h ****         FS_EXTERNAL, /**< FS External D+ pin is Pin 38 (GPIO32). FS External D- pin is Pin 37 (GPIO
  33:libDaisy/src/hid/usb.h ****         FS_BOTH,     /**< Both */
  34:libDaisy/src/hid/usb.h ****     };
  35:libDaisy/src/hid/usb.h **** 
  36:libDaisy/src/hid/usb.h **** 
  37:libDaisy/src/hid/usb.h ****     /** Function called upon reception of a buffer */
  38:libDaisy/src/hid/usb.h ****     typedef void (*ReceiveCallback)(uint8_t* buff, uint32_t* len);
  39:libDaisy/src/hid/usb.h **** 
  40:libDaisy/src/hid/usb.h ****     UsbHandle() {}
  41:libDaisy/src/hid/usb.h **** 
  42:libDaisy/src/hid/usb.h ****     ~UsbHandle() {}
  90              		.loc 10 42 5 is_stmt 1 view .LVU16
  91              		.loc 10 42 5 is_stmt 0 view .LVU17
  92              	.LBE592:
  93              	.LBB593:
  94              	.LBI593:
  95              		.file 11 "libDaisy/src/per/adc.h"
   1:libDaisy/src/per/adc.h **** #pragma once
   2:libDaisy/src/per/adc.h **** #ifndef DSY_ADC_H
   3:libDaisy/src/per/adc.h **** #define DSY_ADC_H /**< Macro */
   4:libDaisy/src/per/adc.h **** #include <stdint.h>
   5:libDaisy/src/per/adc.h **** #include <stdlib.h>
   6:libDaisy/src/per/adc.h **** #include "daisy_core.h"
   7:libDaisy/src/per/adc.h **** #include "per/gpio.h"
   8:libDaisy/src/per/adc.h **** 
   9:libDaisy/src/per/adc.h **** #define DSY_ADC_MAX_CHANNELS 16 /**< Maximum number of ADC channels */
  10:libDaisy/src/per/adc.h **** 
  11:libDaisy/src/per/adc.h **** namespace daisy
  12:libDaisy/src/per/adc.h **** {
  13:libDaisy/src/per/adc.h **** /** @addtogroup per_analog
ARM GAS  C:\Users\yaman\AppData\Local\Temp\ccCu6FW5.s 			page 14


  14:libDaisy/src/per/adc.h ****     @{
  15:libDaisy/src/per/adc.h **** */
  16:libDaisy/src/per/adc.h **** 
  17:libDaisy/src/per/adc.h **** /* While there may not be many configuration options here,
  18:libDaisy/src/per/adc.h **** using a struct like this allows us to add more configuration
  19:libDaisy/src/per/adc.h **** later without breaking existing functionality.
  20:libDaisy/src/per/adc.h **** */
  21:libDaisy/src/per/adc.h **** 
  22:libDaisy/src/per/adc.h **** /** @brief   Configuration Structure for an ADC Channel 
  23:libDaisy/src/per/adc.h ****  *  @details This can be used to configure a a single input, 
  24:libDaisy/src/per/adc.h ****  *           or a multiplexed input, allowing up to 8 inputs on 
  25:libDaisy/src/per/adc.h ****  *           one channel.
  26:libDaisy/src/per/adc.h ****  *  @note    Sharing data lines to multiple muxes _is_ possible, but
  27:libDaisy/src/per/adc.h ****  *           each channel sharing data lines must be set to the maximum
  28:libDaisy/src/per/adc.h ****  *           number of channels, even if some multiplexers have fewer
  29:libDaisy/src/per/adc.h ****  *           inputs connected.
  30:libDaisy/src/per/adc.h **** */
  31:libDaisy/src/per/adc.h **** struct AdcChannelConfig
  32:libDaisy/src/per/adc.h **** {
  33:libDaisy/src/per/adc.h ****     /** Which pin to use for multiplexing */
  34:libDaisy/src/per/adc.h ****     enum MuxPin
  35:libDaisy/src/per/adc.h ****     {
  36:libDaisy/src/per/adc.h ****         MUX_SEL_0,    /**< & */
  37:libDaisy/src/per/adc.h ****         MUX_SEL_1,    /**< & */
  38:libDaisy/src/per/adc.h ****         MUX_SEL_2,    /**< & */
  39:libDaisy/src/per/adc.h ****         MUX_SEL_LAST, /**< & */
  40:libDaisy/src/per/adc.h ****     };
  41:libDaisy/src/per/adc.h **** 
  42:libDaisy/src/per/adc.h ****     /** Initializes a single ADC pin as an ADC. 
  43:libDaisy/src/per/adc.h ****     \param pin Pin to init.
  44:libDaisy/src/per/adc.h ****      */
  45:libDaisy/src/per/adc.h ****     void InitSingle(dsy_gpio_pin pin);
  46:libDaisy/src/per/adc.h **** 
  47:libDaisy/src/per/adc.h ****     /** 
  48:libDaisy/src/per/adc.h ****     Initializes a single ADC pin as a Multiplexed ADC.
  49:libDaisy/src/per/adc.h ****     Requires a CD405X Multiplexer connected to the pin.
  50:libDaisy/src/per/adc.h ****     You only need to supply the mux pins that are required,
  51:libDaisy/src/per/adc.h ****     e.g. a 4052 mux would only require mux_0 and mux_1.
  52:libDaisy/src/per/adc.h ****     Internal Callbacks handle the pin addressing.
  53:libDaisy/src/per/adc.h ****     \param mux_channels must be 1-8
  54:libDaisy/src/per/adc.h ****     \param mux_0 First mux pin
  55:libDaisy/src/per/adc.h ****     \param mux_1 Second mux pin
  56:libDaisy/src/per/adc.h ****     \param mux_2 Third mux pin
  57:libDaisy/src/per/adc.h ****     \param adc_pin &
  58:libDaisy/src/per/adc.h ****     */
  59:libDaisy/src/per/adc.h ****     void InitMux(dsy_gpio_pin adc_pin,
  60:libDaisy/src/per/adc.h ****                  size_t       mux_channels,
  61:libDaisy/src/per/adc.h ****                  dsy_gpio_pin mux_0,
  62:libDaisy/src/per/adc.h ****                  dsy_gpio_pin mux_1 = {DSY_GPIOX, 0},
  63:libDaisy/src/per/adc.h ****                  dsy_gpio_pin mux_2 = {DSY_GPIOX, 0});
  64:libDaisy/src/per/adc.h **** 
  65:libDaisy/src/per/adc.h ****     dsy_gpio pin_;                   /**< & */
  66:libDaisy/src/per/adc.h ****     dsy_gpio mux_pin_[MUX_SEL_LAST]; /**< & */
  67:libDaisy/src/per/adc.h ****     uint8_t  mux_channels_;          /**< & */
  68:libDaisy/src/per/adc.h **** };
  69:libDaisy/src/per/adc.h **** 
  70:libDaisy/src/per/adc.h **** /**
ARM GAS  C:\Users\yaman\AppData\Local\Temp\ccCu6FW5.s 			page 15


  71:libDaisy/src/per/adc.h ****    @brief Handler for analog to digital conversion
  72:libDaisy/src/per/adc.h **** */
  73:libDaisy/src/per/adc.h **** class AdcHandle
  74:libDaisy/src/per/adc.h **** {
  75:libDaisy/src/per/adc.h ****   public:
  76:libDaisy/src/per/adc.h ****     /** Supported oversampling amounts */
  77:libDaisy/src/per/adc.h ****     enum OverSampling
  78:libDaisy/src/per/adc.h ****     {
  79:libDaisy/src/per/adc.h ****         OVS_NONE, /**< & */
  80:libDaisy/src/per/adc.h ****         OVS_4,    /**< & */
  81:libDaisy/src/per/adc.h ****         OVS_8,    /**< & */
  82:libDaisy/src/per/adc.h ****         OVS_16,   /**< & */
  83:libDaisy/src/per/adc.h ****         OVS_32,   /**< & */
  84:libDaisy/src/per/adc.h ****         OVS_64,   /**< & */
  85:libDaisy/src/per/adc.h ****         OVS_128,  /**< & */
  86:libDaisy/src/per/adc.h ****         OVS_256,  /**< & */
  87:libDaisy/src/per/adc.h ****         OVS_512,  /**< & */
  88:libDaisy/src/per/adc.h ****         OVS_1024, /**< & */
  89:libDaisy/src/per/adc.h ****         OVS_LAST, /**< & */
  90:libDaisy/src/per/adc.h ****     };
  91:libDaisy/src/per/adc.h **** 
  92:libDaisy/src/per/adc.h ****     AdcHandle() {}
  93:libDaisy/src/per/adc.h ****     ~AdcHandle() {}
  96              		.loc 11 93 5 is_stmt 1 view .LVU18
  97              		.loc 11 93 5 is_stmt 0 view .LVU19
  98              	.LBE593:
  99              	.LBB594:
 100              	.LBI594:
 101              		.file 12 "libDaisy/src/hid/audio.h"
   1:libDaisy/src/hid/audio.h **** #ifndef DSY_AUDIO_H
   2:libDaisy/src/hid/audio.h **** #define DSY_AUDIO_H /**< & */
   3:libDaisy/src/hid/audio.h **** 
   4:libDaisy/src/hid/audio.h **** #include "per/sai.h"
   5:libDaisy/src/hid/audio.h **** 
   6:libDaisy/src/hid/audio.h **** namespace daisy
   7:libDaisy/src/hid/audio.h **** {
   8:libDaisy/src/hid/audio.h **** /** @brief Audio Engine Handle
   9:libDaisy/src/hid/audio.h ****  *  @ingroup audio 
  10:libDaisy/src/hid/audio.h ****  *  @details This class allows for higher level access to an audio engine.
  11:libDaisy/src/hid/audio.h ****  *           If you're using a SOM like the DaisySeed or DaisyPatchSM (or any 
  12:libDaisy/src/hid/audio.h ****  *            board that includes one of those objects) then the intialization
  13:libDaisy/src/hid/audio.h ****  *            is already taken  care of.
  14:libDaisy/src/hid/audio.h ****  *           If you're setting up your own custom hardware, or need to make changes
  15:libDaisy/src/hid/audio.h ****  *           you will have to take the following steps:
  16:libDaisy/src/hid/audio.h ****  *             1. Create and Initialize an SaiHandle or two depending on your requirements
  17:libDaisy/src/hid/audio.h ****  *             2. Initialize the Audio Handle with the desired settings and the Initialized SaiHand
  18:libDaisy/src/hid/audio.h ****  *             3. If the connected codec requires special configuration or initialization, do so
  19:libDaisy/src/hid/audio.h ****  *             4. Write a callback method using either the AudioCallback or the InterleavingAudioCa
  20:libDaisy/src/hid/audio.h ****  *             5. Start the Audio using one of the StartAudio function
  21:libDaisy/src/hid/audio.h ****  */
  22:libDaisy/src/hid/audio.h **** class AudioHandle
  23:libDaisy/src/hid/audio.h **** {
  24:libDaisy/src/hid/audio.h ****   public:
  25:libDaisy/src/hid/audio.h ****     /** Manually configurable details about the Audio Engine */
  26:libDaisy/src/hid/audio.h ****     /** TODO: Figure out how to get samplerate in here. */
  27:libDaisy/src/hid/audio.h ****     struct Config
  28:libDaisy/src/hid/audio.h ****     {
ARM GAS  C:\Users\yaman\AppData\Local\Temp\ccCu6FW5.s 			page 16


  29:libDaisy/src/hid/audio.h ****         size_t                        blocksize;
  30:libDaisy/src/hid/audio.h ****         SaiHandle::Config::SampleRate samplerate;
  31:libDaisy/src/hid/audio.h ****         float                         postgain;
  32:libDaisy/src/hid/audio.h ****     };
  33:libDaisy/src/hid/audio.h **** 
  34:libDaisy/src/hid/audio.h ****     enum class Result
  35:libDaisy/src/hid/audio.h ****     {
  36:libDaisy/src/hid/audio.h ****         OK,
  37:libDaisy/src/hid/audio.h ****         ERR,
  38:libDaisy/src/hid/audio.h ****     };
  39:libDaisy/src/hid/audio.h **** 
  40:libDaisy/src/hid/audio.h ****     /** Non-Interleaving input buffer
  41:libDaisy/src/hid/audio.h ****      * Buffer arranged by float[chn][sample] 
  42:libDaisy/src/hid/audio.h ****      * const so that the user can't modify the input
  43:libDaisy/src/hid/audio.h ****      */
  44:libDaisy/src/hid/audio.h ****     typedef const float* const* InputBuffer;
  45:libDaisy/src/hid/audio.h **** 
  46:libDaisy/src/hid/audio.h ****     /** Non-Interleaving output buffer
  47:libDaisy/src/hid/audio.h ****      * Arranged by float[chn][sample] 
  48:libDaisy/src/hid/audio.h ****      */
  49:libDaisy/src/hid/audio.h ****     typedef float** OutputBuffer;
  50:libDaisy/src/hid/audio.h **** 
  51:libDaisy/src/hid/audio.h ****     /** Type for a Non-Interleaving audio callback 
  52:libDaisy/src/hid/audio.h ****      * Non-Interleaving audio callbacks in daisy will be of this type
  53:libDaisy/src/hid/audio.h ****      */
  54:libDaisy/src/hid/audio.h ****     typedef void (*AudioCallback)(InputBuffer  in,
  55:libDaisy/src/hid/audio.h ****                                   OutputBuffer out,
  56:libDaisy/src/hid/audio.h ****                                   size_t       size);
  57:libDaisy/src/hid/audio.h **** 
  58:libDaisy/src/hid/audio.h ****     /** Interleaving Input buffer
  59:libDaisy/src/hid/audio.h ****      ** audio is prepared as { L0, R0, L1, R1, . . . LN, RN }]
  60:libDaisy/src/hid/audio.h ****      ** this is const, as the user shouldn't modify it
  61:libDaisy/src/hid/audio.h ****     */
  62:libDaisy/src/hid/audio.h ****     typedef const float* InterleavingInputBuffer;
  63:libDaisy/src/hid/audio.h **** 
  64:libDaisy/src/hid/audio.h ****     /** Interleaving Output buffer 
  65:libDaisy/src/hid/audio.h ****      ** audio is prepared as { L0, R0, L1, R1, . . . LN, RN }
  66:libDaisy/src/hid/audio.h ****     */
  67:libDaisy/src/hid/audio.h ****     typedef float* InterleavingOutputBuffer;
  68:libDaisy/src/hid/audio.h **** 
  69:libDaisy/src/hid/audio.h ****     /** Interleaving Audio Callback 
  70:libDaisy/src/hid/audio.h ****      * Interleaving audio callbacks in daisy must be of this type
  71:libDaisy/src/hid/audio.h ****      */
  72:libDaisy/src/hid/audio.h ****     typedef void (*InterleavingAudioCallback)(InterleavingInputBuffer  in,
  73:libDaisy/src/hid/audio.h ****                                               InterleavingOutputBuffer out,
  74:libDaisy/src/hid/audio.h ****                                               size_t                   size);
  75:libDaisy/src/hid/audio.h **** 
  76:libDaisy/src/hid/audio.h ****     AudioHandle() : pimpl_(nullptr) {}
  77:libDaisy/src/hid/audio.h ****     ~AudioHandle() {}
 102              		.loc 12 77 5 is_stmt 1 view .LVU20
 103              		.loc 12 77 5 is_stmt 0 view .LVU21
 104              	.LBE594:
 105              	.LBE590:
 106              		.loc 1 25 19 view .LVU22
 107 0000 7047     		bx	lr
 108              		.cfi_endproc
 109              	.LFE4745:
ARM GAS  C:\Users\yaman\AppData\Local\Temp\ccCu6FW5.s 			page 17


 111              		.weak	_ZN4kxmx9BluemchenD1Ev
 112              		.thumb_set _ZN4kxmx9BluemchenD1Ev,_ZN4kxmx9BluemchenD2Ev
 113 0002 00BF     		.section	.text._ZN5daisy11OledDisplayINS_13SSD130xDriverILj64ELj32ENS_19SSD130xI2CTransportEEEED2E
 114              		.align	1
 115              		.p2align 2,,3
 116              		.weak	_ZN5daisy11OledDisplayINS_13SSD130xDriverILj64ELj32ENS_19SSD130xI2CTransportEEEED2Ev
 117              		.syntax unified
 118              		.thumb
 119              		.thumb_func
 120              		.fpu fpv5-d16
 122              	_ZN5daisy11OledDisplayINS_13SSD130xDriverILj64ELj32ENS_19SSD130xI2CTransportEEEED2Ev:
 123              	.LVL1:
 124              	.LFB5100:
 125              		.loc 2 18 13 is_stmt 1 view -0
 126              		.cfi_startproc
 127              		@ args = 0, pretend = 0, frame = 0
 128              		@ frame_needed = 0, uses_anonymous_args = 0
 129              		@ link register save eliminated.
 130              	.LBB595:
 131              	.LBI595:
 132              		.loc 3 219 13 view .LVU24
 133              	.LBB596:
 134              	.LBI596:
  23:libDaisy/src/hid/disp/display.h **** 
 135              		.loc 3 23 13 view .LVU25
  23:libDaisy/src/hid/disp/display.h **** 
 136              		.loc 3 23 13 is_stmt 0 view .LVU26
 137              	.LBE596:
 138              	.LBE595:
 139              		.loc 2 18 29 view .LVU27
 140 0000 7047     		bx	lr
 141              		.cfi_endproc
 142              	.LFE5100:
 144              		.weak	_ZN5daisy11OledDisplayINS_13SSD130xDriverILj64ELj32ENS_19SSD130xI2CTransportEEEED1Ev
 145              		.thumb_set _ZN5daisy11OledDisplayINS_13SSD130xDriverILj64ELj32ENS_19SSD130xI2CTransportEEEED1Ev,_Z
 146 0002 00BF     		.section	.text._ZN5daisy11OledDisplayINS_13SSD130xDriverILj64ELj32ENS_19SSD130xI2CTransportEEEE4Fi
 147              		.align	1
 148              		.p2align 2,,3
 149              		.weak	_ZN5daisy11OledDisplayINS_13SSD130xDriverILj64ELj32ENS_19SSD130xI2CTransportEEEE4FillEb
 150              		.syntax unified
 151              		.thumb
 152              		.thumb_func
 153              		.fpu fpv5-d16
 155              	_ZN5daisy11OledDisplayINS_13SSD130xDriverILj64ELj32ENS_19SSD130xI2CTransportEEEE4FillEb:
 156              	.LVL2:
 157              	.LFB5106:
  19:libDaisy/src/hid/disp/oled_display.h **** 
  20:libDaisy/src/hid/disp/oled_display.h ****     struct Config
  21:libDaisy/src/hid/disp/oled_display.h ****     {
  22:libDaisy/src/hid/disp/oled_display.h ****         typename DisplayDriver::Config driver_config;
  23:libDaisy/src/hid/disp/oled_display.h ****     };
  24:libDaisy/src/hid/disp/oled_display.h **** 
  25:libDaisy/src/hid/disp/oled_display.h ****     void Init(Config config) { driver_.Init(config.driver_config); }
  26:libDaisy/src/hid/disp/oled_display.h **** 
  27:libDaisy/src/hid/disp/oled_display.h ****     uint16_t Height() const override { return driver_.Height(); }
  28:libDaisy/src/hid/disp/oled_display.h ****     uint16_t Width() const override { return driver_.Width(); }
  29:libDaisy/src/hid/disp/oled_display.h **** 
ARM GAS  C:\Users\yaman\AppData\Local\Temp\ccCu6FW5.s 			page 18


  30:libDaisy/src/hid/disp/oled_display.h ****     /** 
  31:libDaisy/src/hid/disp/oled_display.h ****     Fills the entire display with either on/off.
  32:libDaisy/src/hid/disp/oled_display.h ****     \param on Sets on or off.
  33:libDaisy/src/hid/disp/oled_display.h ****     */
  34:libDaisy/src/hid/disp/oled_display.h ****     void Fill(bool on) override { driver_.Fill(on); }
 158              		.loc 2 34 10 is_stmt 1 view -0
 159              		.cfi_startproc
 160              		@ args = 0, pretend = 0, frame = 0
 161              		@ frame_needed = 0, uses_anonymous_args = 0
 162              		@ link register save eliminated.
 163              	.LBB597:
 164              	.LBI597:
 165              		.file 13 "libDaisy/src/dev/oled_ssd130x.h"
   1:libDaisy/src/dev/oled_ssd130x.h **** #pragma once
   2:libDaisy/src/dev/oled_ssd130x.h **** #ifndef SA_OLED_SSD130X_H
   3:libDaisy/src/dev/oled_ssd130x.h **** #define SA_OLED_SSD130X_H /**< & */
   4:libDaisy/src/dev/oled_ssd130x.h **** 
   5:libDaisy/src/dev/oled_ssd130x.h **** #include "per/i2c.h"
   6:libDaisy/src/dev/oled_ssd130x.h **** #include "per/spi.h"
   7:libDaisy/src/dev/oled_ssd130x.h **** #include "per/gpio.h"
   8:libDaisy/src/dev/oled_ssd130x.h **** #include "sys/system.h"
   9:libDaisy/src/dev/oled_ssd130x.h **** 
  10:libDaisy/src/dev/oled_ssd130x.h **** namespace daisy
  11:libDaisy/src/dev/oled_ssd130x.h **** {
  12:libDaisy/src/dev/oled_ssd130x.h **** /**
  13:libDaisy/src/dev/oled_ssd130x.h ****  * I2C Transport for SSD1306 / SSD1309 OLED display devices
  14:libDaisy/src/dev/oled_ssd130x.h ****  */
  15:libDaisy/src/dev/oled_ssd130x.h **** class SSD130xI2CTransport
  16:libDaisy/src/dev/oled_ssd130x.h **** {
  17:libDaisy/src/dev/oled_ssd130x.h ****   public:
  18:libDaisy/src/dev/oled_ssd130x.h ****     struct Config
  19:libDaisy/src/dev/oled_ssd130x.h ****     {
  20:libDaisy/src/dev/oled_ssd130x.h ****         I2CHandle::Config i2c_config;
  21:libDaisy/src/dev/oled_ssd130x.h ****         uint8_t           i2c_address;
  22:libDaisy/src/dev/oled_ssd130x.h ****         void              Defaults()
  23:libDaisy/src/dev/oled_ssd130x.h ****         {
  24:libDaisy/src/dev/oled_ssd130x.h ****             i2c_config.periph         = I2CHandle::Config::Peripheral::I2C_1;
  25:libDaisy/src/dev/oled_ssd130x.h ****             i2c_config.speed          = I2CHandle::Config::Speed::I2C_1MHZ;
  26:libDaisy/src/dev/oled_ssd130x.h ****             i2c_config.mode           = I2CHandle::Config::Mode::I2C_MASTER;
  27:libDaisy/src/dev/oled_ssd130x.h ****             i2c_config.pin_config.scl = {DSY_GPIOB, 8};
  28:libDaisy/src/dev/oled_ssd130x.h ****             i2c_config.pin_config.sda = {DSY_GPIOB, 9};
  29:libDaisy/src/dev/oled_ssd130x.h ****             i2c_address               = 0x3C;
  30:libDaisy/src/dev/oled_ssd130x.h ****         }
  31:libDaisy/src/dev/oled_ssd130x.h ****     };
  32:libDaisy/src/dev/oled_ssd130x.h ****     void Init(const Config& config)
  33:libDaisy/src/dev/oled_ssd130x.h ****     {
  34:libDaisy/src/dev/oled_ssd130x.h ****         i2c_address_ = config.i2c_address;
  35:libDaisy/src/dev/oled_ssd130x.h ****         i2c_.Init(config.i2c_config);
  36:libDaisy/src/dev/oled_ssd130x.h ****     };
  37:libDaisy/src/dev/oled_ssd130x.h ****     void SendCommand(uint8_t cmd)
  38:libDaisy/src/dev/oled_ssd130x.h ****     {
  39:libDaisy/src/dev/oled_ssd130x.h ****         uint8_t buf[2] = {0X00, cmd};
  40:libDaisy/src/dev/oled_ssd130x.h ****         i2c_.TransmitBlocking(i2c_address_, buf, 2, 1000);
  41:libDaisy/src/dev/oled_ssd130x.h ****     };
  42:libDaisy/src/dev/oled_ssd130x.h **** 
  43:libDaisy/src/dev/oled_ssd130x.h ****     void SendData(uint8_t* buff, size_t size)
  44:libDaisy/src/dev/oled_ssd130x.h ****     {
ARM GAS  C:\Users\yaman\AppData\Local\Temp\ccCu6FW5.s 			page 19


  45:libDaisy/src/dev/oled_ssd130x.h ****         for(size_t i = 0; i < size; i++)
  46:libDaisy/src/dev/oled_ssd130x.h ****         {
  47:libDaisy/src/dev/oled_ssd130x.h ****             uint8_t buf[2] = {0X40, buff[i]};
  48:libDaisy/src/dev/oled_ssd130x.h ****             i2c_.TransmitBlocking(i2c_address_, buf, 2, 1000);
  49:libDaisy/src/dev/oled_ssd130x.h ****         }
  50:libDaisy/src/dev/oled_ssd130x.h ****     };
  51:libDaisy/src/dev/oled_ssd130x.h **** 
  52:libDaisy/src/dev/oled_ssd130x.h ****   private:
  53:libDaisy/src/dev/oled_ssd130x.h ****     daisy::I2CHandle i2c_;
  54:libDaisy/src/dev/oled_ssd130x.h ****     uint8_t          i2c_address_;
  55:libDaisy/src/dev/oled_ssd130x.h **** };
  56:libDaisy/src/dev/oled_ssd130x.h **** 
  57:libDaisy/src/dev/oled_ssd130x.h **** /**
  58:libDaisy/src/dev/oled_ssd130x.h ****  * 4 Wire SPI Transport for SSD1306 / SSD1309 OLED display devices
  59:libDaisy/src/dev/oled_ssd130x.h ****  */
  60:libDaisy/src/dev/oled_ssd130x.h **** class SSD130x4WireSpiTransport
  61:libDaisy/src/dev/oled_ssd130x.h **** {
  62:libDaisy/src/dev/oled_ssd130x.h ****   public:
  63:libDaisy/src/dev/oled_ssd130x.h ****     struct Config
  64:libDaisy/src/dev/oled_ssd130x.h ****     {
  65:libDaisy/src/dev/oled_ssd130x.h ****         struct
  66:libDaisy/src/dev/oled_ssd130x.h ****         {
  67:libDaisy/src/dev/oled_ssd130x.h ****             dsy_gpio_pin dc;    /**< & */
  68:libDaisy/src/dev/oled_ssd130x.h ****             dsy_gpio_pin reset; /**< & */
  69:libDaisy/src/dev/oled_ssd130x.h ****         } pin_config;
  70:libDaisy/src/dev/oled_ssd130x.h ****         void Defaults()
  71:libDaisy/src/dev/oled_ssd130x.h ****         {
  72:libDaisy/src/dev/oled_ssd130x.h ****             pin_config.dc    = {DSY_GPIOB, 4};
  73:libDaisy/src/dev/oled_ssd130x.h ****             pin_config.reset = {DSY_GPIOB, 15};
  74:libDaisy/src/dev/oled_ssd130x.h ****         }
  75:libDaisy/src/dev/oled_ssd130x.h ****     };
  76:libDaisy/src/dev/oled_ssd130x.h ****     void Init(const Config& config)
  77:libDaisy/src/dev/oled_ssd130x.h ****     {
  78:libDaisy/src/dev/oled_ssd130x.h ****         // Initialize both GPIO
  79:libDaisy/src/dev/oled_ssd130x.h ****         pin_dc_.mode = DSY_GPIO_MODE_OUTPUT_PP;
  80:libDaisy/src/dev/oled_ssd130x.h ****         pin_dc_.pin  = config.pin_config.dc;
  81:libDaisy/src/dev/oled_ssd130x.h ****         dsy_gpio_init(&pin_dc_);
  82:libDaisy/src/dev/oled_ssd130x.h ****         pin_reset_.mode = DSY_GPIO_MODE_OUTPUT_PP;
  83:libDaisy/src/dev/oled_ssd130x.h ****         pin_reset_.pin  = config.pin_config.reset;
  84:libDaisy/src/dev/oled_ssd130x.h ****         dsy_gpio_init(&pin_reset_);
  85:libDaisy/src/dev/oled_ssd130x.h ****         // Initialize SPI
  86:libDaisy/src/dev/oled_ssd130x.h ****         SpiHandle::Config spi_config;
  87:libDaisy/src/dev/oled_ssd130x.h ****         spi_config.periph    = SpiHandle::Config::Peripheral::SPI_1;
  88:libDaisy/src/dev/oled_ssd130x.h ****         spi_config.mode      = SpiHandle::Config::Mode::MASTER;
  89:libDaisy/src/dev/oled_ssd130x.h ****         spi_config.direction = SpiHandle::Config::Direction::TWO_LINES_TX_ONLY;
  90:libDaisy/src/dev/oled_ssd130x.h ****         spi_config.datasize  = 8;
  91:libDaisy/src/dev/oled_ssd130x.h ****         spi_config.clock_polarity = SpiHandle::Config::ClockPolarity::LOW;
  92:libDaisy/src/dev/oled_ssd130x.h ****         spi_config.clock_phase    = SpiHandle::Config::ClockPhase::ONE_EDGE;
  93:libDaisy/src/dev/oled_ssd130x.h ****         spi_config.nss            = SpiHandle::Config::NSS::HARD_OUTPUT;
  94:libDaisy/src/dev/oled_ssd130x.h ****         spi_config.baud_prescaler = SpiHandle::Config::BaudPrescaler::PS_8;
  95:libDaisy/src/dev/oled_ssd130x.h **** 
  96:libDaisy/src/dev/oled_ssd130x.h ****         spi_config.pin_config.sclk = {DSY_GPIOG, 11};
  97:libDaisy/src/dev/oled_ssd130x.h ****         spi_config.pin_config.miso = {DSY_GPIOX, 0};
  98:libDaisy/src/dev/oled_ssd130x.h ****         spi_config.pin_config.mosi = {DSY_GPIOB, 5};
  99:libDaisy/src/dev/oled_ssd130x.h ****         spi_config.pin_config.nss  = {DSY_GPIOG, 10};
 100:libDaisy/src/dev/oled_ssd130x.h **** 
 101:libDaisy/src/dev/oled_ssd130x.h ****         spi_.Init(spi_config);
ARM GAS  C:\Users\yaman\AppData\Local\Temp\ccCu6FW5.s 			page 20


 102:libDaisy/src/dev/oled_ssd130x.h **** 
 103:libDaisy/src/dev/oled_ssd130x.h ****         // Reset and Configure OLED.
 104:libDaisy/src/dev/oled_ssd130x.h ****         dsy_gpio_write(&pin_reset_, 0);
 105:libDaisy/src/dev/oled_ssd130x.h ****         System::Delay(10);
 106:libDaisy/src/dev/oled_ssd130x.h ****         dsy_gpio_write(&pin_reset_, 1);
 107:libDaisy/src/dev/oled_ssd130x.h ****         System::Delay(10);
 108:libDaisy/src/dev/oled_ssd130x.h ****     };
 109:libDaisy/src/dev/oled_ssd130x.h ****     void SendCommand(uint8_t cmd)
 110:libDaisy/src/dev/oled_ssd130x.h ****     {
 111:libDaisy/src/dev/oled_ssd130x.h ****         dsy_gpio_write(&pin_dc_, 0);
 112:libDaisy/src/dev/oled_ssd130x.h ****         spi_.BlockingTransmit(&cmd, 1);
 113:libDaisy/src/dev/oled_ssd130x.h ****     };
 114:libDaisy/src/dev/oled_ssd130x.h **** 
 115:libDaisy/src/dev/oled_ssd130x.h ****     void SendData(uint8_t* buff, size_t size)
 116:libDaisy/src/dev/oled_ssd130x.h ****     {
 117:libDaisy/src/dev/oled_ssd130x.h ****         dsy_gpio_write(&pin_dc_, 1);
 118:libDaisy/src/dev/oled_ssd130x.h ****         spi_.BlockingTransmit(buff, size);
 119:libDaisy/src/dev/oled_ssd130x.h ****     };
 120:libDaisy/src/dev/oled_ssd130x.h **** 
 121:libDaisy/src/dev/oled_ssd130x.h ****   private:
 122:libDaisy/src/dev/oled_ssd130x.h ****     SpiHandle spi_;
 123:libDaisy/src/dev/oled_ssd130x.h ****     dsy_gpio  pin_reset_;
 124:libDaisy/src/dev/oled_ssd130x.h ****     dsy_gpio  pin_dc_;
 125:libDaisy/src/dev/oled_ssd130x.h **** };
 126:libDaisy/src/dev/oled_ssd130x.h **** 
 127:libDaisy/src/dev/oled_ssd130x.h **** 
 128:libDaisy/src/dev/oled_ssd130x.h **** /**
 129:libDaisy/src/dev/oled_ssd130x.h ****  * A driver implementation for the SSD1306/SSD1309
 130:libDaisy/src/dev/oled_ssd130x.h ****  */
 131:libDaisy/src/dev/oled_ssd130x.h **** template <size_t width, size_t height, typename Transport>
 132:libDaisy/src/dev/oled_ssd130x.h **** class SSD130xDriver
 133:libDaisy/src/dev/oled_ssd130x.h **** {
 134:libDaisy/src/dev/oled_ssd130x.h ****   public:
 135:libDaisy/src/dev/oled_ssd130x.h ****     struct Config
 136:libDaisy/src/dev/oled_ssd130x.h ****     {
 137:libDaisy/src/dev/oled_ssd130x.h ****         typename Transport::Config transport_config;
 138:libDaisy/src/dev/oled_ssd130x.h ****     };
 139:libDaisy/src/dev/oled_ssd130x.h **** 
 140:libDaisy/src/dev/oled_ssd130x.h ****     void Init(Config config)
 141:libDaisy/src/dev/oled_ssd130x.h ****     {
 142:libDaisy/src/dev/oled_ssd130x.h ****         transport_.Init(config.transport_config);
 143:libDaisy/src/dev/oled_ssd130x.h **** 
 144:libDaisy/src/dev/oled_ssd130x.h ****         // Init routine...
 145:libDaisy/src/dev/oled_ssd130x.h **** 
 146:libDaisy/src/dev/oled_ssd130x.h ****         // Display Off
 147:libDaisy/src/dev/oled_ssd130x.h ****         transport_.SendCommand(0xaE);
 148:libDaisy/src/dev/oled_ssd130x.h ****         // Dimension dependent commands...
 149:libDaisy/src/dev/oled_ssd130x.h ****         switch(height)
 150:libDaisy/src/dev/oled_ssd130x.h ****         {
 151:libDaisy/src/dev/oled_ssd130x.h ****             case 16:
 152:libDaisy/src/dev/oled_ssd130x.h ****                 // Display Clock Divide Ratio
 153:libDaisy/src/dev/oled_ssd130x.h ****                 transport_.SendCommand(0xD5);
 154:libDaisy/src/dev/oled_ssd130x.h ****                 transport_.SendCommand(0x60);
 155:libDaisy/src/dev/oled_ssd130x.h ****                 // Multiplex Ratio
 156:libDaisy/src/dev/oled_ssd130x.h ****                 transport_.SendCommand(0xA8);
 157:libDaisy/src/dev/oled_ssd130x.h ****                 transport_.SendCommand(0x0F);
 158:libDaisy/src/dev/oled_ssd130x.h ****                 // COM Pins
ARM GAS  C:\Users\yaman\AppData\Local\Temp\ccCu6FW5.s 			page 21


 159:libDaisy/src/dev/oled_ssd130x.h ****                 transport_.SendCommand(0xDA);
 160:libDaisy/src/dev/oled_ssd130x.h ****                 transport_.SendCommand(0x02);
 161:libDaisy/src/dev/oled_ssd130x.h ****                 break;
 162:libDaisy/src/dev/oled_ssd130x.h ****             case 32:
 163:libDaisy/src/dev/oled_ssd130x.h ****                 // Display Clock Divide Ratio
 164:libDaisy/src/dev/oled_ssd130x.h ****                 transport_.SendCommand(0xD5);
 165:libDaisy/src/dev/oled_ssd130x.h ****                 transport_.SendCommand(0x80);
 166:libDaisy/src/dev/oled_ssd130x.h ****                 // Multiplex Ratio
 167:libDaisy/src/dev/oled_ssd130x.h ****                 transport_.SendCommand(0xA8);
 168:libDaisy/src/dev/oled_ssd130x.h ****                 transport_.SendCommand(0x1F);
 169:libDaisy/src/dev/oled_ssd130x.h ****                 // COM Pins
 170:libDaisy/src/dev/oled_ssd130x.h ****                 transport_.SendCommand(0xDA);
 171:libDaisy/src/dev/oled_ssd130x.h ****                 if(width == 64)
 172:libDaisy/src/dev/oled_ssd130x.h ****                 {
 173:libDaisy/src/dev/oled_ssd130x.h ****                     transport_.SendCommand(0x12);
 174:libDaisy/src/dev/oled_ssd130x.h ****                 }
 175:libDaisy/src/dev/oled_ssd130x.h ****                 else
 176:libDaisy/src/dev/oled_ssd130x.h ****                 {
 177:libDaisy/src/dev/oled_ssd130x.h ****                     transport_.SendCommand(0x02);
 178:libDaisy/src/dev/oled_ssd130x.h ****                 }
 179:libDaisy/src/dev/oled_ssd130x.h **** 
 180:libDaisy/src/dev/oled_ssd130x.h ****                 break;
 181:libDaisy/src/dev/oled_ssd130x.h ****             case 48:
 182:libDaisy/src/dev/oled_ssd130x.h ****                 // Display Clock Divide Ratio
 183:libDaisy/src/dev/oled_ssd130x.h ****                 transport_.SendCommand(0xD5);
 184:libDaisy/src/dev/oled_ssd130x.h ****                 transport_.SendCommand(0x80);
 185:libDaisy/src/dev/oled_ssd130x.h ****                 // Multiplex Ratio
 186:libDaisy/src/dev/oled_ssd130x.h ****                 transport_.SendCommand(0xA8);
 187:libDaisy/src/dev/oled_ssd130x.h ****                 transport_.SendCommand(0x2F);
 188:libDaisy/src/dev/oled_ssd130x.h ****                 // COM Pins
 189:libDaisy/src/dev/oled_ssd130x.h ****                 transport_.SendCommand(0xDA);
 190:libDaisy/src/dev/oled_ssd130x.h ****                 transport_.SendCommand(0x12);
 191:libDaisy/src/dev/oled_ssd130x.h ****                 break;
 192:libDaisy/src/dev/oled_ssd130x.h ****             default: // 128
 193:libDaisy/src/dev/oled_ssd130x.h ****                 // Display Clock Divide Ratio
 194:libDaisy/src/dev/oled_ssd130x.h ****                 transport_.SendCommand(0xD5);
 195:libDaisy/src/dev/oled_ssd130x.h ****                 transport_.SendCommand(0x80);
 196:libDaisy/src/dev/oled_ssd130x.h ****                 // Multiplex Ratio
 197:libDaisy/src/dev/oled_ssd130x.h ****                 transport_.SendCommand(0xA8);
 198:libDaisy/src/dev/oled_ssd130x.h ****                 transport_.SendCommand(0x3F);
 199:libDaisy/src/dev/oled_ssd130x.h ****                 // COM Pins
 200:libDaisy/src/dev/oled_ssd130x.h ****                 transport_.SendCommand(0xDA);
 201:libDaisy/src/dev/oled_ssd130x.h ****                 transport_.SendCommand(0x12);
 202:libDaisy/src/dev/oled_ssd130x.h ****                 break;
 203:libDaisy/src/dev/oled_ssd130x.h ****         }
 204:libDaisy/src/dev/oled_ssd130x.h **** 
 205:libDaisy/src/dev/oled_ssd130x.h ****         // Display Offset
 206:libDaisy/src/dev/oled_ssd130x.h ****         transport_.SendCommand(0xD3);
 207:libDaisy/src/dev/oled_ssd130x.h ****         transport_.SendCommand(0x00);
 208:libDaisy/src/dev/oled_ssd130x.h ****         // Start Line Address
 209:libDaisy/src/dev/oled_ssd130x.h ****         transport_.SendCommand(0x40);
 210:libDaisy/src/dev/oled_ssd130x.h ****         // Normal Display
 211:libDaisy/src/dev/oled_ssd130x.h ****         transport_.SendCommand(0xA6);
 212:libDaisy/src/dev/oled_ssd130x.h ****         // All On Resume
 213:libDaisy/src/dev/oled_ssd130x.h ****         transport_.SendCommand(0xA4);
 214:libDaisy/src/dev/oled_ssd130x.h ****         // Charge Pump
 215:libDaisy/src/dev/oled_ssd130x.h ****         transport_.SendCommand(0x8D);
ARM GAS  C:\Users\yaman\AppData\Local\Temp\ccCu6FW5.s 			page 22


 216:libDaisy/src/dev/oled_ssd130x.h ****         transport_.SendCommand(0x14);
 217:libDaisy/src/dev/oled_ssd130x.h ****         // Set Segment Remap
 218:libDaisy/src/dev/oled_ssd130x.h ****         transport_.SendCommand(0xA1);
 219:libDaisy/src/dev/oled_ssd130x.h ****         // COM Output Scan Direction
 220:libDaisy/src/dev/oled_ssd130x.h ****         transport_.SendCommand(0xC8);
 221:libDaisy/src/dev/oled_ssd130x.h ****         // Contrast Control
 222:libDaisy/src/dev/oled_ssd130x.h ****         transport_.SendCommand(0x81);
 223:libDaisy/src/dev/oled_ssd130x.h ****         transport_.SendCommand(0x8F);
 224:libDaisy/src/dev/oled_ssd130x.h ****         // Pre Charge
 225:libDaisy/src/dev/oled_ssd130x.h ****         transport_.SendCommand(0xD9);
 226:libDaisy/src/dev/oled_ssd130x.h ****         transport_.SendCommand(0x25);
 227:libDaisy/src/dev/oled_ssd130x.h ****         // VCOM Detect
 228:libDaisy/src/dev/oled_ssd130x.h ****         transport_.SendCommand(0xDB);
 229:libDaisy/src/dev/oled_ssd130x.h ****         transport_.SendCommand(0x34);
 230:libDaisy/src/dev/oled_ssd130x.h **** 
 231:libDaisy/src/dev/oled_ssd130x.h **** 
 232:libDaisy/src/dev/oled_ssd130x.h ****         // Display On
 233:libDaisy/src/dev/oled_ssd130x.h ****         transport_.SendCommand(0xAF); //--turn on oled panel
 234:libDaisy/src/dev/oled_ssd130x.h ****     };
 235:libDaisy/src/dev/oled_ssd130x.h **** 
 236:libDaisy/src/dev/oled_ssd130x.h ****     size_t Width() const { return width; };
 237:libDaisy/src/dev/oled_ssd130x.h ****     size_t Height() const { return height; };
 238:libDaisy/src/dev/oled_ssd130x.h **** 
 239:libDaisy/src/dev/oled_ssd130x.h ****     void DrawPixel(uint_fast8_t x, uint_fast8_t y, bool on)
 240:libDaisy/src/dev/oled_ssd130x.h ****     {
 241:libDaisy/src/dev/oled_ssd130x.h ****         if(x >= width || y >= height)
 242:libDaisy/src/dev/oled_ssd130x.h ****             return;
 243:libDaisy/src/dev/oled_ssd130x.h ****         if(on)
 244:libDaisy/src/dev/oled_ssd130x.h ****             buffer_[x + (y / 8) * width] |= (1 << (y % 8));
 245:libDaisy/src/dev/oled_ssd130x.h ****         else
 246:libDaisy/src/dev/oled_ssd130x.h ****             buffer_[x + (y / 8) * width] &= ~(1 << (y % 8));
 247:libDaisy/src/dev/oled_ssd130x.h ****     }
 248:libDaisy/src/dev/oled_ssd130x.h **** 
 249:libDaisy/src/dev/oled_ssd130x.h ****     void Fill(bool on)
 166              		.loc 13 249 10 view .LVU29
 167              	.LBB598:
 250:libDaisy/src/dev/oled_ssd130x.h ****     {
 251:libDaisy/src/dev/oled_ssd130x.h ****         for(size_t i = 0; i < sizeof(buffer_); i++)
 168              		.loc 13 251 29 view .LVU30
 252:libDaisy/src/dev/oled_ssd130x.h ****         {
 253:libDaisy/src/dev/oled_ssd130x.h ****             buffer_[i] = on ? 0xff : 0x00;
 169              		.loc 13 253 24 is_stmt 0 view .LVU31
 170 0000 4942     		rsbs	r1, r1, #0
 171              	.LVL3:
 172              		.loc 13 253 24 view .LVU32
 173 0002 4FF48072 		mov	r2, #256
 174 0006 1030     		adds	r0, r0, #16
 175              	.LVL4:
 176              		.loc 13 253 24 view .LVU33
 177 0008 C9B2     		uxtb	r1, r1
 178 000a FFF7FEBF 		b	memset
 179              	.LVL5:
 180              		.loc 13 253 24 view .LVU34
 181              	.LBE598:
 182              	.LBE597:
 183              		.cfi_endproc
 184              	.LFE5106:
ARM GAS  C:\Users\yaman\AppData\Local\Temp\ccCu6FW5.s 			page 23


 186 000e 00BF     		.section	.text._ZNK5daisy11OledDisplayINS_13SSD130xDriverILj64ELj32ENS_19SSD130xI2CTransportEEEE6H
 187              		.align	1
 188              		.p2align 2,,3
 189              		.weak	_ZNK5daisy11OledDisplayINS_13SSD130xDriverILj64ELj32ENS_19SSD130xI2CTransportEEEE6HeightEv
 190              		.syntax unified
 191              		.thumb
 192              		.thumb_func
 193              		.fpu fpv5-d16
 195              	_ZNK5daisy11OledDisplayINS_13SSD130xDriverILj64ELj32ENS_19SSD130xI2CTransportEEEE6HeightEv:
 196              	.LVL6:
 197              	.LFB5382:
  27:libDaisy/src/hid/disp/oled_display.h ****     uint16_t Width() const override { return driver_.Width(); }
 198              		.loc 2 27 14 is_stmt 1 view -0
 199              		.cfi_startproc
 200              		@ args = 0, pretend = 0, frame = 0
 201              		@ frame_needed = 0, uses_anonymous_args = 0
 202              		@ link register save eliminated.
  27:libDaisy/src/hid/disp/oled_display.h ****     uint16_t Width() const override { return driver_.Width(); }
 203              		.loc 2 27 65 is_stmt 0 view .LVU36
 204 0000 2020     		movs	r0, #32
 205              	.LVL7:
  27:libDaisy/src/hid/disp/oled_display.h ****     uint16_t Width() const override { return driver_.Width(); }
 206              		.loc 2 27 65 view .LVU37
 207 0002 7047     		bx	lr
 208              		.cfi_endproc
 209              	.LFE5382:
 211              		.section	.text._ZNK5daisy11OledDisplayINS_13SSD130xDriverILj64ELj32ENS_19SSD130xI2CTransportEEEE5W
 212              		.align	1
 213              		.p2align 2,,3
 214              		.weak	_ZNK5daisy11OledDisplayINS_13SSD130xDriverILj64ELj32ENS_19SSD130xI2CTransportEEEE5WidthEv
 215              		.syntax unified
 216              		.thumb
 217              		.thumb_func
 218              		.fpu fpv5-d16
 220              	_ZNK5daisy11OledDisplayINS_13SSD130xDriverILj64ELj32ENS_19SSD130xI2CTransportEEEE5WidthEv:
 221              	.LVL8:
 222              	.LFB5383:
  28:libDaisy/src/hid/disp/oled_display.h **** 
 223              		.loc 2 28 14 is_stmt 1 view -0
 224              		.cfi_startproc
 225              		@ args = 0, pretend = 0, frame = 0
 226              		@ frame_needed = 0, uses_anonymous_args = 0
 227              		@ link register save eliminated.
  28:libDaisy/src/hid/disp/oled_display.h **** 
 228              		.loc 2 28 63 is_stmt 0 view .LVU39
 229 0000 4020     		movs	r0, #64
 230              	.LVL9:
  28:libDaisy/src/hid/disp/oled_display.h **** 
 231              		.loc 2 28 63 view .LVU40
 232 0002 7047     		bx	lr
 233              		.cfi_endproc
 234              	.LFE5383:
 236              		.section	.text._ZN5daisy11OledDisplayINS_13SSD130xDriverILj64ELj32ENS_19SSD130xI2CTransportEEEED0E
 237              		.align	1
 238              		.p2align 2,,3
 239              		.weak	_ZN5daisy11OledDisplayINS_13SSD130xDriverILj64ELj32ENS_19SSD130xI2CTransportEEEED0Ev
 240              		.syntax unified
ARM GAS  C:\Users\yaman\AppData\Local\Temp\ccCu6FW5.s 			page 24


 241              		.thumb
 242              		.thumb_func
 243              		.fpu fpv5-d16
 245              	_ZN5daisy11OledDisplayINS_13SSD130xDriverILj64ELj32ENS_19SSD130xI2CTransportEEEED0Ev:
 246              	.LVL10:
 247              	.LFB5102:
  18:libDaisy/src/hid/disp/oled_display.h **** 
 248              		.loc 2 18 13 is_stmt 1 view -0
 249              		.cfi_startproc
 250              		@ args = 0, pretend = 0, frame = 0
 251              		@ frame_needed = 0, uses_anonymous_args = 0
  18:libDaisy/src/hid/disp/oled_display.h **** 
 252              		.loc 2 18 13 is_stmt 0 view .LVU42
 253 0000 10B5     		push	{r4, lr}
 254              		.cfi_def_cfa_offset 8
 255              		.cfi_offset 4, -8
 256              		.cfi_offset 14, -4
  18:libDaisy/src/hid/disp/oled_display.h **** 
 257              		.loc 2 18 13 view .LVU43
 258 0002 0446     		mov	r4, r0
 259              	.LVL11:
 260              	.LBB599:
 261              	.LBI599:
  18:libDaisy/src/hid/disp/oled_display.h **** 
 262              		.loc 2 18 13 is_stmt 1 view .LVU44
 263              	.LBB600:
 264              	.LBI600:
 265              		.loc 3 219 13 view .LVU45
 266              	.LBB601:
 267              	.LBI601:
  23:libDaisy/src/hid/disp/display.h **** 
 268              		.loc 3 23 13 view .LVU46
  23:libDaisy/src/hid/disp/display.h **** 
 269              		.loc 3 23 13 is_stmt 0 view .LVU47
 270              	.LBE601:
 271              	.LBE600:
 272              	.LBE599:
  18:libDaisy/src/hid/disp/oled_display.h **** 
 273              		.loc 2 18 29 view .LVU48
 274 0004 4FF48871 		mov	r1, #272
 275 0008 FFF7FEFF 		bl	_ZdlPvj
 276              	.LVL12:
  18:libDaisy/src/hid/disp/oled_display.h **** 
 277              		.loc 2 18 29 view .LVU49
 278 000c 2046     		mov	r0, r4
 279 000e 10BD     		pop	{r4, pc}
  18:libDaisy/src/hid/disp/oled_display.h **** 
 280              		.loc 2 18 29 view .LVU50
 281              		.cfi_endproc
 282              	.LFE5102:
 284              		.section	.text._ZN5daisy11OledDisplayINS_13SSD130xDriverILj64ELj32ENS_19SSD130xI2CTransportEEEE6Up
 285              		.align	1
 286              		.p2align 2,,3
 287              		.weak	_ZN5daisy11OledDisplayINS_13SSD130xDriverILj64ELj32ENS_19SSD130xI2CTransportEEEE6UpdateEv
 288              		.syntax unified
 289              		.thumb
 290              		.thumb_func
ARM GAS  C:\Users\yaman\AppData\Local\Temp\ccCu6FW5.s 			page 25


 291              		.fpu fpv5-d16
 293              	_ZN5daisy11OledDisplayINS_13SSD130xDriverILj64ELj32ENS_19SSD130xI2CTransportEEEE6UpdateEv:
 294              	.LVL13:
 295              	.LFB5110:
  35:libDaisy/src/hid/disp/oled_display.h **** 
  36:libDaisy/src/hid/disp/oled_display.h ****     /**
  37:libDaisy/src/hid/disp/oled_display.h ****     Sets the pixel at the specified coordinate to be on/off.
  38:libDaisy/src/hid/disp/oled_display.h ****     \param x   x Coordinate
  39:libDaisy/src/hid/disp/oled_display.h ****     \param y   y coordinate
  40:libDaisy/src/hid/disp/oled_display.h ****     \param on  on or off
  41:libDaisy/src/hid/disp/oled_display.h ****     */
  42:libDaisy/src/hid/disp/oled_display.h ****     void DrawPixel(uint_fast8_t x, uint_fast8_t y, bool on) override
  43:libDaisy/src/hid/disp/oled_display.h ****     {
  44:libDaisy/src/hid/disp/oled_display.h ****         driver_.DrawPixel(x, y, on);
  45:libDaisy/src/hid/disp/oled_display.h ****     }
  46:libDaisy/src/hid/disp/oled_display.h **** 
  47:libDaisy/src/hid/disp/oled_display.h ****     /** 
  48:libDaisy/src/hid/disp/oled_display.h ****     Writes the current display buffer to the OLED device using SPI or I2C depending on 
  49:libDaisy/src/hid/disp/oled_display.h ****     how the object was initialized.
  50:libDaisy/src/hid/disp/oled_display.h ****     */
  51:libDaisy/src/hid/disp/oled_display.h ****     void Update() override { driver_.Update(); }
 296              		.loc 2 51 10 is_stmt 1 view -0
 297              		.cfi_startproc
 298              		@ args = 0, pretend = 0, frame = 8
 299              		@ frame_needed = 0, uses_anonymous_args = 0
 300              		.loc 2 51 10 is_stmt 0 view .LVU52
 301 0000 2DE9F04F 		push	{r4, r5, r6, r7, r8, r9, r10, fp, lr}
 302              		.cfi_def_cfa_offset 36
 303              		.cfi_offset 4, -36
 304              		.cfi_offset 5, -32
 305              		.cfi_offset 6, -28
 306              		.cfi_offset 7, -24
 307              		.cfi_offset 8, -20
 308              		.cfi_offset 9, -16
 309              		.cfi_offset 10, -12
 310              		.cfi_offset 11, -8
 311              		.cfi_offset 14, -4
 312              	.LBB614:
 313              	.LBB615:
 314              	.LBB616:
 315              	.LBB617:
  40:libDaisy/src/dev/oled_ssd130x.h ****     };
 316              		.loc 13 40 30 view .LVU53
 317 0004 4FF0B008 		mov	r8, #176
 318              	.LBE617:
 319              	.LBE616:
 320              	.LBE615:
 321              	.LBE614:
 322              		.loc 2 51 10 view .LVU54
 323 0008 85B0     		sub	sp, sp, #20
 324              		.cfi_def_cfa_offset 56
 325              		.loc 2 51 10 view .LVU55
 326 000a 0546     		mov	r5, r0
 327              	.LVL14:
 328              	.LBB629:
 329              	.LBI614:
 254:libDaisy/src/dev/oled_ssd130x.h ****         }
ARM GAS  C:\Users\yaman\AppData\Local\Temp\ccCu6FW5.s 			page 26


 255:libDaisy/src/dev/oled_ssd130x.h ****     };
 256:libDaisy/src/dev/oled_ssd130x.h **** 
 257:libDaisy/src/dev/oled_ssd130x.h ****     /**
 258:libDaisy/src/dev/oled_ssd130x.h ****      * Update the display 
 259:libDaisy/src/dev/oled_ssd130x.h ****     */
 260:libDaisy/src/dev/oled_ssd130x.h ****     void Update()
 330              		.loc 13 260 10 is_stmt 1 view .LVU56
 331              	.LBB628:
 261:libDaisy/src/dev/oled_ssd130x.h ****     {
 262:libDaisy/src/dev/oled_ssd130x.h ****         uint8_t i;
 263:libDaisy/src/dev/oled_ssd130x.h ****         uint8_t high_column_addr;
 264:libDaisy/src/dev/oled_ssd130x.h ****         switch(height)
 265:libDaisy/src/dev/oled_ssd130x.h ****         {
 266:libDaisy/src/dev/oled_ssd130x.h ****             case 32: high_column_addr = 0x12; break;
 267:libDaisy/src/dev/oled_ssd130x.h **** 
 268:libDaisy/src/dev/oled_ssd130x.h ****             default: high_column_addr = 0x10; break;
 269:libDaisy/src/dev/oled_ssd130x.h ****         }
 270:libDaisy/src/dev/oled_ssd130x.h ****         for(i = 0; i < (height / 8); i++)
 332              		.loc 13 270 22 view .LVU57
 333              	.LBB620:
 334              	.LBB618:
  40:libDaisy/src/dev/oled_ssd130x.h ****     };
 335              		.loc 13 40 30 is_stmt 0 view .LVU58
 336 000c 00F10807 		add	r7, r0, #8
 337              	.LVL15:
  40:libDaisy/src/dev/oled_ssd130x.h ****     };
 338              		.loc 13 40 30 view .LVU59
 339 0010 00F14F06 		add	r6, r0, #79
 340 0014 00F24F19 		addw	r9, r0, #335
 341              	.LVL16:
 342              	.L11:
  40:libDaisy/src/dev/oled_ssd130x.h ****     };
 343              		.loc 13 40 30 view .LVU60
 344              	.LBE618:
 345              	.LBI616:
  37:libDaisy/src/dev/oled_ssd130x.h ****     {
 346              		.loc 13 37 10 is_stmt 1 view .LVU61
 347              	.LBB619:
  39:libDaisy/src/dev/oled_ssd130x.h ****         i2c_.TransmitBlocking(i2c_address_, buf, 2, 1000);
 348              		.loc 13 39 9 view .LVU62
  40:libDaisy/src/dev/oled_ssd130x.h ****     };
 349              		.loc 13 40 30 is_stmt 0 view .LVU63
 350 0018 4FF47A7B 		mov	fp, #1000
  39:libDaisy/src/dev/oled_ssd130x.h ****         i2c_.TransmitBlocking(i2c_address_, buf, 2, 1000);
 351              		.loc 13 39 17 view .LVU64
 352 001c 4FF0000A 		mov	r10, #0
  40:libDaisy/src/dev/oled_ssd130x.h ****     };
 353              		.loc 13 40 30 view .LVU65
 354 0020 297B     		ldrb	r1, [r5, #12]	@ zero_extendqisi2
 355 0022 0223     		movs	r3, #2
 356 0024 03AA     		add	r2, sp, #12
 357 0026 3846     		mov	r0, r7
 358 0028 CDF800B0 		str	fp, [sp]
 359 002c A6F14004 		sub	r4, r6, #64
  39:libDaisy/src/dev/oled_ssd130x.h ****         i2c_.TransmitBlocking(i2c_address_, buf, 2, 1000);
 360              		.loc 13 39 17 view .LVU66
 361 0030 8DF80CA0 		strb	r10, [sp, #12]
ARM GAS  C:\Users\yaman\AppData\Local\Temp\ccCu6FW5.s 			page 27


  39:libDaisy/src/dev/oled_ssd130x.h ****         i2c_.TransmitBlocking(i2c_address_, buf, 2, 1000);
 362              		.loc 13 39 36 view .LVU67
 363 0034 8DF80D80 		strb	r8, [sp, #13]
  40:libDaisy/src/dev/oled_ssd130x.h ****     };
 364              		.loc 13 40 9 is_stmt 1 view .LVU68
  40:libDaisy/src/dev/oled_ssd130x.h ****     };
 365              		.loc 13 40 30 is_stmt 0 view .LVU69
 366 0038 FFF7FEFF 		bl	_ZN5daisy9I2CHandle16TransmitBlockingEtPhtm
 367              	.LVL17:
  40:libDaisy/src/dev/oled_ssd130x.h ****     };
 368              		.loc 13 40 30 view .LVU70
 369              	.LBE619:
 370              	.LBE620:
 371              	.LBB621:
 372              	.LBI621:
  37:libDaisy/src/dev/oled_ssd130x.h ****     {
 373              		.loc 13 37 10 is_stmt 1 view .LVU71
 374              	.LBB622:
  39:libDaisy/src/dev/oled_ssd130x.h ****         i2c_.TransmitBlocking(i2c_address_, buf, 2, 1000);
 375              		.loc 13 39 9 view .LVU72
  40:libDaisy/src/dev/oled_ssd130x.h ****     };
 376              		.loc 13 40 30 is_stmt 0 view .LVU73
 377 003c 297B     		ldrb	r1, [r5, #12]	@ zero_extendqisi2
 378 003e 0223     		movs	r3, #2
 379 0040 03AA     		add	r2, sp, #12
 380 0042 3846     		mov	r0, r7
 381 0044 CDF800B0 		str	fp, [sp]
  39:libDaisy/src/dev/oled_ssd130x.h ****         i2c_.TransmitBlocking(i2c_address_, buf, 2, 1000);
 382              		.loc 13 39 17 view .LVU74
 383 0048 8DF80CA0 		strb	r10, [sp, #12]
  39:libDaisy/src/dev/oled_ssd130x.h ****         i2c_.TransmitBlocking(i2c_address_, buf, 2, 1000);
 384              		.loc 13 39 36 view .LVU75
 385 004c 8DF80DA0 		strb	r10, [sp, #13]
  40:libDaisy/src/dev/oled_ssd130x.h ****     };
 386              		.loc 13 40 9 is_stmt 1 view .LVU76
  40:libDaisy/src/dev/oled_ssd130x.h ****     };
 387              		.loc 13 40 30 is_stmt 0 view .LVU77
 388 0050 FFF7FEFF 		bl	_ZN5daisy9I2CHandle16TransmitBlockingEtPhtm
 389              	.LVL18:
  40:libDaisy/src/dev/oled_ssd130x.h ****     };
 390              		.loc 13 40 30 view .LVU78
 391              	.LBE622:
 392              	.LBE621:
 393              	.LBB623:
 394              	.LBI623:
  37:libDaisy/src/dev/oled_ssd130x.h ****     {
 395              		.loc 13 37 10 is_stmt 1 view .LVU79
 396              	.LBB624:
  39:libDaisy/src/dev/oled_ssd130x.h ****         i2c_.TransmitBlocking(i2c_address_, buf, 2, 1000);
 397              		.loc 13 39 9 view .LVU80
  39:libDaisy/src/dev/oled_ssd130x.h ****         i2c_.TransmitBlocking(i2c_address_, buf, 2, 1000);
 398              		.loc 13 39 36 is_stmt 0 view .LVU81
 399 0054 1220     		movs	r0, #18
  40:libDaisy/src/dev/oled_ssd130x.h ****     };
 400              		.loc 13 40 30 view .LVU82
 401 0056 CDF800B0 		str	fp, [sp]
 402 005a 0223     		movs	r3, #2
ARM GAS  C:\Users\yaman\AppData\Local\Temp\ccCu6FW5.s 			page 28


 403 005c 03AA     		add	r2, sp, #12
  39:libDaisy/src/dev/oled_ssd130x.h ****         i2c_.TransmitBlocking(i2c_address_, buf, 2, 1000);
 404              		.loc 13 39 36 view .LVU83
 405 005e 8DF80D00 		strb	r0, [sp, #13]
  40:libDaisy/src/dev/oled_ssd130x.h ****     };
 406              		.loc 13 40 9 is_stmt 1 view .LVU84
  40:libDaisy/src/dev/oled_ssd130x.h ****     };
 407              		.loc 13 40 30 is_stmt 0 view .LVU85
 408 0062 3846     		mov	r0, r7
 409 0064 297B     		ldrb	r1, [r5, #12]	@ zero_extendqisi2
  39:libDaisy/src/dev/oled_ssd130x.h ****         i2c_.TransmitBlocking(i2c_address_, buf, 2, 1000);
 410              		.loc 13 39 17 view .LVU86
 411 0066 8DF80CA0 		strb	r10, [sp, #12]
  40:libDaisy/src/dev/oled_ssd130x.h ****     };
 412              		.loc 13 40 30 view .LVU87
 413 006a FFF7FEFF 		bl	_ZN5daisy9I2CHandle16TransmitBlockingEtPhtm
 414              	.LVL19:
  40:libDaisy/src/dev/oled_ssd130x.h ****     };
 415              		.loc 13 40 30 view .LVU88
 416              	.LBE624:
 417              	.LBE623:
 418              	.LBB625:
 419              	.LBI625:
  43:libDaisy/src/dev/oled_ssd130x.h ****     {
 420              		.loc 13 43 10 is_stmt 1 view .LVU89
 421              	.LBB626:
  45:libDaisy/src/dev/oled_ssd130x.h ****         {
 422              		.loc 13 45 29 view .LVU90
 423              	.L10:
 424              	.LBB627:
  47:libDaisy/src/dev/oled_ssd130x.h ****             i2c_.TransmitBlocking(i2c_address_, buf, 2, 1000);
 425              		.loc 13 47 13 view .LVU91
  48:libDaisy/src/dev/oled_ssd130x.h ****         }
 426              		.loc 13 48 34 is_stmt 0 view .LVU92
 427 006e 4FF47A70 		mov	r0, #1000
  47:libDaisy/src/dev/oled_ssd130x.h ****             i2c_.TransmitBlocking(i2c_address_, buf, 2, 1000);
 428              		.loc 13 47 44 view .LVU93
 429 0072 14F801CF 		ldrb	ip, [r4, #1]!	@ zero_extendqisi2
 430              	.LVL20:
  47:libDaisy/src/dev/oled_ssd130x.h ****             i2c_.TransmitBlocking(i2c_address_, buf, 2, 1000);
 431              		.loc 13 47 21 view .LVU94
 432 0076 4FF0400E 		mov	lr, #64
  48:libDaisy/src/dev/oled_ssd130x.h ****         }
 433              		.loc 13 48 34 view .LVU95
 434 007a 297B     		ldrb	r1, [r5, #12]	@ zero_extendqisi2
 435 007c 0223     		movs	r3, #2
 436 007e 0090     		str	r0, [sp]
 437 0080 03AA     		add	r2, sp, #12
 438 0082 3846     		mov	r0, r7
  47:libDaisy/src/dev/oled_ssd130x.h ****             i2c_.TransmitBlocking(i2c_address_, buf, 2, 1000);
 439              		.loc 13 47 21 view .LVU96
 440 0084 8DF80CE0 		strb	lr, [sp, #12]
  47:libDaisy/src/dev/oled_ssd130x.h ****             i2c_.TransmitBlocking(i2c_address_, buf, 2, 1000);
 441              		.loc 13 47 44 view .LVU97
 442 0088 8DF80DC0 		strb	ip, [sp, #13]
  48:libDaisy/src/dev/oled_ssd130x.h ****         }
 443              		.loc 13 48 13 is_stmt 1 view .LVU98
ARM GAS  C:\Users\yaman\AppData\Local\Temp\ccCu6FW5.s 			page 29


  48:libDaisy/src/dev/oled_ssd130x.h ****         }
 444              		.loc 13 48 34 is_stmt 0 view .LVU99
 445 008c FFF7FEFF 		bl	_ZN5daisy9I2CHandle16TransmitBlockingEtPhtm
 446              	.LVL21:
 447              	.LBE627:
  45:libDaisy/src/dev/oled_ssd130x.h ****         {
 448              		.loc 13 45 9 is_stmt 1 view .LVU100
  45:libDaisy/src/dev/oled_ssd130x.h ****         {
 449              		.loc 13 45 29 view .LVU101
 450 0090 B442     		cmp	r4, r6
 451 0092 ECD1     		bne	.L10
 452              	.LVL22:
  45:libDaisy/src/dev/oled_ssd130x.h ****         {
 453              		.loc 13 45 29 is_stmt 0 view .LVU102
 454              	.LBE626:
 455              	.LBE625:
 456              		.loc 13 270 9 is_stmt 1 view .LVU103
 457              		.loc 13 270 22 view .LVU104
 458 0094 04F14006 		add	r6, r4, #64
 459 0098 08F10108 		add	r8, r8, #1
 460              	.LVL23:
 461              		.loc 13 270 22 is_stmt 0 view .LVU105
 462 009c 4E45     		cmp	r6, r9
 463 009e 5FFA88F8 		uxtb	r8, r8
 464 00a2 B9D1     		bne	.L11
 465              	.LBE628:
 466              	.LBE629:
 467              		.loc 2 51 48 view .LVU106
 468 00a4 05B0     		add	sp, sp, #20
 469              		.cfi_def_cfa_offset 36
 470              		@ sp needed
 471 00a6 BDE8F08F 		pop	{r4, r5, r6, r7, r8, r9, r10, fp, pc}
 472              		.loc 2 51 48 view .LVU107
 473              		.cfi_endproc
 474              	.LFE5110:
 476 00aa 00BF     		.section	.text._Z13AudioCallbackPKPKfPPfj,"ax",%progbits
 477              		.align	1
 478              		.p2align 2,,3
 479              		.global	_Z13AudioCallbackPKPKfPPfj
 480              		.syntax unified
 481              		.thumb
 482              		.thumb_func
 483              		.fpu fpv5-d16
 485              	_Z13AudioCallbackPKPKfPPfj:
 486              	.LVL24:
 487              	.LFB4756:
 488              		.file 14 "examples/looper.cpp"
   1:examples/looper.cpp **** #include <atomic>
   2:examples/looper.cpp **** #include "daisysp.h"
   3:examples/looper.cpp **** #include "../src/kxmx_bluemchen.h"
   4:examples/looper.cpp **** #include <string>
   5:examples/looper.cpp **** #include <stdio.h>
   6:examples/looper.cpp **** 
   7:examples/looper.cpp **** #define MAX_SIZE_PER_CHANNEL 2880000 
   8:examples/looper.cpp **** 
   9:examples/looper.cpp **** using namespace daisysp;
  10:examples/looper.cpp **** using namespace daisy;
ARM GAS  C:\Users\yaman\AppData\Local\Temp\ccCu6FW5.s 			page 30


  11:examples/looper.cpp **** using namespace kxmx;
  12:examples/looper.cpp **** 
  13:examples/looper.cpp **** Bluemchen bluemchen;
  14:examples/looper.cpp **** 
  15:examples/looper.cpp **** enum LooperState { IDLE, ARM_REC, RECORDING, PLAYING };
  16:examples/looper.cpp **** 
  17:examples/looper.cpp **** class QuantizedLooper {
  18:examples/looper.cpp **** public:
  19:examples/looper.cpp ****     float* buffer;
  20:examples/looper.cpp ****     LooperState state;
  21:examples/looper.cpp ****     int pos, loop_len, mod_len;
  22:examples/looper.cpp ****     bool is_triggered_internal;
  23:examples/looper.cpp **** 
  24:examples/looper.cpp ****     // 
  25:examples/looper.cpp ****     int   slice_start;
  26:examples/looper.cpp ****     int   slice_len;
  27:examples/looper.cpp ****     int   slice_timer;
  28:examples/looper.cpp **** 
  29:examples/looper.cpp ****     void Init(float* buf_ptr) {
  30:examples/looper.cpp ****         buffer = buf_ptr;
  31:examples/looper.cpp ****         is_triggered_internal = false;
  32:examples/looper.cpp ****         slice_start = 0;
  33:examples/looper.cpp ****         slice_timer = 0;
  34:examples/looper.cpp ****         Reset();
  35:examples/looper.cpp ****     }
  36:examples/looper.cpp **** 
  37:examples/looper.cpp ****     void Reset() {
  38:examples/looper.cpp ****         state = IDLE;
  39:examples/looper.cpp ****         pos = 0; loop_len = 0;
  40:examples/looper.cpp ****         mod_len = MAX_SIZE_PER_CHANNEL;
  41:examples/looper.cpp ****         is_triggered_internal = false;
  42:examples/looper.cpp ****     }
  43:examples/looper.cpp **** 
  44:examples/looper.cpp ****     void Arm() { state = ARM_REC; }
  45:examples/looper.cpp **** 
  46:examples/looper.cpp ****     const char* GetStateStr() {
  47:examples/looper.cpp ****         switch (state) {
  48:examples/looper.cpp ****             case IDLE:      return "IDLE";
  49:examples/looper.cpp ****             case ARM_REC:   return "WAIT R";
  50:examples/looper.cpp ****             case RECORDING: return "REC...";
  51:examples/looper.cpp ****             case PLAYING:   return "LOOP";
  52:examples/looper.cpp ****             default:        return "ERR";
  53:examples/looper.cpp ****         }
  54:examples/looper.cpp ****     }
  55:examples/looper.cpp **** 
  56:examples/looper.cpp ****     float Process(float in, float cv_raw, float knob_val) {
  57:examples/looper.cpp ****         // --- 1.  ---
  58:examples/looper.cpp ****         bool edge = false;
  59:examples/looper.cpp ****         if (!is_triggered_internal && cv_raw > 0.8f) {
  60:examples/looper.cpp ****             is_triggered_internal = true;
  61:examples/looper.cpp ****             edge = true;
  62:examples/looper.cpp ****         } else if (is_triggered_internal && cv_raw < 0.6f) {
  63:examples/looper.cpp ****             is_triggered_internal = false;
  64:examples/looper.cpp ****         }
  65:examples/looper.cpp **** 
  66:examples/looper.cpp ****         // --- 2.  &  ---
  67:examples/looper.cpp ****         if (edge) {
ARM GAS  C:\Users\yaman\AppData\Local\Temp\ccCu6FW5.s 			page 31


  68:examples/looper.cpp ****             if (state == ARM_REC) {
  69:examples/looper.cpp ****                 state = RECORDING; pos = 0; loop_len = 0;
  70:examples/looper.cpp ****             } else if (state == RECORDING) {
  71:examples/looper.cpp ****                 state = PLAYING; mod_len = (pos > 0) ? pos : 1; pos = 0;
  72:examples/looper.cpp ****             } else if (state == PLAYING) {
  73:examples/looper.cpp ****                 // BPM
  74:examples/looper.cpp ****                 pos = 0;
  75:examples/looper.cpp ****                 slice_timer = 0; // 
  76:examples/looper.cpp ****             }
  77:examples/looper.cpp ****         }
  78:examples/looper.cpp **** 
  79:examples/looper.cpp ****         // --- 3.  ---
  80:examples/looper.cpp ****         if (state == IDLE || state == ARM_REC) return in;
  81:examples/looper.cpp **** 
  82:examples/looper.cpp ****         if (state == RECORDING) {
  83:examples/looper.cpp ****             if (pos < MAX_SIZE_PER_CHANNEL) {
  84:examples/looper.cpp ****                 buffer[pos] = in;
  85:examples/looper.cpp ****                 pos++;
  86:examples/looper.cpp ****             } else {
  87:examples/looper.cpp ****                 state = PLAYING; mod_len = MAX_SIZE_PER_CHANNEL; pos = 0;
  88:examples/looper.cpp ****             }
  89:examples/looper.cpp ****             return in;
  90:examples/looper.cpp ****         }
  91:examples/looper.cpp **** 
  92:examples/looper.cpp ****         if (state == PLAYING) {
  93:examples/looper.cpp ****             float out_sample = 0.0f;
  94:examples/looper.cpp **** 
  95:examples/looper.cpp ****             // --- 4.  ---
  96:examples/looper.cpp ****             if (knob_val < 0.05f) {
  97:examples/looper.cpp ****                 // 
  98:examples/looper.cpp ****                 out_sample = buffer[pos];
  99:examples/looper.cpp ****                 pos++;
 100:examples/looper.cpp ****                 if (pos >= mod_len) pos = 0;
 101:examples/looper.cpp ****             } else {
 102:examples/looper.cpp ****                 //  (232)
 103:examples/looper.cpp ****                 //  (2, 4, 8, 16, 32
 104:examples/looper.cpp ****                 int divisions = 2;
 105:examples/looper.cpp ****                 if (knob_val > 0.8f)      divisions = 32;
 106:examples/looper.cpp ****                 else if (knob_val > 0.6f) divisions = 16;
 107:examples/looper.cpp ****                 else if (knob_val > 0.4f) divisions = 8;
 108:examples/looper.cpp ****                 else if (knob_val > 0.2f) divisions = 4;
 109:examples/looper.cpp **** 
 110:examples/looper.cpp ****                 int current_slice_len = mod_len / divisions;
 111:examples/looper.cpp ****                 if (current_slice_len < 1) current_slice_len = 1;
 112:examples/looper.cpp **** 
 113:examples/looper.cpp ****                 // 
 114:examples/looper.cpp ****                 slice_timer++;
 115:examples/looper.cpp ****                 if (slice_timer >= current_slice_len) {
 116:examples/looper.cpp ****                     slice_timer = 0;
 117:examples/looper.cpp ****                     // 
 118:examples/looper.cpp ****                     int num_slices = divisions;
 119:examples/looper.cpp ****                     slice_start = (rand() % num_slices) * current_slice_len;
 120:examples/looper.cpp ****                 }
 121:examples/looper.cpp **** 
 122:examples/looper.cpp ****                 int read_pos = slice_start + slice_timer;
 123:examples/looper.cpp ****                 // 
 124:examples/looper.cpp ****                 if (read_pos >= mod_len) read_pos = 0; 
ARM GAS  C:\Users\yaman\AppData\Local\Temp\ccCu6FW5.s 			page 32


 125:examples/looper.cpp ****                 out_sample = buffer[read_pos];
 126:examples/looper.cpp **** 
 127:examples/looper.cpp ****                 // (pos)
 128:examples/looper.cpp ****                 pos++;
 129:examples/looper.cpp ****                 if (pos >= mod_len) pos = 0;
 130:examples/looper.cpp ****             }
 131:examples/looper.cpp ****             return out_sample;
 132:examples/looper.cpp ****         }
 133:examples/looper.cpp ****         return in;
 134:examples/looper.cpp ****     }
 135:examples/looper.cpp **** };
 136:examples/looper.cpp **** 
 137:examples/looper.cpp **** // ---  ---
 138:examples/looper.cpp **** float DSY_SDRAM_BSS buf_l[MAX_SIZE_PER_CHANNEL];
 139:examples/looper.cpp **** float DSY_SDRAM_BSS buf_r[MAX_SIZE_PER_CHANNEL];
 140:examples/looper.cpp **** QuantizedLooper looper_l, looper_r;
 141:examples/looper.cpp **** 
 142:examples/looper.cpp **** std::atomic<float> shared_cv_l{0.5f}, shared_cv_r{0.5f};
 143:examples/looper.cpp **** std::atomic<float> shared_knob_l{0.0f}, shared_knob_r{0.0f};
 144:examples/looper.cpp **** 
 145:examples/looper.cpp **** uint32_t last_oled_update = 0;
 146:examples/looper.cpp **** bool ignore_release = false;
 147:examples/looper.cpp **** 
 148:examples/looper.cpp **** void AudioCallback(AudioHandle::InputBuffer in, AudioHandle::OutputBuffer out, size_t size) {
 489              		.loc 14 148 93 is_stmt 1 view -0
 490              		.cfi_startproc
 491              		@ args = 0, pretend = 0, frame = 8
 492              		@ frame_needed = 0, uses_anonymous_args = 0
 149:examples/looper.cpp ****     float cl = shared_cv_l.load(std::memory_order_relaxed);
 493              		.loc 14 149 5 view .LVU109
 494              	.LBB671:
 495              	.LBI671:
 496              		.file 15 "c:\\users\\yaman\\downloads\\daisytoolchain-0.3.3\\daisytoolchain-0.3.3\\windows\\arm-no
   1:c:\users\yaman\downloads\daisytoolchain-0.3.3\daisytoolchain-0.3.3\windows\arm-none-eabi\include\c++\10.2.1\atomic **** // -*- C++ -*- header.
   2:c:\users\yaman\downloads\daisytoolchain-0.3.3\daisytoolchain-0.3.3\windows\arm-none-eabi\include\c++\10.2.1\atomic **** 
   3:c:\users\yaman\downloads\daisytoolchain-0.3.3\daisytoolchain-0.3.3\windows\arm-none-eabi\include\c++\10.2.1\atomic **** // Copyright (C) 2008-2020 Free Software Foundation, Inc.
   4:c:\users\yaman\downloads\daisytoolchain-0.3.3\daisytoolchain-0.3.3\windows\arm-none-eabi\include\c++\10.2.1\atomic **** //
   5:c:\users\yaman\downloads\daisytoolchain-0.3.3\daisytoolchain-0.3.3\windows\arm-none-eabi\include\c++\10.2.1\atomic **** // This file is part of the GNU ISO C++ Library.  This library is free
   6:c:\users\yaman\downloads\daisytoolchain-0.3.3\daisytoolchain-0.3.3\windows\arm-none-eabi\include\c++\10.2.1\atomic **** // software; you can redistribute it and/or modify it under the
   7:c:\users\yaman\downloads\daisytoolchain-0.3.3\daisytoolchain-0.3.3\windows\arm-none-eabi\include\c++\10.2.1\atomic **** // terms of the GNU General Public License as published by the
   8:c:\users\yaman\downloads\daisytoolchain-0.3.3\daisytoolchain-0.3.3\windows\arm-none-eabi\include\c++\10.2.1\atomic **** // Free Software Foundation; either version 3, or (at your option)
   9:c:\users\yaman\downloads\daisytoolchain-0.3.3\daisytoolchain-0.3.3\windows\arm-none-eabi\include\c++\10.2.1\atomic **** // any later version.
  10:c:\users\yaman\downloads\daisytoolchain-0.3.3\daisytoolchain-0.3.3\windows\arm-none-eabi\include\c++\10.2.1\atomic **** 
  11:c:\users\yaman\downloads\daisytoolchain-0.3.3\daisytoolchain-0.3.3\windows\arm-none-eabi\include\c++\10.2.1\atomic **** // This library is distributed in the hope that it will be useful,
  12:c:\users\yaman\downloads\daisytoolchain-0.3.3\daisytoolchain-0.3.3\windows\arm-none-eabi\include\c++\10.2.1\atomic **** // but WITHOUT ANY WARRANTY; without even the implied warranty of
  13:c:\users\yaman\downloads\daisytoolchain-0.3.3\daisytoolchain-0.3.3\windows\arm-none-eabi\include\c++\10.2.1\atomic **** // MERCHANTABILITY or FITNESS FOR A PARTICULAR PURPOSE.  See the
  14:c:\users\yaman\downloads\daisytoolchain-0.3.3\daisytoolchain-0.3.3\windows\arm-none-eabi\include\c++\10.2.1\atomic **** // GNU General Public License for more details.
  15:c:\users\yaman\downloads\daisytoolchain-0.3.3\daisytoolchain-0.3.3\windows\arm-none-eabi\include\c++\10.2.1\atomic **** 
  16:c:\users\yaman\downloads\daisytoolchain-0.3.3\daisytoolchain-0.3.3\windows\arm-none-eabi\include\c++\10.2.1\atomic **** // Under Section 7 of GPL version 3, you are granted additional
  17:c:\users\yaman\downloads\daisytoolchain-0.3.3\daisytoolchain-0.3.3\windows\arm-none-eabi\include\c++\10.2.1\atomic **** // permissions described in the GCC Runtime Library Exception, version
  18:c:\users\yaman\downloads\daisytoolchain-0.3.3\daisytoolchain-0.3.3\windows\arm-none-eabi\include\c++\10.2.1\atomic **** // 3.1, as published by the Free Software Foundation.
  19:c:\users\yaman\downloads\daisytoolchain-0.3.3\daisytoolchain-0.3.3\windows\arm-none-eabi\include\c++\10.2.1\atomic **** 
  20:c:\users\yaman\downloads\daisytoolchain-0.3.3\daisytoolchain-0.3.3\windows\arm-none-eabi\include\c++\10.2.1\atomic **** // You should have received a copy of the GNU General Public License and
  21:c:\users\yaman\downloads\daisytoolchain-0.3.3\daisytoolchain-0.3.3\windows\arm-none-eabi\include\c++\10.2.1\atomic **** // a copy of the GCC Runtime Library Exception along with this program;
  22:c:\users\yaman\downloads\daisytoolchain-0.3.3\daisytoolchain-0.3.3\windows\arm-none-eabi\include\c++\10.2.1\atomic **** // see the files COPYING3 and COPYING.RUNTIME respectively.  If not, see
  23:c:\users\yaman\downloads\daisytoolchain-0.3.3\daisytoolchain-0.3.3\windows\arm-none-eabi\include\c++\10.2.1\atomic **** // <http://www.gnu.org/licenses/>.
  24:c:\users\yaman\downloads\daisytoolchain-0.3.3\daisytoolchain-0.3.3\windows\arm-none-eabi\include\c++\10.2.1\atomic **** 
ARM GAS  C:\Users\yaman\AppData\Local\Temp\ccCu6FW5.s 			page 33


  25:c:\users\yaman\downloads\daisytoolchain-0.3.3\daisytoolchain-0.3.3\windows\arm-none-eabi\include\c++\10.2.1\atomic **** /** @file include/atomic
  26:c:\users\yaman\downloads\daisytoolchain-0.3.3\daisytoolchain-0.3.3\windows\arm-none-eabi\include\c++\10.2.1\atomic ****  *  This is a Standard C++ Library header.
  27:c:\users\yaman\downloads\daisytoolchain-0.3.3\daisytoolchain-0.3.3\windows\arm-none-eabi\include\c++\10.2.1\atomic ****  */
  28:c:\users\yaman\downloads\daisytoolchain-0.3.3\daisytoolchain-0.3.3\windows\arm-none-eabi\include\c++\10.2.1\atomic **** 
  29:c:\users\yaman\downloads\daisytoolchain-0.3.3\daisytoolchain-0.3.3\windows\arm-none-eabi\include\c++\10.2.1\atomic **** // Based on "C++ Atomic Types and Operations" by Hans Boehm and Lawrence Crowl.
  30:c:\users\yaman\downloads\daisytoolchain-0.3.3\daisytoolchain-0.3.3\windows\arm-none-eabi\include\c++\10.2.1\atomic **** // http://www.open-std.org/jtc1/sc22/wg21/docs/papers/2007/n2427.html
  31:c:\users\yaman\downloads\daisytoolchain-0.3.3\daisytoolchain-0.3.3\windows\arm-none-eabi\include\c++\10.2.1\atomic **** 
  32:c:\users\yaman\downloads\daisytoolchain-0.3.3\daisytoolchain-0.3.3\windows\arm-none-eabi\include\c++\10.2.1\atomic **** #ifndef _GLIBCXX_ATOMIC
  33:c:\users\yaman\downloads\daisytoolchain-0.3.3\daisytoolchain-0.3.3\windows\arm-none-eabi\include\c++\10.2.1\atomic **** #define _GLIBCXX_ATOMIC 1
  34:c:\users\yaman\downloads\daisytoolchain-0.3.3\daisytoolchain-0.3.3\windows\arm-none-eabi\include\c++\10.2.1\atomic **** 
  35:c:\users\yaman\downloads\daisytoolchain-0.3.3\daisytoolchain-0.3.3\windows\arm-none-eabi\include\c++\10.2.1\atomic **** #pragma GCC system_header
  36:c:\users\yaman\downloads\daisytoolchain-0.3.3\daisytoolchain-0.3.3\windows\arm-none-eabi\include\c++\10.2.1\atomic **** 
  37:c:\users\yaman\downloads\daisytoolchain-0.3.3\daisytoolchain-0.3.3\windows\arm-none-eabi\include\c++\10.2.1\atomic **** #if __cplusplus < 201103L
  38:c:\users\yaman\downloads\daisytoolchain-0.3.3\daisytoolchain-0.3.3\windows\arm-none-eabi\include\c++\10.2.1\atomic **** # include <bits/c++0x_warning.h>
  39:c:\users\yaman\downloads\daisytoolchain-0.3.3\daisytoolchain-0.3.3\windows\arm-none-eabi\include\c++\10.2.1\atomic **** #else
  40:c:\users\yaman\downloads\daisytoolchain-0.3.3\daisytoolchain-0.3.3\windows\arm-none-eabi\include\c++\10.2.1\atomic **** 
  41:c:\users\yaman\downloads\daisytoolchain-0.3.3\daisytoolchain-0.3.3\windows\arm-none-eabi\include\c++\10.2.1\atomic **** #include <bits/atomic_base.h>
  42:c:\users\yaman\downloads\daisytoolchain-0.3.3\daisytoolchain-0.3.3\windows\arm-none-eabi\include\c++\10.2.1\atomic **** 
  43:c:\users\yaman\downloads\daisytoolchain-0.3.3\daisytoolchain-0.3.3\windows\arm-none-eabi\include\c++\10.2.1\atomic **** namespace std _GLIBCXX_VISIBILITY(default)
  44:c:\users\yaman\downloads\daisytoolchain-0.3.3\daisytoolchain-0.3.3\windows\arm-none-eabi\include\c++\10.2.1\atomic **** {
  45:c:\users\yaman\downloads\daisytoolchain-0.3.3\daisytoolchain-0.3.3\windows\arm-none-eabi\include\c++\10.2.1\atomic **** _GLIBCXX_BEGIN_NAMESPACE_VERSION
  46:c:\users\yaman\downloads\daisytoolchain-0.3.3\daisytoolchain-0.3.3\windows\arm-none-eabi\include\c++\10.2.1\atomic **** 
  47:c:\users\yaman\downloads\daisytoolchain-0.3.3\daisytoolchain-0.3.3\windows\arm-none-eabi\include\c++\10.2.1\atomic ****   /**
  48:c:\users\yaman\downloads\daisytoolchain-0.3.3\daisytoolchain-0.3.3\windows\arm-none-eabi\include\c++\10.2.1\atomic ****    * @addtogroup atomics
  49:c:\users\yaman\downloads\daisytoolchain-0.3.3\daisytoolchain-0.3.3\windows\arm-none-eabi\include\c++\10.2.1\atomic ****    * @{
  50:c:\users\yaman\downloads\daisytoolchain-0.3.3\daisytoolchain-0.3.3\windows\arm-none-eabi\include\c++\10.2.1\atomic ****    */
  51:c:\users\yaman\downloads\daisytoolchain-0.3.3\daisytoolchain-0.3.3\windows\arm-none-eabi\include\c++\10.2.1\atomic **** 
  52:c:\users\yaman\downloads\daisytoolchain-0.3.3\daisytoolchain-0.3.3\windows\arm-none-eabi\include\c++\10.2.1\atomic **** #if __cplusplus >= 201703L
  53:c:\users\yaman\downloads\daisytoolchain-0.3.3\daisytoolchain-0.3.3\windows\arm-none-eabi\include\c++\10.2.1\atomic **** # define __cpp_lib_atomic_is_always_lock_free 201603
  54:c:\users\yaman\downloads\daisytoolchain-0.3.3\daisytoolchain-0.3.3\windows\arm-none-eabi\include\c++\10.2.1\atomic **** #endif
  55:c:\users\yaman\downloads\daisytoolchain-0.3.3\daisytoolchain-0.3.3\windows\arm-none-eabi\include\c++\10.2.1\atomic **** 
  56:c:\users\yaman\downloads\daisytoolchain-0.3.3\daisytoolchain-0.3.3\windows\arm-none-eabi\include\c++\10.2.1\atomic ****   template<typename _Tp>
  57:c:\users\yaman\downloads\daisytoolchain-0.3.3\daisytoolchain-0.3.3\windows\arm-none-eabi\include\c++\10.2.1\atomic ****     struct atomic;
  58:c:\users\yaman\downloads\daisytoolchain-0.3.3\daisytoolchain-0.3.3\windows\arm-none-eabi\include\c++\10.2.1\atomic **** 
  59:c:\users\yaman\downloads\daisytoolchain-0.3.3\daisytoolchain-0.3.3\windows\arm-none-eabi\include\c++\10.2.1\atomic ****   /// atomic<bool>
  60:c:\users\yaman\downloads\daisytoolchain-0.3.3\daisytoolchain-0.3.3\windows\arm-none-eabi\include\c++\10.2.1\atomic ****   // NB: No operators or fetch-operations for this type.
  61:c:\users\yaman\downloads\daisytoolchain-0.3.3\daisytoolchain-0.3.3\windows\arm-none-eabi\include\c++\10.2.1\atomic ****   template<>
  62:c:\users\yaman\downloads\daisytoolchain-0.3.3\daisytoolchain-0.3.3\windows\arm-none-eabi\include\c++\10.2.1\atomic ****   struct atomic<bool>
  63:c:\users\yaman\downloads\daisytoolchain-0.3.3\daisytoolchain-0.3.3\windows\arm-none-eabi\include\c++\10.2.1\atomic ****   {
  64:c:\users\yaman\downloads\daisytoolchain-0.3.3\daisytoolchain-0.3.3\windows\arm-none-eabi\include\c++\10.2.1\atomic ****     using value_type = bool;
  65:c:\users\yaman\downloads\daisytoolchain-0.3.3\daisytoolchain-0.3.3\windows\arm-none-eabi\include\c++\10.2.1\atomic **** 
  66:c:\users\yaman\downloads\daisytoolchain-0.3.3\daisytoolchain-0.3.3\windows\arm-none-eabi\include\c++\10.2.1\atomic ****   private:
  67:c:\users\yaman\downloads\daisytoolchain-0.3.3\daisytoolchain-0.3.3\windows\arm-none-eabi\include\c++\10.2.1\atomic ****     __atomic_base<bool>	_M_base;
  68:c:\users\yaman\downloads\daisytoolchain-0.3.3\daisytoolchain-0.3.3\windows\arm-none-eabi\include\c++\10.2.1\atomic **** 
  69:c:\users\yaman\downloads\daisytoolchain-0.3.3\daisytoolchain-0.3.3\windows\arm-none-eabi\include\c++\10.2.1\atomic ****   public:
  70:c:\users\yaman\downloads\daisytoolchain-0.3.3\daisytoolchain-0.3.3\windows\arm-none-eabi\include\c++\10.2.1\atomic ****     atomic() noexcept = default;
  71:c:\users\yaman\downloads\daisytoolchain-0.3.3\daisytoolchain-0.3.3\windows\arm-none-eabi\include\c++\10.2.1\atomic ****     ~atomic() noexcept = default;
  72:c:\users\yaman\downloads\daisytoolchain-0.3.3\daisytoolchain-0.3.3\windows\arm-none-eabi\include\c++\10.2.1\atomic ****     atomic(const atomic&) = delete;
  73:c:\users\yaman\downloads\daisytoolchain-0.3.3\daisytoolchain-0.3.3\windows\arm-none-eabi\include\c++\10.2.1\atomic ****     atomic& operator=(const atomic&) = delete;
  74:c:\users\yaman\downloads\daisytoolchain-0.3.3\daisytoolchain-0.3.3\windows\arm-none-eabi\include\c++\10.2.1\atomic ****     atomic& operator=(const atomic&) volatile = delete;
  75:c:\users\yaman\downloads\daisytoolchain-0.3.3\daisytoolchain-0.3.3\windows\arm-none-eabi\include\c++\10.2.1\atomic **** 
  76:c:\users\yaman\downloads\daisytoolchain-0.3.3\daisytoolchain-0.3.3\windows\arm-none-eabi\include\c++\10.2.1\atomic ****     constexpr atomic(bool __i) noexcept : _M_base(__i) { }
  77:c:\users\yaman\downloads\daisytoolchain-0.3.3\daisytoolchain-0.3.3\windows\arm-none-eabi\include\c++\10.2.1\atomic **** 
  78:c:\users\yaman\downloads\daisytoolchain-0.3.3\daisytoolchain-0.3.3\windows\arm-none-eabi\include\c++\10.2.1\atomic ****     bool
  79:c:\users\yaman\downloads\daisytoolchain-0.3.3\daisytoolchain-0.3.3\windows\arm-none-eabi\include\c++\10.2.1\atomic ****     operator=(bool __i) noexcept
  80:c:\users\yaman\downloads\daisytoolchain-0.3.3\daisytoolchain-0.3.3\windows\arm-none-eabi\include\c++\10.2.1\atomic ****     { return _M_base.operator=(__i); }
  81:c:\users\yaman\downloads\daisytoolchain-0.3.3\daisytoolchain-0.3.3\windows\arm-none-eabi\include\c++\10.2.1\atomic **** 
ARM GAS  C:\Users\yaman\AppData\Local\Temp\ccCu6FW5.s 			page 34


  82:c:\users\yaman\downloads\daisytoolchain-0.3.3\daisytoolchain-0.3.3\windows\arm-none-eabi\include\c++\10.2.1\atomic ****     bool
  83:c:\users\yaman\downloads\daisytoolchain-0.3.3\daisytoolchain-0.3.3\windows\arm-none-eabi\include\c++\10.2.1\atomic ****     operator=(bool __i) volatile noexcept
  84:c:\users\yaman\downloads\daisytoolchain-0.3.3\daisytoolchain-0.3.3\windows\arm-none-eabi\include\c++\10.2.1\atomic ****     { return _M_base.operator=(__i); }
  85:c:\users\yaman\downloads\daisytoolchain-0.3.3\daisytoolchain-0.3.3\windows\arm-none-eabi\include\c++\10.2.1\atomic **** 
  86:c:\users\yaman\downloads\daisytoolchain-0.3.3\daisytoolchain-0.3.3\windows\arm-none-eabi\include\c++\10.2.1\atomic ****     operator bool() const noexcept
  87:c:\users\yaman\downloads\daisytoolchain-0.3.3\daisytoolchain-0.3.3\windows\arm-none-eabi\include\c++\10.2.1\atomic ****     { return _M_base.load(); }
  88:c:\users\yaman\downloads\daisytoolchain-0.3.3\daisytoolchain-0.3.3\windows\arm-none-eabi\include\c++\10.2.1\atomic **** 
  89:c:\users\yaman\downloads\daisytoolchain-0.3.3\daisytoolchain-0.3.3\windows\arm-none-eabi\include\c++\10.2.1\atomic ****     operator bool() const volatile noexcept
  90:c:\users\yaman\downloads\daisytoolchain-0.3.3\daisytoolchain-0.3.3\windows\arm-none-eabi\include\c++\10.2.1\atomic ****     { return _M_base.load(); }
  91:c:\users\yaman\downloads\daisytoolchain-0.3.3\daisytoolchain-0.3.3\windows\arm-none-eabi\include\c++\10.2.1\atomic **** 
  92:c:\users\yaman\downloads\daisytoolchain-0.3.3\daisytoolchain-0.3.3\windows\arm-none-eabi\include\c++\10.2.1\atomic ****     bool
  93:c:\users\yaman\downloads\daisytoolchain-0.3.3\daisytoolchain-0.3.3\windows\arm-none-eabi\include\c++\10.2.1\atomic ****     is_lock_free() const noexcept { return _M_base.is_lock_free(); }
  94:c:\users\yaman\downloads\daisytoolchain-0.3.3\daisytoolchain-0.3.3\windows\arm-none-eabi\include\c++\10.2.1\atomic **** 
  95:c:\users\yaman\downloads\daisytoolchain-0.3.3\daisytoolchain-0.3.3\windows\arm-none-eabi\include\c++\10.2.1\atomic ****     bool
  96:c:\users\yaman\downloads\daisytoolchain-0.3.3\daisytoolchain-0.3.3\windows\arm-none-eabi\include\c++\10.2.1\atomic ****     is_lock_free() const volatile noexcept { return _M_base.is_lock_free(); }
  97:c:\users\yaman\downloads\daisytoolchain-0.3.3\daisytoolchain-0.3.3\windows\arm-none-eabi\include\c++\10.2.1\atomic **** 
  98:c:\users\yaman\downloads\daisytoolchain-0.3.3\daisytoolchain-0.3.3\windows\arm-none-eabi\include\c++\10.2.1\atomic **** #if __cplusplus >= 201703L
  99:c:\users\yaman\downloads\daisytoolchain-0.3.3\daisytoolchain-0.3.3\windows\arm-none-eabi\include\c++\10.2.1\atomic ****     static constexpr bool is_always_lock_free = ATOMIC_BOOL_LOCK_FREE == 2;
 100:c:\users\yaman\downloads\daisytoolchain-0.3.3\daisytoolchain-0.3.3\windows\arm-none-eabi\include\c++\10.2.1\atomic **** #endif
 101:c:\users\yaman\downloads\daisytoolchain-0.3.3\daisytoolchain-0.3.3\windows\arm-none-eabi\include\c++\10.2.1\atomic **** 
 102:c:\users\yaman\downloads\daisytoolchain-0.3.3\daisytoolchain-0.3.3\windows\arm-none-eabi\include\c++\10.2.1\atomic ****     void
 103:c:\users\yaman\downloads\daisytoolchain-0.3.3\daisytoolchain-0.3.3\windows\arm-none-eabi\include\c++\10.2.1\atomic ****     store(bool __i, memory_order __m = memory_order_seq_cst) noexcept
 104:c:\users\yaman\downloads\daisytoolchain-0.3.3\daisytoolchain-0.3.3\windows\arm-none-eabi\include\c++\10.2.1\atomic ****     { _M_base.store(__i, __m); }
 105:c:\users\yaman\downloads\daisytoolchain-0.3.3\daisytoolchain-0.3.3\windows\arm-none-eabi\include\c++\10.2.1\atomic **** 
 106:c:\users\yaman\downloads\daisytoolchain-0.3.3\daisytoolchain-0.3.3\windows\arm-none-eabi\include\c++\10.2.1\atomic ****     void
 107:c:\users\yaman\downloads\daisytoolchain-0.3.3\daisytoolchain-0.3.3\windows\arm-none-eabi\include\c++\10.2.1\atomic ****     store(bool __i, memory_order __m = memory_order_seq_cst) volatile noexcept
 108:c:\users\yaman\downloads\daisytoolchain-0.3.3\daisytoolchain-0.3.3\windows\arm-none-eabi\include\c++\10.2.1\atomic ****     { _M_base.store(__i, __m); }
 109:c:\users\yaman\downloads\daisytoolchain-0.3.3\daisytoolchain-0.3.3\windows\arm-none-eabi\include\c++\10.2.1\atomic **** 
 110:c:\users\yaman\downloads\daisytoolchain-0.3.3\daisytoolchain-0.3.3\windows\arm-none-eabi\include\c++\10.2.1\atomic ****     bool
 111:c:\users\yaman\downloads\daisytoolchain-0.3.3\daisytoolchain-0.3.3\windows\arm-none-eabi\include\c++\10.2.1\atomic ****     load(memory_order __m = memory_order_seq_cst) const noexcept
 112:c:\users\yaman\downloads\daisytoolchain-0.3.3\daisytoolchain-0.3.3\windows\arm-none-eabi\include\c++\10.2.1\atomic ****     { return _M_base.load(__m); }
 113:c:\users\yaman\downloads\daisytoolchain-0.3.3\daisytoolchain-0.3.3\windows\arm-none-eabi\include\c++\10.2.1\atomic **** 
 114:c:\users\yaman\downloads\daisytoolchain-0.3.3\daisytoolchain-0.3.3\windows\arm-none-eabi\include\c++\10.2.1\atomic ****     bool
 115:c:\users\yaman\downloads\daisytoolchain-0.3.3\daisytoolchain-0.3.3\windows\arm-none-eabi\include\c++\10.2.1\atomic ****     load(memory_order __m = memory_order_seq_cst) const volatile noexcept
 116:c:\users\yaman\downloads\daisytoolchain-0.3.3\daisytoolchain-0.3.3\windows\arm-none-eabi\include\c++\10.2.1\atomic ****     { return _M_base.load(__m); }
 117:c:\users\yaman\downloads\daisytoolchain-0.3.3\daisytoolchain-0.3.3\windows\arm-none-eabi\include\c++\10.2.1\atomic **** 
 118:c:\users\yaman\downloads\daisytoolchain-0.3.3\daisytoolchain-0.3.3\windows\arm-none-eabi\include\c++\10.2.1\atomic ****     bool
 119:c:\users\yaman\downloads\daisytoolchain-0.3.3\daisytoolchain-0.3.3\windows\arm-none-eabi\include\c++\10.2.1\atomic ****     exchange(bool __i, memory_order __m = memory_order_seq_cst) noexcept
 120:c:\users\yaman\downloads\daisytoolchain-0.3.3\daisytoolchain-0.3.3\windows\arm-none-eabi\include\c++\10.2.1\atomic ****     { return _M_base.exchange(__i, __m); }
 121:c:\users\yaman\downloads\daisytoolchain-0.3.3\daisytoolchain-0.3.3\windows\arm-none-eabi\include\c++\10.2.1\atomic **** 
 122:c:\users\yaman\downloads\daisytoolchain-0.3.3\daisytoolchain-0.3.3\windows\arm-none-eabi\include\c++\10.2.1\atomic ****     bool
 123:c:\users\yaman\downloads\daisytoolchain-0.3.3\daisytoolchain-0.3.3\windows\arm-none-eabi\include\c++\10.2.1\atomic ****     exchange(bool __i,
 124:c:\users\yaman\downloads\daisytoolchain-0.3.3\daisytoolchain-0.3.3\windows\arm-none-eabi\include\c++\10.2.1\atomic **** 	     memory_order __m = memory_order_seq_cst) volatile noexcept
 125:c:\users\yaman\downloads\daisytoolchain-0.3.3\daisytoolchain-0.3.3\windows\arm-none-eabi\include\c++\10.2.1\atomic ****     { return _M_base.exchange(__i, __m); }
 126:c:\users\yaman\downloads\daisytoolchain-0.3.3\daisytoolchain-0.3.3\windows\arm-none-eabi\include\c++\10.2.1\atomic **** 
 127:c:\users\yaman\downloads\daisytoolchain-0.3.3\daisytoolchain-0.3.3\windows\arm-none-eabi\include\c++\10.2.1\atomic ****     bool
 128:c:\users\yaman\downloads\daisytoolchain-0.3.3\daisytoolchain-0.3.3\windows\arm-none-eabi\include\c++\10.2.1\atomic ****     compare_exchange_weak(bool& __i1, bool __i2, memory_order __m1,
 129:c:\users\yaman\downloads\daisytoolchain-0.3.3\daisytoolchain-0.3.3\windows\arm-none-eabi\include\c++\10.2.1\atomic **** 			  memory_order __m2) noexcept
 130:c:\users\yaman\downloads\daisytoolchain-0.3.3\daisytoolchain-0.3.3\windows\arm-none-eabi\include\c++\10.2.1\atomic ****     { return _M_base.compare_exchange_weak(__i1, __i2, __m1, __m2); }
 131:c:\users\yaman\downloads\daisytoolchain-0.3.3\daisytoolchain-0.3.3\windows\arm-none-eabi\include\c++\10.2.1\atomic **** 
 132:c:\users\yaman\downloads\daisytoolchain-0.3.3\daisytoolchain-0.3.3\windows\arm-none-eabi\include\c++\10.2.1\atomic ****     bool
 133:c:\users\yaman\downloads\daisytoolchain-0.3.3\daisytoolchain-0.3.3\windows\arm-none-eabi\include\c++\10.2.1\atomic ****     compare_exchange_weak(bool& __i1, bool __i2, memory_order __m1,
 134:c:\users\yaman\downloads\daisytoolchain-0.3.3\daisytoolchain-0.3.3\windows\arm-none-eabi\include\c++\10.2.1\atomic **** 			  memory_order __m2) volatile noexcept
 135:c:\users\yaman\downloads\daisytoolchain-0.3.3\daisytoolchain-0.3.3\windows\arm-none-eabi\include\c++\10.2.1\atomic ****     { return _M_base.compare_exchange_weak(__i1, __i2, __m1, __m2); }
 136:c:\users\yaman\downloads\daisytoolchain-0.3.3\daisytoolchain-0.3.3\windows\arm-none-eabi\include\c++\10.2.1\atomic **** 
 137:c:\users\yaman\downloads\daisytoolchain-0.3.3\daisytoolchain-0.3.3\windows\arm-none-eabi\include\c++\10.2.1\atomic ****     bool
 138:c:\users\yaman\downloads\daisytoolchain-0.3.3\daisytoolchain-0.3.3\windows\arm-none-eabi\include\c++\10.2.1\atomic ****     compare_exchange_weak(bool& __i1, bool __i2,
ARM GAS  C:\Users\yaman\AppData\Local\Temp\ccCu6FW5.s 			page 35


 139:c:\users\yaman\downloads\daisytoolchain-0.3.3\daisytoolchain-0.3.3\windows\arm-none-eabi\include\c++\10.2.1\atomic **** 			  memory_order __m = memory_order_seq_cst) noexcept
 140:c:\users\yaman\downloads\daisytoolchain-0.3.3\daisytoolchain-0.3.3\windows\arm-none-eabi\include\c++\10.2.1\atomic ****     { return _M_base.compare_exchange_weak(__i1, __i2, __m); }
 141:c:\users\yaman\downloads\daisytoolchain-0.3.3\daisytoolchain-0.3.3\windows\arm-none-eabi\include\c++\10.2.1\atomic **** 
 142:c:\users\yaman\downloads\daisytoolchain-0.3.3\daisytoolchain-0.3.3\windows\arm-none-eabi\include\c++\10.2.1\atomic ****     bool
 143:c:\users\yaman\downloads\daisytoolchain-0.3.3\daisytoolchain-0.3.3\windows\arm-none-eabi\include\c++\10.2.1\atomic ****     compare_exchange_weak(bool& __i1, bool __i2,
 144:c:\users\yaman\downloads\daisytoolchain-0.3.3\daisytoolchain-0.3.3\windows\arm-none-eabi\include\c++\10.2.1\atomic **** 		     memory_order __m = memory_order_seq_cst) volatile noexcept
 145:c:\users\yaman\downloads\daisytoolchain-0.3.3\daisytoolchain-0.3.3\windows\arm-none-eabi\include\c++\10.2.1\atomic ****     { return _M_base.compare_exchange_weak(__i1, __i2, __m); }
 146:c:\users\yaman\downloads\daisytoolchain-0.3.3\daisytoolchain-0.3.3\windows\arm-none-eabi\include\c++\10.2.1\atomic **** 
 147:c:\users\yaman\downloads\daisytoolchain-0.3.3\daisytoolchain-0.3.3\windows\arm-none-eabi\include\c++\10.2.1\atomic ****     bool
 148:c:\users\yaman\downloads\daisytoolchain-0.3.3\daisytoolchain-0.3.3\windows\arm-none-eabi\include\c++\10.2.1\atomic ****     compare_exchange_strong(bool& __i1, bool __i2, memory_order __m1,
 149:c:\users\yaman\downloads\daisytoolchain-0.3.3\daisytoolchain-0.3.3\windows\arm-none-eabi\include\c++\10.2.1\atomic **** 			    memory_order __m2) noexcept
 150:c:\users\yaman\downloads\daisytoolchain-0.3.3\daisytoolchain-0.3.3\windows\arm-none-eabi\include\c++\10.2.1\atomic ****     { return _M_base.compare_exchange_strong(__i1, __i2, __m1, __m2); }
 151:c:\users\yaman\downloads\daisytoolchain-0.3.3\daisytoolchain-0.3.3\windows\arm-none-eabi\include\c++\10.2.1\atomic **** 
 152:c:\users\yaman\downloads\daisytoolchain-0.3.3\daisytoolchain-0.3.3\windows\arm-none-eabi\include\c++\10.2.1\atomic ****     bool
 153:c:\users\yaman\downloads\daisytoolchain-0.3.3\daisytoolchain-0.3.3\windows\arm-none-eabi\include\c++\10.2.1\atomic ****     compare_exchange_strong(bool& __i1, bool __i2, memory_order __m1,
 154:c:\users\yaman\downloads\daisytoolchain-0.3.3\daisytoolchain-0.3.3\windows\arm-none-eabi\include\c++\10.2.1\atomic **** 			    memory_order __m2) volatile noexcept
 155:c:\users\yaman\downloads\daisytoolchain-0.3.3\daisytoolchain-0.3.3\windows\arm-none-eabi\include\c++\10.2.1\atomic ****     { return _M_base.compare_exchange_strong(__i1, __i2, __m1, __m2); }
 156:c:\users\yaman\downloads\daisytoolchain-0.3.3\daisytoolchain-0.3.3\windows\arm-none-eabi\include\c++\10.2.1\atomic **** 
 157:c:\users\yaman\downloads\daisytoolchain-0.3.3\daisytoolchain-0.3.3\windows\arm-none-eabi\include\c++\10.2.1\atomic ****     bool
 158:c:\users\yaman\downloads\daisytoolchain-0.3.3\daisytoolchain-0.3.3\windows\arm-none-eabi\include\c++\10.2.1\atomic ****     compare_exchange_strong(bool& __i1, bool __i2,
 159:c:\users\yaman\downloads\daisytoolchain-0.3.3\daisytoolchain-0.3.3\windows\arm-none-eabi\include\c++\10.2.1\atomic **** 			    memory_order __m = memory_order_seq_cst) noexcept
 160:c:\users\yaman\downloads\daisytoolchain-0.3.3\daisytoolchain-0.3.3\windows\arm-none-eabi\include\c++\10.2.1\atomic ****     { return _M_base.compare_exchange_strong(__i1, __i2, __m); }
 161:c:\users\yaman\downloads\daisytoolchain-0.3.3\daisytoolchain-0.3.3\windows\arm-none-eabi\include\c++\10.2.1\atomic **** 
 162:c:\users\yaman\downloads\daisytoolchain-0.3.3\daisytoolchain-0.3.3\windows\arm-none-eabi\include\c++\10.2.1\atomic ****     bool
 163:c:\users\yaman\downloads\daisytoolchain-0.3.3\daisytoolchain-0.3.3\windows\arm-none-eabi\include\c++\10.2.1\atomic ****     compare_exchange_strong(bool& __i1, bool __i2,
 164:c:\users\yaman\downloads\daisytoolchain-0.3.3\daisytoolchain-0.3.3\windows\arm-none-eabi\include\c++\10.2.1\atomic **** 		    memory_order __m = memory_order_seq_cst) volatile noexcept
 165:c:\users\yaman\downloads\daisytoolchain-0.3.3\daisytoolchain-0.3.3\windows\arm-none-eabi\include\c++\10.2.1\atomic ****     { return _M_base.compare_exchange_strong(__i1, __i2, __m); }
 166:c:\users\yaman\downloads\daisytoolchain-0.3.3\daisytoolchain-0.3.3\windows\arm-none-eabi\include\c++\10.2.1\atomic ****   };
 167:c:\users\yaman\downloads\daisytoolchain-0.3.3\daisytoolchain-0.3.3\windows\arm-none-eabi\include\c++\10.2.1\atomic **** 
 168:c:\users\yaman\downloads\daisytoolchain-0.3.3\daisytoolchain-0.3.3\windows\arm-none-eabi\include\c++\10.2.1\atomic **** #if __cplusplus <= 201703L
 169:c:\users\yaman\downloads\daisytoolchain-0.3.3\daisytoolchain-0.3.3\windows\arm-none-eabi\include\c++\10.2.1\atomic **** # define _GLIBCXX20_INIT(I)
 170:c:\users\yaman\downloads\daisytoolchain-0.3.3\daisytoolchain-0.3.3\windows\arm-none-eabi\include\c++\10.2.1\atomic **** #else
 171:c:\users\yaman\downloads\daisytoolchain-0.3.3\daisytoolchain-0.3.3\windows\arm-none-eabi\include\c++\10.2.1\atomic **** # define _GLIBCXX20_INIT(I) = I
 172:c:\users\yaman\downloads\daisytoolchain-0.3.3\daisytoolchain-0.3.3\windows\arm-none-eabi\include\c++\10.2.1\atomic **** #endif
 173:c:\users\yaman\downloads\daisytoolchain-0.3.3\daisytoolchain-0.3.3\windows\arm-none-eabi\include\c++\10.2.1\atomic **** 
 174:c:\users\yaman\downloads\daisytoolchain-0.3.3\daisytoolchain-0.3.3\windows\arm-none-eabi\include\c++\10.2.1\atomic ****   /**
 175:c:\users\yaman\downloads\daisytoolchain-0.3.3\daisytoolchain-0.3.3\windows\arm-none-eabi\include\c++\10.2.1\atomic ****    *  @brief Generic atomic type, primary class template.
 176:c:\users\yaman\downloads\daisytoolchain-0.3.3\daisytoolchain-0.3.3\windows\arm-none-eabi\include\c++\10.2.1\atomic ****    *
 177:c:\users\yaman\downloads\daisytoolchain-0.3.3\daisytoolchain-0.3.3\windows\arm-none-eabi\include\c++\10.2.1\atomic ****    *  @tparam _Tp  Type to be made atomic, must be trivially copyable.
 178:c:\users\yaman\downloads\daisytoolchain-0.3.3\daisytoolchain-0.3.3\windows\arm-none-eabi\include\c++\10.2.1\atomic ****    */
 179:c:\users\yaman\downloads\daisytoolchain-0.3.3\daisytoolchain-0.3.3\windows\arm-none-eabi\include\c++\10.2.1\atomic ****   template<typename _Tp>
 180:c:\users\yaman\downloads\daisytoolchain-0.3.3\daisytoolchain-0.3.3\windows\arm-none-eabi\include\c++\10.2.1\atomic ****     struct atomic
 181:c:\users\yaman\downloads\daisytoolchain-0.3.3\daisytoolchain-0.3.3\windows\arm-none-eabi\include\c++\10.2.1\atomic ****     {
 182:c:\users\yaman\downloads\daisytoolchain-0.3.3\daisytoolchain-0.3.3\windows\arm-none-eabi\include\c++\10.2.1\atomic ****       using value_type = _Tp;
 183:c:\users\yaman\downloads\daisytoolchain-0.3.3\daisytoolchain-0.3.3\windows\arm-none-eabi\include\c++\10.2.1\atomic **** 
 184:c:\users\yaman\downloads\daisytoolchain-0.3.3\daisytoolchain-0.3.3\windows\arm-none-eabi\include\c++\10.2.1\atomic ****     private:
 185:c:\users\yaman\downloads\daisytoolchain-0.3.3\daisytoolchain-0.3.3\windows\arm-none-eabi\include\c++\10.2.1\atomic ****       // Align 1/2/4/8/16-byte types to at least their size.
 186:c:\users\yaman\downloads\daisytoolchain-0.3.3\daisytoolchain-0.3.3\windows\arm-none-eabi\include\c++\10.2.1\atomic ****       static constexpr int _S_min_alignment
 187:c:\users\yaman\downloads\daisytoolchain-0.3.3\daisytoolchain-0.3.3\windows\arm-none-eabi\include\c++\10.2.1\atomic **** 	= (sizeof(_Tp) & (sizeof(_Tp) - 1)) || sizeof(_Tp) > 16
 188:c:\users\yaman\downloads\daisytoolchain-0.3.3\daisytoolchain-0.3.3\windows\arm-none-eabi\include\c++\10.2.1\atomic **** 	? 0 : sizeof(_Tp);
 189:c:\users\yaman\downloads\daisytoolchain-0.3.3\daisytoolchain-0.3.3\windows\arm-none-eabi\include\c++\10.2.1\atomic **** 
 190:c:\users\yaman\downloads\daisytoolchain-0.3.3\daisytoolchain-0.3.3\windows\arm-none-eabi\include\c++\10.2.1\atomic ****       static constexpr int _S_alignment
 191:c:\users\yaman\downloads\daisytoolchain-0.3.3\daisytoolchain-0.3.3\windows\arm-none-eabi\include\c++\10.2.1\atomic ****         = _S_min_alignment > alignof(_Tp) ? _S_min_alignment : alignof(_Tp);
 192:c:\users\yaman\downloads\daisytoolchain-0.3.3\daisytoolchain-0.3.3\windows\arm-none-eabi\include\c++\10.2.1\atomic **** 
 193:c:\users\yaman\downloads\daisytoolchain-0.3.3\daisytoolchain-0.3.3\windows\arm-none-eabi\include\c++\10.2.1\atomic ****       alignas(_S_alignment) _Tp _M_i _GLIBCXX20_INIT(_Tp());
 194:c:\users\yaman\downloads\daisytoolchain-0.3.3\daisytoolchain-0.3.3\windows\arm-none-eabi\include\c++\10.2.1\atomic **** 
 195:c:\users\yaman\downloads\daisytoolchain-0.3.3\daisytoolchain-0.3.3\windows\arm-none-eabi\include\c++\10.2.1\atomic ****       static_assert(__is_trivially_copyable(_Tp),
ARM GAS  C:\Users\yaman\AppData\Local\Temp\ccCu6FW5.s 			page 36


 196:c:\users\yaman\downloads\daisytoolchain-0.3.3\daisytoolchain-0.3.3\windows\arm-none-eabi\include\c++\10.2.1\atomic **** 		    "std::atomic requires a trivially copyable type");
 197:c:\users\yaman\downloads\daisytoolchain-0.3.3\daisytoolchain-0.3.3\windows\arm-none-eabi\include\c++\10.2.1\atomic **** 
 198:c:\users\yaman\downloads\daisytoolchain-0.3.3\daisytoolchain-0.3.3\windows\arm-none-eabi\include\c++\10.2.1\atomic ****       static_assert(sizeof(_Tp) > 0,
 199:c:\users\yaman\downloads\daisytoolchain-0.3.3\daisytoolchain-0.3.3\windows\arm-none-eabi\include\c++\10.2.1\atomic **** 		    "Incomplete or zero-sized types are not supported");
 200:c:\users\yaman\downloads\daisytoolchain-0.3.3\daisytoolchain-0.3.3\windows\arm-none-eabi\include\c++\10.2.1\atomic **** 
 201:c:\users\yaman\downloads\daisytoolchain-0.3.3\daisytoolchain-0.3.3\windows\arm-none-eabi\include\c++\10.2.1\atomic ****     public:
 202:c:\users\yaman\downloads\daisytoolchain-0.3.3\daisytoolchain-0.3.3\windows\arm-none-eabi\include\c++\10.2.1\atomic ****       atomic() = default;
 203:c:\users\yaman\downloads\daisytoolchain-0.3.3\daisytoolchain-0.3.3\windows\arm-none-eabi\include\c++\10.2.1\atomic ****       ~atomic() noexcept = default;
 204:c:\users\yaman\downloads\daisytoolchain-0.3.3\daisytoolchain-0.3.3\windows\arm-none-eabi\include\c++\10.2.1\atomic ****       atomic(const atomic&) = delete;
 205:c:\users\yaman\downloads\daisytoolchain-0.3.3\daisytoolchain-0.3.3\windows\arm-none-eabi\include\c++\10.2.1\atomic ****       atomic& operator=(const atomic&) = delete;
 206:c:\users\yaman\downloads\daisytoolchain-0.3.3\daisytoolchain-0.3.3\windows\arm-none-eabi\include\c++\10.2.1\atomic ****       atomic& operator=(const atomic&) volatile = delete;
 207:c:\users\yaman\downloads\daisytoolchain-0.3.3\daisytoolchain-0.3.3\windows\arm-none-eabi\include\c++\10.2.1\atomic **** 
 208:c:\users\yaman\downloads\daisytoolchain-0.3.3\daisytoolchain-0.3.3\windows\arm-none-eabi\include\c++\10.2.1\atomic ****       constexpr atomic(_Tp __i) noexcept : _M_i(__i) { }
 209:c:\users\yaman\downloads\daisytoolchain-0.3.3\daisytoolchain-0.3.3\windows\arm-none-eabi\include\c++\10.2.1\atomic **** 
 210:c:\users\yaman\downloads\daisytoolchain-0.3.3\daisytoolchain-0.3.3\windows\arm-none-eabi\include\c++\10.2.1\atomic ****       operator _Tp() const noexcept
 211:c:\users\yaman\downloads\daisytoolchain-0.3.3\daisytoolchain-0.3.3\windows\arm-none-eabi\include\c++\10.2.1\atomic ****       { return load(); }
 212:c:\users\yaman\downloads\daisytoolchain-0.3.3\daisytoolchain-0.3.3\windows\arm-none-eabi\include\c++\10.2.1\atomic **** 
 213:c:\users\yaman\downloads\daisytoolchain-0.3.3\daisytoolchain-0.3.3\windows\arm-none-eabi\include\c++\10.2.1\atomic ****       operator _Tp() const volatile noexcept
 214:c:\users\yaman\downloads\daisytoolchain-0.3.3\daisytoolchain-0.3.3\windows\arm-none-eabi\include\c++\10.2.1\atomic ****       { return load(); }
 215:c:\users\yaman\downloads\daisytoolchain-0.3.3\daisytoolchain-0.3.3\windows\arm-none-eabi\include\c++\10.2.1\atomic **** 
 216:c:\users\yaman\downloads\daisytoolchain-0.3.3\daisytoolchain-0.3.3\windows\arm-none-eabi\include\c++\10.2.1\atomic ****       _Tp
 217:c:\users\yaman\downloads\daisytoolchain-0.3.3\daisytoolchain-0.3.3\windows\arm-none-eabi\include\c++\10.2.1\atomic ****       operator=(_Tp __i) noexcept
 218:c:\users\yaman\downloads\daisytoolchain-0.3.3\daisytoolchain-0.3.3\windows\arm-none-eabi\include\c++\10.2.1\atomic ****       { store(__i); return __i; }
 219:c:\users\yaman\downloads\daisytoolchain-0.3.3\daisytoolchain-0.3.3\windows\arm-none-eabi\include\c++\10.2.1\atomic **** 
 220:c:\users\yaman\downloads\daisytoolchain-0.3.3\daisytoolchain-0.3.3\windows\arm-none-eabi\include\c++\10.2.1\atomic ****       _Tp
 221:c:\users\yaman\downloads\daisytoolchain-0.3.3\daisytoolchain-0.3.3\windows\arm-none-eabi\include\c++\10.2.1\atomic ****       operator=(_Tp __i) volatile noexcept
 222:c:\users\yaman\downloads\daisytoolchain-0.3.3\daisytoolchain-0.3.3\windows\arm-none-eabi\include\c++\10.2.1\atomic ****       { store(__i); return __i; }
 223:c:\users\yaman\downloads\daisytoolchain-0.3.3\daisytoolchain-0.3.3\windows\arm-none-eabi\include\c++\10.2.1\atomic **** 
 224:c:\users\yaman\downloads\daisytoolchain-0.3.3\daisytoolchain-0.3.3\windows\arm-none-eabi\include\c++\10.2.1\atomic ****       bool
 225:c:\users\yaman\downloads\daisytoolchain-0.3.3\daisytoolchain-0.3.3\windows\arm-none-eabi\include\c++\10.2.1\atomic ****       is_lock_free() const noexcept
 226:c:\users\yaman\downloads\daisytoolchain-0.3.3\daisytoolchain-0.3.3\windows\arm-none-eabi\include\c++\10.2.1\atomic ****       {
 227:c:\users\yaman\downloads\daisytoolchain-0.3.3\daisytoolchain-0.3.3\windows\arm-none-eabi\include\c++\10.2.1\atomic **** 	// Produce a fake, minimally aligned pointer.
 228:c:\users\yaman\downloads\daisytoolchain-0.3.3\daisytoolchain-0.3.3\windows\arm-none-eabi\include\c++\10.2.1\atomic **** 	return __atomic_is_lock_free(sizeof(_M_i),
 229:c:\users\yaman\downloads\daisytoolchain-0.3.3\daisytoolchain-0.3.3\windows\arm-none-eabi\include\c++\10.2.1\atomic **** 	    reinterpret_cast<void *>(-_S_alignment));
 230:c:\users\yaman\downloads\daisytoolchain-0.3.3\daisytoolchain-0.3.3\windows\arm-none-eabi\include\c++\10.2.1\atomic ****       }
 231:c:\users\yaman\downloads\daisytoolchain-0.3.3\daisytoolchain-0.3.3\windows\arm-none-eabi\include\c++\10.2.1\atomic **** 
 232:c:\users\yaman\downloads\daisytoolchain-0.3.3\daisytoolchain-0.3.3\windows\arm-none-eabi\include\c++\10.2.1\atomic ****       bool
 233:c:\users\yaman\downloads\daisytoolchain-0.3.3\daisytoolchain-0.3.3\windows\arm-none-eabi\include\c++\10.2.1\atomic ****       is_lock_free() const volatile noexcept
 234:c:\users\yaman\downloads\daisytoolchain-0.3.3\daisytoolchain-0.3.3\windows\arm-none-eabi\include\c++\10.2.1\atomic ****       {
 235:c:\users\yaman\downloads\daisytoolchain-0.3.3\daisytoolchain-0.3.3\windows\arm-none-eabi\include\c++\10.2.1\atomic **** 	// Produce a fake, minimally aligned pointer.
 236:c:\users\yaman\downloads\daisytoolchain-0.3.3\daisytoolchain-0.3.3\windows\arm-none-eabi\include\c++\10.2.1\atomic **** 	return __atomic_is_lock_free(sizeof(_M_i),
 237:c:\users\yaman\downloads\daisytoolchain-0.3.3\daisytoolchain-0.3.3\windows\arm-none-eabi\include\c++\10.2.1\atomic **** 	    reinterpret_cast<void *>(-_S_alignment));
 238:c:\users\yaman\downloads\daisytoolchain-0.3.3\daisytoolchain-0.3.3\windows\arm-none-eabi\include\c++\10.2.1\atomic ****       }
 239:c:\users\yaman\downloads\daisytoolchain-0.3.3\daisytoolchain-0.3.3\windows\arm-none-eabi\include\c++\10.2.1\atomic **** 
 240:c:\users\yaman\downloads\daisytoolchain-0.3.3\daisytoolchain-0.3.3\windows\arm-none-eabi\include\c++\10.2.1\atomic **** #if __cplusplus >= 201703L
 241:c:\users\yaman\downloads\daisytoolchain-0.3.3\daisytoolchain-0.3.3\windows\arm-none-eabi\include\c++\10.2.1\atomic ****       static constexpr bool is_always_lock_free
 242:c:\users\yaman\downloads\daisytoolchain-0.3.3\daisytoolchain-0.3.3\windows\arm-none-eabi\include\c++\10.2.1\atomic **** 	= __atomic_always_lock_free(sizeof(_M_i), 0);
 243:c:\users\yaman\downloads\daisytoolchain-0.3.3\daisytoolchain-0.3.3\windows\arm-none-eabi\include\c++\10.2.1\atomic **** #endif
 244:c:\users\yaman\downloads\daisytoolchain-0.3.3\daisytoolchain-0.3.3\windows\arm-none-eabi\include\c++\10.2.1\atomic **** 
 245:c:\users\yaman\downloads\daisytoolchain-0.3.3\daisytoolchain-0.3.3\windows\arm-none-eabi\include\c++\10.2.1\atomic ****       void
 246:c:\users\yaman\downloads\daisytoolchain-0.3.3\daisytoolchain-0.3.3\windows\arm-none-eabi\include\c++\10.2.1\atomic ****       store(_Tp __i, memory_order __m = memory_order_seq_cst) noexcept
 247:c:\users\yaman\downloads\daisytoolchain-0.3.3\daisytoolchain-0.3.3\windows\arm-none-eabi\include\c++\10.2.1\atomic ****       { __atomic_store(std::__addressof(_M_i), std::__addressof(__i), int(__m)); }
 248:c:\users\yaman\downloads\daisytoolchain-0.3.3\daisytoolchain-0.3.3\windows\arm-none-eabi\include\c++\10.2.1\atomic **** 
 249:c:\users\yaman\downloads\daisytoolchain-0.3.3\daisytoolchain-0.3.3\windows\arm-none-eabi\include\c++\10.2.1\atomic ****       void
 250:c:\users\yaman\downloads\daisytoolchain-0.3.3\daisytoolchain-0.3.3\windows\arm-none-eabi\include\c++\10.2.1\atomic ****       store(_Tp __i, memory_order __m = memory_order_seq_cst) volatile noexcept
 251:c:\users\yaman\downloads\daisytoolchain-0.3.3\daisytoolchain-0.3.3\windows\arm-none-eabi\include\c++\10.2.1\atomic ****       { __atomic_store(std::__addressof(_M_i), std::__addressof(__i), int(__m)); }
 252:c:\users\yaman\downloads\daisytoolchain-0.3.3\daisytoolchain-0.3.3\windows\arm-none-eabi\include\c++\10.2.1\atomic **** 
ARM GAS  C:\Users\yaman\AppData\Local\Temp\ccCu6FW5.s 			page 37


 253:c:\users\yaman\downloads\daisytoolchain-0.3.3\daisytoolchain-0.3.3\windows\arm-none-eabi\include\c++\10.2.1\atomic ****       _Tp
 254:c:\users\yaman\downloads\daisytoolchain-0.3.3\daisytoolchain-0.3.3\windows\arm-none-eabi\include\c++\10.2.1\atomic ****       load(memory_order __m = memory_order_seq_cst) const noexcept
 497              		.loc 15 254 7 view .LVU110
 498              		.loc 15 254 7 is_stmt 0 view .LVU111
 499              	.LBE671:
 148:examples/looper.cpp ****     float cl = shared_cv_l.load(std::memory_order_relaxed);
 500              		.loc 14 148 93 view .LVU112
 501 0000 2DE9F04F 		push	{r4, r5, r6, r7, r8, r9, r10, fp, lr}
 502              		.cfi_def_cfa_offset 36
 503              		.cfi_offset 4, -36
 504              		.cfi_offset 5, -32
 505              		.cfi_offset 6, -28
 506              		.cfi_offset 7, -24
 507              		.cfi_offset 8, -20
 508              		.cfi_offset 9, -16
 509              		.cfi_offset 10, -12
 510              		.cfi_offset 11, -8
 511              		.cfi_offset 14, -4
 512              	.LBB674:
 513              	.LBB675:
 255:c:\users\yaman\downloads\daisytoolchain-0.3.3\daisytoolchain-0.3.3\windows\arm-none-eabi\include\c++\10.2.1\atomic ****       {
 256:c:\users\yaman\downloads\daisytoolchain-0.3.3\daisytoolchain-0.3.3\windows\arm-none-eabi\include\c++\10.2.1\atomic **** 	alignas(_Tp) unsigned char __buf[sizeof(_Tp)];
 257:c:\users\yaman\downloads\daisytoolchain-0.3.3\daisytoolchain-0.3.3\windows\arm-none-eabi\include\c++\10.2.1\atomic **** 	_Tp* __ptr = reinterpret_cast<_Tp*>(__buf);
 258:c:\users\yaman\downloads\daisytoolchain-0.3.3\daisytoolchain-0.3.3\windows\arm-none-eabi\include\c++\10.2.1\atomic **** 	__atomic_load(std::__addressof(_M_i), __ptr, int(__m));
 514              		.loc 15 258 15 view .LVU113
 515 0004 B04B     		ldr	r3, .L97+8
 516              	.LBE675:
 517              	.LBE674:
 148:examples/looper.cpp ****     float cl = shared_cv_l.load(std::memory_order_relaxed);
 518              		.loc 14 148 93 view .LVU114
 519 0006 8946     		mov	r9, r1
 520              	.LBB678:
 521              	.LBB672:
 522              		.loc 15 258 15 view .LVU115
 523 0008 B04C     		ldr	r4, .L97+12
 524              	.LBE672:
 525              	.LBE678:
 526              	.LBB679:
 527              	.LBB680:
 528 000a B149     		ldr	r1, .L97+16
 529              	.LVL25:
 530              		.loc 15 258 15 view .LVU116
 531              	.LBE680:
 532              	.LBE679:
 148:examples/looper.cpp ****     float cl = shared_cv_l.load(std::memory_order_relaxed);
 533              		.loc 14 148 93 view .LVU117
 534 000c 2DED048B 		vpush.64	{d8, d9}
 535              		.cfi_def_cfa_offset 52
 536              		.cfi_offset 80, -52
 537              		.cfi_offset 81, -48
 538              		.cfi_offset 82, -44
 539              		.cfi_offset 83, -40
 540              	.LBB682:
 541              	.LBB673:
 542              		.loc 15 258 15 view .LVU118
 543 0010 2468     		ldr	r4, [r4]
 544              	.LVL26:
ARM GAS  C:\Users\yaman\AppData\Local\Temp\ccCu6FW5.s 			page 38


 545              		.loc 15 258 15 view .LVU119
 546              	.LBE673:
 547              	.LBE682:
 150:examples/looper.cpp ****     float cr = shared_cv_r.load(std::memory_order_relaxed);
 548              		.loc 14 150 5 is_stmt 1 view .LVU120
 549              	.LBB683:
 550              	.LBI674:
 254:c:\users\yaman\downloads\daisytoolchain-0.3.3\daisytoolchain-0.3.3\windows\arm-none-eabi\include\c++\10.2.1\atomic ****       {
 551              		.loc 15 254 7 view .LVU121
 254:c:\users\yaman\downloads\daisytoolchain-0.3.3\daisytoolchain-0.3.3\windows\arm-none-eabi\include\c++\10.2.1\atomic ****       {
 552              		.loc 15 254 7 is_stmt 0 view .LVU122
 553              	.LBE683:
 148:examples/looper.cpp ****     float cl = shared_cv_l.load(std::memory_order_relaxed);
 554              		.loc 14 148 93 view .LVU123
 555 0012 83B0     		sub	sp, sp, #12
 556              		.cfi_def_cfa_offset 64
 557              	.LBB684:
 558              	.LBB676:
 559              		.loc 15 258 15 view .LVU124
 560 0014 1B68     		ldr	r3, [r3]
 561              	.LBE676:
 562              	.LBE684:
 563              	.LBB685:
 564              	.LBB681:
 565 0016 0968     		ldr	r1, [r1]
 566              	.LBE681:
 567              	.LBE685:
 568              	.LBB686:
 569              	.LBB677:
 570              		.loc 15 258 2 view .LVU125
 571 0018 08EE103A 		vmov	s16, r3
 572              	.LVL27:
 573              		.loc 15 258 2 view .LVU126
 574              	.LBE677:
 575              	.LBE686:
 151:examples/looper.cpp ****     float kl = shared_knob_l.load(std::memory_order_relaxed);
 576              		.loc 14 151 5 is_stmt 1 view .LVU127
 577              	.LBB687:
 578              	.LBI679:
 254:c:\users\yaman\downloads\daisytoolchain-0.3.3\daisytoolchain-0.3.3\windows\arm-none-eabi\include\c++\10.2.1\atomic ****       {
 579              		.loc 15 254 7 view .LVU128
 254:c:\users\yaman\downloads\daisytoolchain-0.3.3\daisytoolchain-0.3.3\windows\arm-none-eabi\include\c++\10.2.1\atomic ****       {
 580              		.loc 15 254 7 is_stmt 0 view .LVU129
 581              	.LBE687:
 582              	.LBB688:
 583              	.LBB689:
 584              		.loc 15 258 15 view .LVU130
 585 001c AD4B     		ldr	r3, .L97+20
 586              	.LVL28:
 587              		.loc 15 258 15 view .LVU131
 588 001e 1B68     		ldr	r3, [r3]
 589              	.LVL29:
 590              		.loc 15 258 15 view .LVU132
 591              	.LBE689:
 592              	.LBE688:
 152:examples/looper.cpp ****     float kr = shared_knob_r.load(std::memory_order_relaxed);
 593              		.loc 14 152 5 is_stmt 1 view .LVU133
ARM GAS  C:\Users\yaman\AppData\Local\Temp\ccCu6FW5.s 			page 39


 594              	.LBB690:
 595              	.LBI688:
 254:c:\users\yaman\downloads\daisytoolchain-0.3.3\daisytoolchain-0.3.3\windows\arm-none-eabi\include\c++\10.2.1\atomic ****       {
 596              		.loc 15 254 7 view .LVU134
 254:c:\users\yaman\downloads\daisytoolchain-0.3.3\daisytoolchain-0.3.3\windows\arm-none-eabi\include\c++\10.2.1\atomic ****       {
 597              		.loc 15 254 7 is_stmt 0 view .LVU135
 598              	.LBE690:
 153:examples/looper.cpp **** 
 154:examples/looper.cpp ****     for(size_t i = 0; i < size; i++) {
 599              		.loc 14 154 5 is_stmt 1 view .LVU136
 600              	.LBB691:
 601              		.loc 14 154 25 view .LVU137
 602 0020 002A     		cmp	r2, #0
 603 0022 76D0     		beq	.L15
 604 0024 08EE904A 		vmov	s17, r4
 605 0028 8046     		mov	r8, r0
 606 002a 09EE901A 		vmov	s19, r1
 607 002e 09EE103A 		vmov	s18, r3
 608 0032 9346     		mov	fp, r2
 609              		.loc 14 154 16 is_stmt 0 view .LVU138
 610 0034 0024     		movs	r4, #0
 611              	.LVL30:
 612              		.loc 14 154 16 view .LVU139
 613 0036 A84E     		ldr	r6, .L97+24
 614 0038 A84D     		ldr	r5, .L97+28
 615 003a 15E0     		b	.L16
 616              	.LVL31:
 617              	.L38:
 618              	.LBB692:
 619              	.LBB693:
  62:examples/looper.cpp ****             is_triggered_internal = false;
 620              		.loc 14 62 16 is_stmt 1 view .LVU140
  62:examples/looper.cpp ****             is_triggered_internal = false;
 621              		.loc 14 62 42 is_stmt 0 view .LVU141
 622 003c DFEDA87A 		vldr.32	s15, .L97+32
 623 0040 B4EEE78A 		vcmpe.f32	s16, s15
 624 0044 F1EE10FA 		vmrs	APSR_nzcv, FPSCR
 625 0048 01D5     		bpl	.L39
  63:examples/looper.cpp ****         }
 626              		.loc 14 63 13 is_stmt 1 view .LVU142
  63:examples/looper.cpp ****         }
 627              		.loc 14 63 35 is_stmt 0 view .LVU143
 628 004a 0023     		movs	r3, #0
 629 004c 2B75     		strb	r3, [r5, #20]
  67:examples/looper.cpp ****             if (state == ARM_REC) {
 630              		.loc 14 67 9 is_stmt 1 view .LVU144
 631              	.L39:
 632              	.LVL32:
  80:examples/looper.cpp **** 
 633              		.loc 14 80 9 view .LVU145
  80:examples/looper.cpp **** 
 634              		.loc 14 80 13 is_stmt 0 view .LVU146
 635 004e 2B79     		ldrb	r3, [r5, #4]	@ zero_extendqisi2
  80:examples/looper.cpp **** 
 636              		.loc 14 80 9 view .LVU147
 637 0050 012B     		cmp	r3, #1
 638 0052 05D9     		bls	.L47
ARM GAS  C:\Users\yaman\AppData\Local\Temp\ccCu6FW5.s 			page 40


  82:examples/looper.cpp ****             if (pos < MAX_SIZE_PER_CHANNEL) {
 639              		.loc 14 82 9 is_stmt 1 view .LVU148
 640 0054 022B     		cmp	r3, #2
 641 0056 00F0A080 		beq	.L88
  92:examples/looper.cpp ****             float out_sample = 0.0f;
 642              		.loc 14 92 9 view .LVU149
 643              	.LBB694:
 644 005a 032B     		cmp	r3, #3
 645 005c 00F05F81 		beq	.L89
 646              	.LVL33:
 647              	.L47:
  92:examples/looper.cpp ****             float out_sample = 0.0f;
 648              		.loc 14 92 9 is_stmt 0 view .LVU150
 649              	.LBE694:
 650              	.LBE693:
 651              	.LBE692:
 652              		.loc 14 154 5 view .LVU151
 653 0060 0134     		adds	r4, r4, #1
 654              	.LVL34:
 155:examples/looper.cpp ****         out[0][i] = looper_l.Process(in[0][i], cl, kl);
 156:examples/looper.cpp ****         out[1][i] = looper_r.Process(in[1][i], cr, kr);
 655              		.loc 14 156 19 view .LVU152
 656 0062 3960     		str	r1, [r7]	@ float
 154:examples/looper.cpp ****         out[0][i] = looper_l.Process(in[0][i], cl, kl);
 657              		.loc 14 154 5 is_stmt 1 view .LVU153
 658              	.LVL35:
 154:examples/looper.cpp ****         out[0][i] = looper_l.Process(in[0][i], cl, kl);
 659              		.loc 14 154 25 view .LVU154
 660 0064 A345     		cmp	fp, r4
 661 0066 54D0     		beq	.L15
 662              	.LVL36:
 663              	.L16:
 155:examples/looper.cpp ****         out[0][i] = looper_l.Process(in[0][i], cl, kl);
 664              		.loc 14 155 9 discriminator 2 view .LVU155
 155:examples/looper.cpp ****         out[0][i] = looper_l.Process(in[0][i], cl, kl);
 665              		.loc 14 155 37 is_stmt 0 discriminator 2 view .LVU156
 666 0068 D8F80010 		ldr	r1, [r8]
 667 006c A700     		lsls	r7, r4, #2
 155:examples/looper.cpp ****         out[0][i] = looper_l.Process(in[0][i], cl, kl);
 668              		.loc 14 155 17 discriminator 2 view .LVU157
 669 006e D9F80030 		ldr	r3, [r9]
 155:examples/looper.cpp ****         out[0][i] = looper_l.Process(in[0][i], cl, kl);
 670              		.loc 14 155 37 discriminator 2 view .LVU158
 671 0072 01EB8401 		add	r1, r1, r4, lsl #2
 672              	.LBB742:
 673              	.LBB743:
  59:examples/looper.cpp ****             is_triggered_internal = true;
 674              		.loc 14 59 9 discriminator 2 view .LVU159
 675 0076 307D     		ldrb	r0, [r6, #20]	@ zero_extendqisi2
 676              	.LBE743:
 677              	.LBE742:
 155:examples/looper.cpp ****         out[0][i] = looper_l.Process(in[0][i], cl, kl);
 678              		.loc 14 155 17 discriminator 2 view .LVU160
 679 0078 03EB840A 		add	r10, r3, r4, lsl #2
 680              	.LVL37:
 155:examples/looper.cpp ****         out[0][i] = looper_l.Process(in[0][i], cl, kl);
 681              		.loc 14 155 37 discriminator 2 view .LVU161
ARM GAS  C:\Users\yaman\AppData\Local\Temp\ccCu6FW5.s 			page 41


 682 007c 0968     		ldr	r1, [r1]	@ float
 683              	.LVL38:
 684              	.LBB790:
 685              	.LBI742:
  56:examples/looper.cpp ****         // --- 1.  ---
 686              		.loc 14 56 11 is_stmt 1 discriminator 2 view .LVU162
 687              	.LBB781:
  58:examples/looper.cpp ****         if (!is_triggered_internal && cv_raw > 0.8f) {
 688              		.loc 14 58 9 discriminator 2 view .LVU163
  59:examples/looper.cpp ****             is_triggered_internal = true;
 689              		.loc 14 59 9 discriminator 2 view .LVU164
 690 007e 0028     		cmp	r0, #0
 691 0080 4CD0     		beq	.L90
  62:examples/looper.cpp ****             is_triggered_internal = false;
 692              		.loc 14 62 16 view .LVU165
  62:examples/looper.cpp ****             is_triggered_internal = false;
 693              		.loc 14 62 42 is_stmt 0 view .LVU166
 694 0082 DFED977A 		vldr.32	s15, .L97+32
 695 0086 F4EEE78A 		vcmpe.f32	s17, s15
 696 008a F1EE10FA 		vmrs	APSR_nzcv, FPSCR
 697 008e 01D5     		bpl	.L18
  63:examples/looper.cpp ****         }
 698              		.loc 14 63 13 is_stmt 1 view .LVU167
  63:examples/looper.cpp ****         }
 699              		.loc 14 63 35 is_stmt 0 view .LVU168
 700 0090 0023     		movs	r3, #0
 701 0092 3375     		strb	r3, [r6, #20]
  67:examples/looper.cpp ****             if (state == ARM_REC) {
 702              		.loc 14 67 9 is_stmt 1 view .LVU169
 703              	.L18:
 704              	.LVL39:
  80:examples/looper.cpp **** 
 705              		.loc 14 80 9 view .LVU170
  80:examples/looper.cpp **** 
 706              		.loc 14 80 13 is_stmt 0 view .LVU171
 707 0094 3379     		ldrb	r3, [r6, #4]	@ zero_extendqisi2
  80:examples/looper.cpp **** 
 708              		.loc 14 80 9 view .LVU172
 709 0096 012B     		cmp	r3, #1
 710 0098 05D9     		bls	.L26
  82:examples/looper.cpp ****             if (pos < MAX_SIZE_PER_CHANNEL) {
 711              		.loc 14 82 9 is_stmt 1 view .LVU173
 712 009a 022B     		cmp	r3, #2
 713 009c 00F08780 		beq	.L91
  92:examples/looper.cpp ****             float out_sample = 0.0f;
 714              		.loc 14 92 9 view .LVU174
 715              	.LBB744:
 716 00a0 032B     		cmp	r3, #3
 717 00a2 00F03E81 		beq	.L92
 718              	.LVL40:
 719              	.L26:
  92:examples/looper.cpp ****             float out_sample = 0.0f;
 720              		.loc 14 92 9 is_stmt 0 view .LVU175
 721              	.LBE744:
 722              	.LBE781:
 723              	.LBE790:
 724              		.loc 14 156 37 view .LVU176
ARM GAS  C:\Users\yaman\AppData\Local\Temp\ccCu6FW5.s 			page 42


 725 00a6 D8F80430 		ldr	r3, [r8, #4]
 726              		.loc 14 156 17 view .LVU177
 727 00aa D9F80400 		ldr	r0, [r9, #4]
 728              		.loc 14 156 37 view .LVU178
 729 00ae 3B44     		add	r3, r3, r7
 730              	.LBB791:
 731              	.LBB732:
  59:examples/looper.cpp ****             is_triggered_internal = true;
 732              		.loc 14 59 9 view .LVU179
 733 00b0 2A7D     		ldrb	r2, [r5, #20]	@ zero_extendqisi2
 734              	.LBE732:
 735              	.LBE791:
 736              		.loc 14 156 17 view .LVU180
 737 00b2 0744     		add	r7, r7, r0
 155:examples/looper.cpp ****         out[1][i] = looper_r.Process(in[1][i], cr, kr);
 738              		.loc 14 155 19 view .LVU181
 739 00b4 CAF80010 		str	r1, [r10]	@ float
 740              		.loc 14 156 9 is_stmt 1 view .LVU182
 741              	.LVL41:
 742              		.loc 14 156 37 is_stmt 0 view .LVU183
 743 00b8 1968     		ldr	r1, [r3]	@ float
 744              	.LVL42:
 745              	.LBB792:
 746              	.LBI692:
  56:examples/looper.cpp ****         // --- 1.  ---
 747              		.loc 14 56 11 is_stmt 1 view .LVU184
 748              	.LBB733:
  58:examples/looper.cpp ****         if (!is_triggered_internal && cv_raw > 0.8f) {
 749              		.loc 14 58 9 view .LVU185
  59:examples/looper.cpp ****             is_triggered_internal = true;
 750              		.loc 14 59 9 view .LVU186
 751 00ba 002A     		cmp	r2, #0
 752 00bc BED1     		bne	.L38
  59:examples/looper.cpp ****             is_triggered_internal = true;
 753              		.loc 14 59 36 is_stmt 0 view .LVU187
 754 00be DFED897A 		vldr.32	s15, .L97+36
 755 00c2 B4EEE78A 		vcmpe.f32	s16, s15
 756 00c6 F1EE10FA 		vmrs	APSR_nzcv, FPSCR
 757 00ca C0DD     		ble	.L39
  60:examples/looper.cpp ****             edge = true;
 758              		.loc 14 60 13 is_stmt 1 view .LVU188
  60:examples/looper.cpp ****             edge = true;
 759              		.loc 14 60 35 is_stmt 0 view .LVU189
 760 00cc 0123     		movs	r3, #1
 761 00ce 2B75     		strb	r3, [r5, #20]
  61:examples/looper.cpp ****         } else if (is_triggered_internal && cv_raw < 0.6f) {
 762              		.loc 14 61 13 is_stmt 1 view .LVU190
 763              	.LVL43:
  67:examples/looper.cpp ****             if (state == ARM_REC) {
 764              		.loc 14 67 9 view .LVU191
  68:examples/looper.cpp ****                 state = RECORDING; pos = 0; loop_len = 0;
 765              		.loc 14 68 13 view .LVU192
  68:examples/looper.cpp ****                 state = RECORDING; pos = 0; loop_len = 0;
 766              		.loc 14 68 17 is_stmt 0 view .LVU193
 767 00d0 2B79     		ldrb	r3, [r5, #4]	@ zero_extendqisi2
  68:examples/looper.cpp ****                 state = RECORDING; pos = 0; loop_len = 0;
 768              		.loc 14 68 13 view .LVU194
ARM GAS  C:\Users\yaman\AppData\Local\Temp\ccCu6FW5.s 			page 43


 769 00d2 012B     		cmp	r3, #1
 770 00d4 47D0     		beq	.L93
  70:examples/looper.cpp ****                 state = PLAYING; mod_len = (pos > 0) ? pos : 1; pos = 0;
 771              		.loc 14 70 20 is_stmt 1 view .LVU195
 772 00d6 022B     		cmp	r3, #2
 773 00d8 00F01781 		beq	.L94
  72:examples/looper.cpp ****                 // BPM
 774              		.loc 14 72 20 view .LVU196
 775 00dc 032B     		cmp	r3, #3
 776 00de BFD1     		bne	.L47
  74:examples/looper.cpp ****                 slice_timer = 0; // 
 777              		.loc 14 74 17 view .LVU197
  74:examples/looper.cpp ****                 slice_timer = 0; // 
 778              		.loc 14 74 21 is_stmt 0 view .LVU198
 779 00e0 AA60     		str	r2, [r5, #8]
  75:examples/looper.cpp ****             }
 780              		.loc 14 75 17 is_stmt 1 view .LVU199
  75:examples/looper.cpp ****             }
 781              		.loc 14 75 29 is_stmt 0 view .LVU200
 782 00e2 2A62     		str	r2, [r5, #32]
 783              	.LBB720:
 784              	.LBB695:
 785              	.LBB696:
 100:examples/looper.cpp ****             } else {
 786              		.loc 14 100 28 view .LVU201
 787 00e4 2A69     		ldr	r2, [r5, #16]
 788              	.LVL44:
 789              	.L60:
 100:examples/looper.cpp ****             } else {
 790              		.loc 14 100 28 view .LVU202
 791              	.LBE696:
  93:examples/looper.cpp **** 
 792              		.loc 14 93 13 is_stmt 1 view .LVU203
  96:examples/looper.cpp ****                 // 
 793              		.loc 14 96 13 view .LVU204
 794              	.LBB707:
 795 00e6 DFED807A 		vldr.32	s15, .L97+40
 796 00ea B4EEE79A 		vcmpe.f32	s18, s15
 797 00ee F1EE10FA 		vmrs	APSR_nzcv, FPSCR
 798 00f2 40F1C380 		bpl	.L84
  98:examples/looper.cpp ****                 pos++;
 799              		.loc 14 98 17 view .LVU205
  98:examples/looper.cpp ****                 pos++;
 800              		.loc 14 98 37 is_stmt 0 view .LVU206
 801 00f6 A868     		ldr	r0, [r5, #8]
  98:examples/looper.cpp ****                 pos++;
 802              		.loc 14 98 28 view .LVU207
 803 00f8 2B68     		ldr	r3, [r5]
 804 00fa 03EB8003 		add	r3, r3, r0, lsl #2
  99:examples/looper.cpp ****                 if (pos >= mod_len) pos = 0;
 805              		.loc 14 99 20 view .LVU208
 806 00fe 0130     		adds	r0, r0, #1
 100:examples/looper.cpp ****             } else {
 807              		.loc 14 100 17 view .LVU209
 808 0100 9042     		cmp	r0, r2
  98:examples/looper.cpp ****                 pos++;
 809              		.loc 14 98 28 view .LVU210
ARM GAS  C:\Users\yaman\AppData\Local\Temp\ccCu6FW5.s 			page 44


 810 0102 1968     		ldr	r1, [r3]	@ float
 811              	.LVL45:
  99:examples/looper.cpp ****                 if (pos >= mod_len) pos = 0;
 812              		.loc 14 99 17 is_stmt 1 view .LVU211
 100:examples/looper.cpp ****             } else {
 813              		.loc 14 100 17 view .LVU212
 814 0104 80F2B780 		bge	.L58
 815              	.LBE707:
 816              	.LBE695:
 817              	.LBE720:
 818              	.LBE733:
 819              	.LBE792:
 154:examples/looper.cpp ****         out[0][i] = looper_l.Process(in[0][i], cl, kl);
 820              		.loc 14 154 5 is_stmt 0 view .LVU213
 821 0108 0134     		adds	r4, r4, #1
 822              	.LVL46:
 823              	.LBB793:
 824              	.LBB734:
 825              	.LBB721:
 826              	.LBB714:
 827              	.LBB708:
  99:examples/looper.cpp ****                 if (pos >= mod_len) pos = 0;
 828              		.loc 14 99 20 view .LVU214
 829 010a A860     		str	r0, [r5, #8]
 830              	.LVL47:
  99:examples/looper.cpp ****                 if (pos >= mod_len) pos = 0;
 831              		.loc 14 99 20 view .LVU215
 832              	.LBE708:
 833              	.LBE714:
 834              	.LBE721:
 835              	.LBE734:
 836              	.LBE793:
 837              		.loc 14 156 19 view .LVU216
 838 010c 3960     		str	r1, [r7]	@ float
 154:examples/looper.cpp ****         out[0][i] = looper_l.Process(in[0][i], cl, kl);
 839              		.loc 14 154 5 is_stmt 1 view .LVU217
 840              	.LVL48:
 154:examples/looper.cpp ****         out[0][i] = looper_l.Process(in[0][i], cl, kl);
 841              		.loc 14 154 25 view .LVU218
 842 010e A345     		cmp	fp, r4
 843 0110 AAD1     		bne	.L16
 844              	.LVL49:
 845              	.L15:
 154:examples/looper.cpp ****         out[0][i] = looper_l.Process(in[0][i], cl, kl);
 846              		.loc 14 154 25 is_stmt 0 view .LVU219
 847              	.LBE691:
 157:examples/looper.cpp ****     }
 158:examples/looper.cpp **** }
 848              		.loc 14 158 1 view .LVU220
 849 0112 03B0     		add	sp, sp, #12
 850              		.cfi_remember_state
 851              		.cfi_def_cfa_offset 52
 852              		@ sp needed
 853 0114 BDEC048B 		vldm	sp!, {d8-d9}
 854              		.cfi_restore 82
 855              		.cfi_restore 83
 856              		.cfi_restore 80
ARM GAS  C:\Users\yaman\AppData\Local\Temp\ccCu6FW5.s 			page 45


 857              		.cfi_restore 81
 858              		.cfi_def_cfa_offset 36
 859 0118 BDE8F08F 		pop	{r4, r5, r6, r7, r8, r9, r10, fp, pc}
 860              	.LVL50:
 861              	.L90:
 862              		.cfi_restore_state
 863              	.LBB809:
 864              	.LBB794:
 865              	.LBB782:
  59:examples/looper.cpp ****             is_triggered_internal = true;
 866              		.loc 14 59 36 view .LVU221
 867 011c DFED717A 		vldr.32	s15, .L97+36
 868 0120 F4EEE78A 		vcmpe.f32	s17, s15
 869 0124 F1EE10FA 		vmrs	APSR_nzcv, FPSCR
 870 0128 B4DD     		ble	.L18
  60:examples/looper.cpp ****             edge = true;
 871              		.loc 14 60 13 is_stmt 1 view .LVU222
  60:examples/looper.cpp ****             edge = true;
 872              		.loc 14 60 35 is_stmt 0 view .LVU223
 873 012a 0123     		movs	r3, #1
 874 012c 3375     		strb	r3, [r6, #20]
  61:examples/looper.cpp ****         } else if (is_triggered_internal && cv_raw < 0.6f) {
 875              		.loc 14 61 13 is_stmt 1 view .LVU224
 876              	.LVL51:
  67:examples/looper.cpp ****             if (state == ARM_REC) {
 877              		.loc 14 67 9 view .LVU225
  68:examples/looper.cpp ****                 state = RECORDING; pos = 0; loop_len = 0;
 878              		.loc 14 68 13 view .LVU226
  68:examples/looper.cpp ****                 state = RECORDING; pos = 0; loop_len = 0;
 879              		.loc 14 68 17 is_stmt 0 view .LVU227
 880 012e 3379     		ldrb	r3, [r6, #4]	@ zero_extendqisi2
  68:examples/looper.cpp ****                 state = RECORDING; pos = 0; loop_len = 0;
 881              		.loc 14 68 13 view .LVU228
 882 0130 012B     		cmp	r3, #1
 883 0132 25D0     		beq	.L95
  70:examples/looper.cpp ****                 state = PLAYING; mod_len = (pos > 0) ? pos : 1; pos = 0;
 884              		.loc 14 70 20 is_stmt 1 view .LVU229
 885 0134 022B     		cmp	r3, #2
 886 0136 00F0DF80 		beq	.L96
  72:examples/looper.cpp ****                 // BPM
 887              		.loc 14 72 20 view .LVU230
 888 013a 032B     		cmp	r3, #3
 889 013c B3D1     		bne	.L26
  74:examples/looper.cpp ****                 slice_timer = 0; // 
 890              		.loc 14 74 17 view .LVU231
 891              	.LBB769:
 892              	.LBB745:
 893              	.LBB746:
 100:examples/looper.cpp ****             } else {
 894              		.loc 14 100 28 is_stmt 0 view .LVU232
 895 013e 3269     		ldr	r2, [r6, #16]
 896              	.LBE746:
 897              	.LBE745:
 898              	.LBE769:
  74:examples/looper.cpp ****                 slice_timer = 0; // 
 899              		.loc 14 74 21 view .LVU233
 900 0140 B060     		str	r0, [r6, #8]
ARM GAS  C:\Users\yaman\AppData\Local\Temp\ccCu6FW5.s 			page 46


  75:examples/looper.cpp ****             }
 901              		.loc 14 75 17 is_stmt 1 view .LVU234
  75:examples/looper.cpp ****             }
 902              		.loc 14 75 29 is_stmt 0 view .LVU235
 903 0142 3062     		str	r0, [r6, #32]
 904              	.LVL52:
 905              	.L61:
 906              	.LBB770:
 907              	.LBB763:
  93:examples/looper.cpp **** 
 908              		.loc 14 93 13 is_stmt 1 view .LVU236
  96:examples/looper.cpp ****                 // 
 909              		.loc 14 96 13 view .LVU237
 910              	.LBB757:
 911 0144 DFED687A 		vldr.32	s15, .L97+40
 912 0148 F4EEE79A 		vcmpe.f32	s19, s15
 913 014c F1EE10FA 		vmrs	APSR_nzcv, FPSCR
 914 0150 55D5     		bpl	.L82
  98:examples/looper.cpp ****                 pos++;
 915              		.loc 14 98 17 view .LVU238
  98:examples/looper.cpp ****                 pos++;
 916              		.loc 14 98 37 is_stmt 0 view .LVU239
 917 0152 B068     		ldr	r0, [r6, #8]
  98:examples/looper.cpp ****                 pos++;
 918              		.loc 14 98 28 view .LVU240
 919 0154 3368     		ldr	r3, [r6]
 920 0156 03EB8003 		add	r3, r3, r0, lsl #2
  99:examples/looper.cpp ****                 if (pos >= mod_len) pos = 0;
 921              		.loc 14 99 20 view .LVU241
 922 015a 0130     		adds	r0, r0, #1
 100:examples/looper.cpp ****             } else {
 923              		.loc 14 100 17 view .LVU242
 924 015c 9042     		cmp	r0, r2
  98:examples/looper.cpp ****                 pos++;
 925              		.loc 14 98 28 view .LVU243
 926 015e 1968     		ldr	r1, [r3]	@ float
 927              	.LVL53:
  99:examples/looper.cpp ****                 if (pos >= mod_len) pos = 0;
 928              		.loc 14 99 17 is_stmt 1 view .LVU244
 100:examples/looper.cpp ****             } else {
 929              		.loc 14 100 17 view .LVU245
 930 0160 4ADA     		bge	.L37
  99:examples/looper.cpp ****                 if (pos >= mod_len) pos = 0;
 931              		.loc 14 99 20 is_stmt 0 view .LVU246
 932 0162 B060     		str	r0, [r6, #8]
 933 0164 9FE7     		b	.L26
 934              	.LVL54:
 935              	.L93:
  99:examples/looper.cpp ****                 if (pos >= mod_len) pos = 0;
 936              		.loc 14 99 20 view .LVU247
 937              	.LBE757:
 938              	.LBE763:
 939              	.LBE770:
 940              	.LBE782:
 941              	.LBE794:
 942              	.LBB795:
 943              	.LBB735:
ARM GAS  C:\Users\yaman\AppData\Local\Temp\ccCu6FW5.s 			page 47


  69:examples/looper.cpp ****             } else if (state == RECORDING) {
 944              		.loc 14 69 17 is_stmt 1 view .LVU248
  69:examples/looper.cpp ****             } else if (state == RECORDING) {
 945              		.loc 14 69 40 is_stmt 0 view .LVU249
 946 0166 9FED567B 		vldr.64	d7, .L97	@ int
  69:examples/looper.cpp ****             } else if (state == RECORDING) {
 947              		.loc 14 69 23 view .LVU250
 948 016a 0223     		movs	r3, #2
  69:examples/looper.cpp ****             } else if (state == RECORDING) {
 949              		.loc 14 69 40 view .LVU251
 950 016c 85ED027B 		vstr.64	d7, [r5, #8]	@ int
  69:examples/looper.cpp ****             } else if (state == RECORDING) {
 951              		.loc 14 69 23 view .LVU252
 952 0170 2B71     		strb	r3, [r5, #4]
  69:examples/looper.cpp ****             } else if (state == RECORDING) {
 953              		.loc 14 69 36 is_stmt 1 view .LVU253
  69:examples/looper.cpp ****             } else if (state == RECORDING) {
 954              		.loc 14 69 45 view .LVU254
 955              	.LVL55:
  80:examples/looper.cpp **** 
 956              		.loc 14 80 9 view .LVU255
  82:examples/looper.cpp ****             if (pos < MAX_SIZE_PER_CHANNEL) {
 957              		.loc 14 82 9 view .LVU256
 958              	.LBB722:
 959              	.LBI722:
  56:examples/looper.cpp ****         // --- 1.  ---
 960              		.loc 14 56 11 view .LVU257
 961              	.LBB723:
  83:examples/looper.cpp ****                 buffer[pos] = in;
 962              		.loc 14 83 13 view .LVU258
 963              	.L44:
  84:examples/looper.cpp ****                 pos++;
 964              		.loc 14 84 17 view .LVU259
  84:examples/looper.cpp ****                 pos++;
 965              		.loc 14 84 29 is_stmt 0 view .LVU260
 966 0172 2B68     		ldr	r3, [r5]
 967 0174 03EB8203 		add	r3, r3, r2, lsl #2
  85:examples/looper.cpp ****             } else {
 968              		.loc 14 85 20 view .LVU261
 969 0178 0132     		adds	r2, r2, #1
  84:examples/looper.cpp ****                 pos++;
 970              		.loc 14 84 29 view .LVU262
 971 017a 1960     		str	r1, [r3]	@ float
  85:examples/looper.cpp ****             } else {
 972              		.loc 14 85 17 is_stmt 1 view .LVU263
  85:examples/looper.cpp ****             } else {
 973              		.loc 14 85 20 is_stmt 0 view .LVU264
 974 017c AA60     		str	r2, [r5, #8]
 975 017e 6FE7     		b	.L47
 976              	.LVL56:
 977              	.L95:
  85:examples/looper.cpp ****             } else {
 978              		.loc 14 85 20 view .LVU265
 979              	.LBE723:
 980              	.LBE722:
 981              	.LBE735:
 982              	.LBE795:
ARM GAS  C:\Users\yaman\AppData\Local\Temp\ccCu6FW5.s 			page 48


 983              	.LBB796:
 984              	.LBB783:
  69:examples/looper.cpp ****             } else if (state == RECORDING) {
 985              		.loc 14 69 17 is_stmt 1 view .LVU266
  69:examples/looper.cpp ****             } else if (state == RECORDING) {
 986              		.loc 14 69 23 is_stmt 0 view .LVU267
 987 0180 0223     		movs	r3, #2
  69:examples/looper.cpp ****             } else if (state == RECORDING) {
 988              		.loc 14 69 40 view .LVU268
 989 0182 0022     		movs	r2, #0
  69:examples/looper.cpp ****             } else if (state == RECORDING) {
 990              		.loc 14 69 23 view .LVU269
 991 0184 3371     		strb	r3, [r6, #4]
  69:examples/looper.cpp ****             } else if (state == RECORDING) {
 992              		.loc 14 69 36 is_stmt 1 view .LVU270
  69:examples/looper.cpp ****             } else if (state == RECORDING) {
 993              		.loc 14 69 45 view .LVU271
  69:examples/looper.cpp ****             } else if (state == RECORDING) {
 994              		.loc 14 69 40 is_stmt 0 view .LVU272
 995 0186 0023     		movs	r3, #0
 996 0188 C6E90223 		strd	r2, [r6, #8]
 997              	.LVL57:
  80:examples/looper.cpp **** 
 998              		.loc 14 80 9 is_stmt 1 view .LVU273
 999              	.LBB771:
 1000              	.LBI771:
  56:examples/looper.cpp ****         // --- 1.  ---
 1001              		.loc 14 56 11 view .LVU274
 1002              	.LBB772:
  83:examples/looper.cpp ****                 buffer[pos] = in;
 1003              		.loc 14 83 13 view .LVU275
 1004              	.L23:
  84:examples/looper.cpp ****                 pos++;
 1005              		.loc 14 84 17 view .LVU276
  84:examples/looper.cpp ****                 pos++;
 1006              		.loc 14 84 29 is_stmt 0 view .LVU277
 1007 018c 3368     		ldr	r3, [r6]
 1008 018e 03EB8003 		add	r3, r3, r0, lsl #2
  85:examples/looper.cpp ****             } else {
 1009              		.loc 14 85 20 view .LVU278
 1010 0192 0130     		adds	r0, r0, #1
  84:examples/looper.cpp ****                 pos++;
 1011              		.loc 14 84 29 view .LVU279
 1012 0194 1960     		str	r1, [r3]	@ float
  85:examples/looper.cpp ****             } else {
 1013              		.loc 14 85 17 is_stmt 1 view .LVU280
  85:examples/looper.cpp ****             } else {
 1014              		.loc 14 85 20 is_stmt 0 view .LVU281
 1015 0196 B060     		str	r0, [r6, #8]
 1016 0198 85E7     		b	.L26
 1017              	.LVL58:
 1018              	.L88:
  85:examples/looper.cpp ****             } else {
 1019              		.loc 14 85 20 view .LVU282
 1020              	.LBE772:
 1021              	.LBE771:
 1022              	.LBE783:
ARM GAS  C:\Users\yaman\AppData\Local\Temp\ccCu6FW5.s 			page 49


 1023              	.LBE796:
 1024              	.LBB797:
 1025              	.LBB736:
 1026              	.LBB726:
 1027              	.LBB724:
  83:examples/looper.cpp ****                 buffer[pos] = in;
 1028              		.loc 14 83 17 view .LVU283
 1029 019a AA68     		ldr	r2, [r5, #8]
 1030              	.LVL59:
  83:examples/looper.cpp ****                 buffer[pos] = in;
 1031              		.loc 14 83 17 view .LVU284
 1032              	.LBE724:
  56:examples/looper.cpp ****         // --- 1.  ---
 1033              		.loc 14 56 11 is_stmt 1 view .LVU285
 1034              	.LBB725:
  83:examples/looper.cpp ****                 buffer[pos] = in;
 1035              		.loc 14 83 13 view .LVU286
 1036 019c 534B     		ldr	r3, .L97+44
 1037 019e 9A42     		cmp	r2, r3
 1038 01a0 E7DB     		blt	.L44
  87:examples/looper.cpp ****             }
 1039              		.loc 14 87 17 view .LVU287
  87:examples/looper.cpp ****             }
 1040              		.loc 14 87 42 is_stmt 0 view .LVU288
 1041 01a2 2B61     		str	r3, [r5, #16]
  87:examples/looper.cpp ****             }
 1042              		.loc 14 87 23 view .LVU289
 1043 01a4 0323     		movs	r3, #3
 1044 01a6 2B71     		strb	r3, [r5, #4]
  87:examples/looper.cpp ****             }
 1045              		.loc 14 87 34 is_stmt 1 view .LVU290
  87:examples/looper.cpp ****             }
 1046              		.loc 14 87 66 view .LVU291
  87:examples/looper.cpp ****             }
 1047              		.loc 14 87 70 is_stmt 0 view .LVU292
 1048 01a8 0023     		movs	r3, #0
 1049 01aa AB60     		str	r3, [r5, #8]
 1050 01ac 58E7     		b	.L47
 1051              	.LVL60:
 1052              	.L91:
  87:examples/looper.cpp ****             }
 1053              		.loc 14 87 70 view .LVU293
 1054              	.LBE725:
 1055              	.LBE726:
 1056              	.LBE736:
 1057              	.LBE797:
 1058              	.LBB798:
 1059              	.LBB784:
 1060              	.LBB775:
 1061              	.LBB773:
  83:examples/looper.cpp ****                 buffer[pos] = in;
 1062              		.loc 14 83 17 view .LVU294
 1063 01ae B068     		ldr	r0, [r6, #8]
 1064              	.LVL61:
  83:examples/looper.cpp ****                 buffer[pos] = in;
 1065              		.loc 14 83 17 view .LVU295
 1066              	.LBE773:
ARM GAS  C:\Users\yaman\AppData\Local\Temp\ccCu6FW5.s 			page 50


  56:examples/looper.cpp ****         // --- 1.  ---
 1067              		.loc 14 56 11 is_stmt 1 view .LVU296
 1068              	.LBB774:
  83:examples/looper.cpp ****                 buffer[pos] = in;
 1069              		.loc 14 83 13 view .LVU297
 1070 01b0 4E4B     		ldr	r3, .L97+44
 1071 01b2 9842     		cmp	r0, r3
 1072 01b4 EADB     		blt	.L23
  87:examples/looper.cpp ****             }
 1073              		.loc 14 87 17 view .LVU298
  87:examples/looper.cpp ****             }
 1074              		.loc 14 87 42 is_stmt 0 view .LVU299
 1075 01b6 3361     		str	r3, [r6, #16]
  87:examples/looper.cpp ****             }
 1076              		.loc 14 87 23 view .LVU300
 1077 01b8 0323     		movs	r3, #3
 1078 01ba 3371     		strb	r3, [r6, #4]
  87:examples/looper.cpp ****             }
 1079              		.loc 14 87 34 is_stmt 1 view .LVU301
  87:examples/looper.cpp ****             }
 1080              		.loc 14 87 66 view .LVU302
  87:examples/looper.cpp ****             }
 1081              		.loc 14 87 70 is_stmt 0 view .LVU303
 1082 01bc 0023     		movs	r3, #0
 1083 01be B360     		str	r3, [r6, #8]
 1084 01c0 71E7     		b	.L26
 1085              	.LVL62:
 1086              	.L63:
  87:examples/looper.cpp ****             }
 1087              		.loc 14 87 70 view .LVU304
 1088              	.LBE774:
 1089              	.LBE775:
 1090              	.LBB776:
 1091              	.LBB764:
 1092              	.LBB758:
 1093              	.LBB747:
 105:examples/looper.cpp ****                 else if (knob_val > 0.6f) divisions = 16;
 1094              		.loc 14 105 53 view .LVU305
 1095 01c2 2021     		movs	r1, #32
 1096              	.LVL63:
 1097              	.L32:
 110:examples/looper.cpp ****                 if (current_slice_len < 1) current_slice_len = 1;
 1098              		.loc 14 110 17 is_stmt 1 view .LVU306
 110:examples/looper.cpp ****                 if (current_slice_len < 1) current_slice_len = 1;
 1099              		.loc 14 110 21 is_stmt 0 view .LVU307
 1100 01c4 92FBF1F3 		sdiv	r3, r2, r1
 1101              	.LVL64:
 111:examples/looper.cpp **** 
 1102              		.loc 14 111 17 is_stmt 1 view .LVU308
 1103 01c8 012B     		cmp	r3, #1
 1104 01ca B8BF     		it	lt
 1105 01cc 0123     		movlt	r3, #1
 1106              	.LVL65:
 111:examples/looper.cpp **** 
 1107              		.loc 14 111 17 is_stmt 0 view .LVU309
 1108 01ce 1846     		mov	r0, r3
 1109 01d0 0093     		str	r3, [sp]
ARM GAS  C:\Users\yaman\AppData\Local\Temp\ccCu6FW5.s 			page 51


 1110              	.LVL66:
 114:examples/looper.cpp ****                 if (slice_timer >= current_slice_len) {
 1111              		.loc 14 114 17 is_stmt 1 view .LVU310
 114:examples/looper.cpp ****                 if (slice_timer >= current_slice_len) {
 1112              		.loc 14 114 28 is_stmt 0 view .LVU311
 1113 01d2 336A     		ldr	r3, [r6, #32]
 1114 01d4 0133     		adds	r3, r3, #1
 1115              	.LBB748:
 115:examples/looper.cpp ****                     slice_timer = 0;
 1116              		.loc 14 115 17 view .LVU312
 1117 01d6 9842     		cmp	r0, r3
 1118              	.LBE748:
 114:examples/looper.cpp ****                 if (slice_timer >= current_slice_len) {
 1119              		.loc 14 114 28 view .LVU313
 1120 01d8 3362     		str	r3, [r6, #32]
 115:examples/looper.cpp ****                     slice_timer = 0;
 1121              		.loc 14 115 17 is_stmt 1 view .LVU314
 1122              	.LBB751:
 1123 01da 40F3B980 		ble	.L34
 1124              	.LBE751:
 122:examples/looper.cpp ****                 // 
 1125              		.loc 14 122 32 is_stmt 0 view .LVU315
 1126 01de B169     		ldr	r1, [r6, #24]
 1127              	.LVL67:
 1128              	.L35:
 122:examples/looper.cpp ****                 // 
 1129              		.loc 14 122 17 is_stmt 1 view .LVU316
 122:examples/looper.cpp ****                 // 
 1130              		.loc 14 122 21 is_stmt 0 view .LVU317
 1131 01e0 0B44     		add	r3, r3, r1
 1132              	.LVL68:
 124:examples/looper.cpp ****                 out_sample = buffer[read_pos];
 1133              		.loc 14 124 17 is_stmt 1 view .LVU318
 1134 01e2 9342     		cmp	r3, r2
 125:examples/looper.cpp **** 
 1135              		.loc 14 125 45 is_stmt 0 view .LVU319
 1136 01e4 B4BF     		ite	lt
 1137 01e6 9900     		lsllt	r1, r3, #2
 1138 01e8 0021     		movge	r1, #0
 1139              	.LVL69:
 125:examples/looper.cpp **** 
 1140              		.loc 14 125 17 is_stmt 1 view .LVU320
 125:examples/looper.cpp **** 
 1141              		.loc 14 125 28 is_stmt 0 view .LVU321
 1142 01ea 3368     		ldr	r3, [r6]
 1143 01ec 0B44     		add	r3, r3, r1
 1144 01ee 1968     		ldr	r1, [r3]	@ float
 1145              	.LVL70:
 128:examples/looper.cpp ****                 if (pos >= mod_len) pos = 0;
 1146              		.loc 14 128 17 is_stmt 1 view .LVU322
 128:examples/looper.cpp ****                 if (pos >= mod_len) pos = 0;
 1147              		.loc 14 128 20 is_stmt 0 view .LVU323
 1148 01f0 B368     		ldr	r3, [r6, #8]
 1149 01f2 0133     		adds	r3, r3, #1
 129:examples/looper.cpp ****             }
 1150              		.loc 14 129 17 is_stmt 1 view .LVU324
 1151 01f4 9342     		cmp	r3, r2
ARM GAS  C:\Users\yaman\AppData\Local\Temp\ccCu6FW5.s 			page 52


 1152 01f6 00DB     		blt	.L86
 1153              	.LVL71:
 1154              	.L37:
 129:examples/looper.cpp ****             }
 1155              		.loc 14 129 37 view .LVU325
 129:examples/looper.cpp ****             }
 1156              		.loc 14 129 41 is_stmt 0 view .LVU326
 1157 01f8 0023     		movs	r3, #0
 1158              	.L86:
 129:examples/looper.cpp ****             }
 1159              		.loc 14 129 41 view .LVU327
 1160 01fa B360     		str	r3, [r6, #8]
 1161 01fc 53E7     		b	.L26
 1162              	.LVL72:
 1163              	.L82:
 104:examples/looper.cpp ****                 if (knob_val > 0.8f)      divisions = 32;
 1164              		.loc 14 104 17 is_stmt 1 view .LVU328
 105:examples/looper.cpp ****                 else if (knob_val > 0.6f) divisions = 16;
 1165              		.loc 14 105 17 view .LVU329
 1166 01fe DFED397A 		vldr.32	s15, .L97+36
 1167 0202 F4EEE79A 		vcmpe.f32	s19, s15
 1168 0206 F1EE10FA 		vmrs	APSR_nzcv, FPSCR
 1169 020a DADC     		bgt	.L63
 106:examples/looper.cpp ****                 else if (knob_val > 0.4f) divisions = 8;
 1170              		.loc 14 106 22 view .LVU330
 1171 020c DFED347A 		vldr.32	s15, .L97+32
 1172 0210 F4EEE79A 		vcmpe.f32	s19, s15
 1173 0214 F1EE10FA 		vmrs	APSR_nzcv, FPSCR
 1174 0218 00F38780 		bgt	.L64
 107:examples/looper.cpp ****                 else if (knob_val > 0.2f) divisions = 4;
 1175              		.loc 14 107 22 view .LVU331
 1176 021c DFED347A 		vldr.32	s15, .L97+48
 1177 0220 F4EEE79A 		vcmpe.f32	s19, s15
 1178 0224 F1EE10FA 		vmrs	APSR_nzcv, FPSCR
 1179 0228 00F3A580 		bgt	.L65
 108:examples/looper.cpp **** 
 1180              		.loc 14 108 22 view .LVU332
 1181 022c DFED317A 		vldr.32	s15, .L97+52
 104:examples/looper.cpp ****                 if (knob_val > 0.8f)      divisions = 32;
 1182              		.loc 14 104 21 is_stmt 0 view .LVU333
 1183 0230 F4EEE79A 		vcmpe.f32	s19, s15
 1184 0234 F1EE10FA 		vmrs	APSR_nzcv, FPSCR
 1185 0238 CCBF     		ite	gt
 1186 023a 0421     		movgt	r1, #4
 1187              	.LVL73:
 104:examples/looper.cpp ****                 if (knob_val > 0.8f)      divisions = 32;
 1188              		.loc 14 104 21 view .LVU334
 1189 023c 0221     		movle	r1, #2
 1190 023e C1E7     		b	.L32
 1191              	.LVL74:
 1192              	.L68:
 104:examples/looper.cpp ****                 if (knob_val > 0.8f)      divisions = 32;
 1193              		.loc 14 104 21 view .LVU335
 1194              	.LBE747:
 1195              	.LBE758:
 1196              	.LBE764:
 1197              	.LBE776:
ARM GAS  C:\Users\yaman\AppData\Local\Temp\ccCu6FW5.s 			page 53


 1198              	.LBE784:
 1199              	.LBE798:
 1200              	.LBB799:
 1201              	.LBB737:
 1202              	.LBB727:
 1203              	.LBB715:
 1204              	.LBB709:
 1205              	.LBB697:
 105:examples/looper.cpp ****                 else if (knob_val > 0.6f) divisions = 16;
 1206              		.loc 14 105 53 view .LVU336
 1207 0240 2021     		movs	r1, #32
 1208              	.LVL75:
 1209              	.L53:
 110:examples/looper.cpp ****                 if (current_slice_len < 1) current_slice_len = 1;
 1210              		.loc 14 110 17 is_stmt 1 view .LVU337
 110:examples/looper.cpp ****                 if (current_slice_len < 1) current_slice_len = 1;
 1211              		.loc 14 110 21 is_stmt 0 view .LVU338
 1212 0242 92FBF1F3 		sdiv	r3, r2, r1
 1213              	.LVL76:
 111:examples/looper.cpp **** 
 1214              		.loc 14 111 17 is_stmt 1 view .LVU339
 1215 0246 012B     		cmp	r3, #1
 1216 0248 B8BF     		it	lt
 1217 024a 0123     		movlt	r3, #1
 1218              	.LVL77:
 111:examples/looper.cpp **** 
 1219              		.loc 14 111 17 is_stmt 0 view .LVU340
 1220 024c 9A46     		mov	r10, r3
 1221              	.LVL78:
 114:examples/looper.cpp ****                 if (slice_timer >= current_slice_len) {
 1222              		.loc 14 114 17 is_stmt 1 view .LVU341
 114:examples/looper.cpp ****                 if (slice_timer >= current_slice_len) {
 1223              		.loc 14 114 28 is_stmt 0 view .LVU342
 1224 024e 2B6A     		ldr	r3, [r5, #32]
 1225              	.LVL79:
 114:examples/looper.cpp ****                 if (slice_timer >= current_slice_len) {
 1226              		.loc 14 114 28 view .LVU343
 1227 0250 03F1010C 		add	ip, r3, #1
 1228              	.LBB698:
 115:examples/looper.cpp ****                     slice_timer = 0;
 1229              		.loc 14 115 17 view .LVU344
 1230 0254 E245     		cmp	r10, ip
 1231              	.LBE698:
 114:examples/looper.cpp ****                 if (slice_timer >= current_slice_len) {
 1232              		.loc 14 114 28 view .LVU345
 1233 0256 C5F820C0 		str	ip, [r5, #32]
 115:examples/looper.cpp ****                     slice_timer = 0;
 1234              		.loc 14 115 17 is_stmt 1 view .LVU346
 1235              	.LBB701:
 1236 025a 68DD     		ble	.L55
 1237              	.LBE701:
 122:examples/looper.cpp ****                 // 
 1238              		.loc 14 122 32 is_stmt 0 view .LVU347
 1239 025c AB69     		ldr	r3, [r5, #24]
 1240              	.LVL80:
 1241              	.L56:
 122:examples/looper.cpp ****                 // 
ARM GAS  C:\Users\yaman\AppData\Local\Temp\ccCu6FW5.s 			page 54


 1242              		.loc 14 122 17 is_stmt 1 view .LVU348
 122:examples/looper.cpp ****                 // 
 1243              		.loc 14 122 21 is_stmt 0 view .LVU349
 1244 025e 6344     		add	r3, r3, ip
 1245              	.LVL81:
 124:examples/looper.cpp ****                 out_sample = buffer[read_pos];
 1246              		.loc 14 124 17 is_stmt 1 view .LVU350
 1247 0260 9342     		cmp	r3, r2
 125:examples/looper.cpp **** 
 1248              		.loc 14 125 45 is_stmt 0 view .LVU351
 1249 0262 B4BF     		ite	lt
 1250 0264 9900     		lsllt	r1, r3, #2
 1251 0266 0021     		movge	r1, #0
 1252              	.LVL82:
 125:examples/looper.cpp **** 
 1253              		.loc 14 125 17 is_stmt 1 view .LVU352
 125:examples/looper.cpp **** 
 1254              		.loc 14 125 28 is_stmt 0 view .LVU353
 1255 0268 2B68     		ldr	r3, [r5]
 1256 026a 0B44     		add	r3, r3, r1
 1257 026c 1968     		ldr	r1, [r3]	@ float
 1258              	.LVL83:
 128:examples/looper.cpp ****                 if (pos >= mod_len) pos = 0;
 1259              		.loc 14 128 17 is_stmt 1 view .LVU354
 128:examples/looper.cpp ****                 if (pos >= mod_len) pos = 0;
 1260              		.loc 14 128 20 is_stmt 0 view .LVU355
 1261 026e AB68     		ldr	r3, [r5, #8]
 1262 0270 0133     		adds	r3, r3, #1
 129:examples/looper.cpp ****             }
 1263              		.loc 14 129 17 is_stmt 1 view .LVU356
 1264 0272 9342     		cmp	r3, r2
 1265 0274 00DB     		blt	.L87
 1266              	.LVL84:
 1267              	.L58:
 129:examples/looper.cpp ****             }
 1268              		.loc 14 129 37 view .LVU357
 129:examples/looper.cpp ****             }
 1269              		.loc 14 129 41 is_stmt 0 view .LVU358
 1270 0276 0023     		movs	r3, #0
 1271              	.L87:
 129:examples/looper.cpp ****             }
 1272              		.loc 14 129 41 view .LVU359
 1273 0278 AB60     		str	r3, [r5, #8]
 1274 027a F1E6     		b	.L47
 1275              	.LVL85:
 1276              	.L84:
 104:examples/looper.cpp ****                 if (knob_val > 0.8f)      divisions = 32;
 1277              		.loc 14 104 17 is_stmt 1 view .LVU360
 105:examples/looper.cpp ****                 else if (knob_val > 0.6f) divisions = 16;
 1278              		.loc 14 105 17 view .LVU361
 1279 027c DFED197A 		vldr.32	s15, .L97+36
 1280 0280 B4EEE79A 		vcmpe.f32	s18, s15
 1281 0284 F1EE10FA 		vmrs	APSR_nzcv, FPSCR
 1282 0288 DADC     		bgt	.L68
 106:examples/looper.cpp ****                 else if (knob_val > 0.4f) divisions = 8;
 1283              		.loc 14 106 22 view .LVU362
 1284 028a DFED157A 		vldr.32	s15, .L97+32
ARM GAS  C:\Users\yaman\AppData\Local\Temp\ccCu6FW5.s 			page 55


 1285 028e B4EEE79A 		vcmpe.f32	s18, s15
 1286 0292 F1EE10FA 		vmrs	APSR_nzcv, FPSCR
 1287 0296 46DC     		bgt	.L69
 107:examples/looper.cpp ****                 else if (knob_val > 0.2f) divisions = 4;
 1288              		.loc 14 107 22 view .LVU363
 1289 0298 DFED157A 		vldr.32	s15, .L97+48
 1290 029c B4EEE79A 		vcmpe.f32	s18, s15
 1291 02a0 F1EE10FA 		vmrs	APSR_nzcv, FPSCR
 1292 02a4 65DC     		bgt	.L70
 108:examples/looper.cpp **** 
 1293              		.loc 14 108 22 view .LVU364
 1294 02a6 DFED137A 		vldr.32	s15, .L97+52
 104:examples/looper.cpp ****                 if (knob_val > 0.8f)      divisions = 32;
 1295              		.loc 14 104 21 is_stmt 0 view .LVU365
 1296 02aa B4EEE79A 		vcmpe.f32	s18, s15
 1297 02ae F1EE10FA 		vmrs	APSR_nzcv, FPSCR
 1298 02b2 CCBF     		ite	gt
 1299 02b4 0421     		movgt	r1, #4
 1300              	.LVL86:
 104:examples/looper.cpp ****                 if (knob_val > 0.8f)      divisions = 32;
 1301              		.loc 14 104 21 view .LVU366
 1302 02b6 0221     		movle	r1, #2
 1303 02b8 C3E7     		b	.L53
 1304              	.L98:
 1305 02ba 00BFAFF3 		.align	3
 1305      0080
 1306              	.L97:
 1307 02c0 00000000 		.word	0
 1308 02c4 00000000 		.word	0
 1309 02c8 00000000 		.word	.LANCHOR1
 1310 02cc 00000000 		.word	.LANCHOR0
 1311 02d0 00000000 		.word	.LANCHOR2
 1312 02d4 00000000 		.word	.LANCHOR3
 1313 02d8 00000000 		.word	.LANCHOR4
 1314 02dc 00000000 		.word	.LANCHOR5
 1315 02e0 9A99193F 		.word	1058642330
 1316 02e4 CDCC4C3F 		.word	1061997773
 1317 02e8 CDCC4C3D 		.word	1028443341
 1318 02ec 00F22B00 		.word	2880000
 1319 02f0 CDCCCC3E 		.word	1053609165
 1320 02f4 CDCC4C3E 		.word	1045220557
 1321              	.LVL87:
 1322              	.L96:
 104:examples/looper.cpp ****                 if (knob_val > 0.8f)      divisions = 32;
 1323              		.loc 14 104 21 view .LVU367
 1324              	.LBE697:
 1325              	.LBE709:
 1326              	.LBE715:
 1327              	.LBE727:
 1328              	.LBE737:
 1329              	.LBE799:
 1330              	.LBB800:
 1331              	.LBB785:
  71:examples/looper.cpp ****             } else if (state == PLAYING) {
 1332              		.loc 14 71 17 is_stmt 1 view .LVU368
  71:examples/looper.cpp ****             } else if (state == PLAYING) {
 1333              		.loc 14 71 54 is_stmt 0 view .LVU369
ARM GAS  C:\Users\yaman\AppData\Local\Temp\ccCu6FW5.s 			page 56


 1334 02f8 B268     		ldr	r2, [r6, #8]
  71:examples/looper.cpp ****             } else if (state == PLAYING) {
 1335              		.loc 14 71 23 view .LVU370
 1336 02fa 0323     		movs	r3, #3
  71:examples/looper.cpp ****             } else if (state == PLAYING) {
 1337              		.loc 14 71 69 view .LVU371
 1338 02fc B060     		str	r0, [r6, #8]
  71:examples/looper.cpp ****             } else if (state == PLAYING) {
 1339              		.loc 14 71 54 view .LVU372
 1340 02fe 012A     		cmp	r2, #1
  71:examples/looper.cpp ****             } else if (state == PLAYING) {
 1341              		.loc 14 71 23 view .LVU373
 1342 0300 3371     		strb	r3, [r6, #4]
  71:examples/looper.cpp ****             } else if (state == PLAYING) {
 1343              		.loc 14 71 34 is_stmt 1 view .LVU374
  71:examples/looper.cpp ****             } else if (state == PLAYING) {
 1344              		.loc 14 71 65 view .LVU375
  71:examples/looper.cpp ****             } else if (state == PLAYING) {
 1345              		.loc 14 71 54 is_stmt 0 view .LVU376
 1346 0302 B8BF     		it	lt
 1347 0304 0122     		movlt	r2, #1
  71:examples/looper.cpp ****             } else if (state == PLAYING) {
 1348              		.loc 14 71 42 view .LVU377
 1349 0306 3261     		str	r2, [r6, #16]
 1350 0308 1CE7     		b	.L61
 1351              	.LVL88:
 1352              	.L94:
  71:examples/looper.cpp ****             } else if (state == PLAYING) {
 1353              		.loc 14 71 42 view .LVU378
 1354              	.LBE785:
 1355              	.LBE800:
 1356              	.LBB801:
 1357              	.LBB738:
  71:examples/looper.cpp ****             } else if (state == PLAYING) {
 1358              		.loc 14 71 17 is_stmt 1 view .LVU379
  71:examples/looper.cpp ****             } else if (state == PLAYING) {
 1359              		.loc 14 71 54 is_stmt 0 view .LVU380
 1360 030a AB68     		ldr	r3, [r5, #8]
  71:examples/looper.cpp ****             } else if (state == PLAYING) {
 1361              		.loc 14 71 69 view .LVU381
 1362 030c AA60     		str	r2, [r5, #8]
  71:examples/looper.cpp ****             } else if (state == PLAYING) {
 1363              		.loc 14 71 54 view .LVU382
 1364 030e 012B     		cmp	r3, #1
 1365 0310 B8BF     		it	lt
 1366 0312 0123     		movlt	r3, #1
 1367 0314 1A46     		mov	r2, r3
  71:examples/looper.cpp ****             } else if (state == PLAYING) {
 1368              		.loc 14 71 42 view .LVU383
 1369 0316 2B61     		str	r3, [r5, #16]
  71:examples/looper.cpp ****             } else if (state == PLAYING) {
 1370              		.loc 14 71 23 view .LVU384
 1371 0318 0323     		movs	r3, #3
 1372 031a 2B71     		strb	r3, [r5, #4]
  71:examples/looper.cpp ****             } else if (state == PLAYING) {
 1373              		.loc 14 71 34 is_stmt 1 view .LVU385
  71:examples/looper.cpp ****             } else if (state == PLAYING) {
ARM GAS  C:\Users\yaman\AppData\Local\Temp\ccCu6FW5.s 			page 57


 1374              		.loc 14 71 65 view .LVU386
 1375 031c E3E6     		b	.L60
 1376              	.LVL89:
 1377              	.L89:
 1378              	.LBB728:
 1379              	.LBB716:
 1380              	.LBB710:
 100:examples/looper.cpp ****             } else {
 1381              		.loc 14 100 28 is_stmt 0 view .LVU387
 1382 031e 2A69     		ldr	r2, [r5, #16]
 1383 0320 E1E6     		b	.L60
 1384              	.LVL90:
 1385              	.L92:
 100:examples/looper.cpp ****             } else {
 1386              		.loc 14 100 28 view .LVU388
 1387              	.LBE710:
 1388              	.LBE716:
 1389              	.LBE728:
 1390              	.LBE738:
 1391              	.LBE801:
 1392              	.LBB802:
 1393              	.LBB786:
 1394              	.LBB777:
 1395              	.LBB765:
 1396              	.LBB759:
 1397 0322 3269     		ldr	r2, [r6, #16]
 1398 0324 0EE7     		b	.L61
 1399              	.LVL91:
 1400              	.L69:
 100:examples/looper.cpp ****             } else {
 1401              		.loc 14 100 28 view .LVU389
 1402              	.LBE759:
 1403              	.LBE765:
 1404              	.LBE777:
 1405              	.LBE786:
 1406              	.LBE802:
 1407              	.LBB803:
 1408              	.LBB739:
 1409              	.LBB729:
 1410              	.LBB717:
 1411              	.LBB711:
 1412              	.LBB704:
 106:examples/looper.cpp ****                 else if (knob_val > 0.4f) divisions = 8;
 1413              		.loc 14 106 53 view .LVU390
 1414 0326 1021     		movs	r1, #16
 1415              	.LVL92:
 106:examples/looper.cpp ****                 else if (knob_val > 0.4f) divisions = 8;
 1416              		.loc 14 106 53 view .LVU391
 1417 0328 8BE7     		b	.L53
 1418              	.LVL93:
 1419              	.L64:
 106:examples/looper.cpp ****                 else if (knob_val > 0.4f) divisions = 8;
 1420              		.loc 14 106 53 view .LVU392
 1421              	.LBE704:
 1422              	.LBE711:
 1423              	.LBE717:
 1424              	.LBE729:
ARM GAS  C:\Users\yaman\AppData\Local\Temp\ccCu6FW5.s 			page 58


 1425              	.LBE739:
 1426              	.LBE803:
 1427              	.LBB804:
 1428              	.LBB787:
 1429              	.LBB778:
 1430              	.LBB766:
 1431              	.LBB760:
 1432              	.LBB754:
 1433 032a 1021     		movs	r1, #16
 1434              	.LVL94:
 106:examples/looper.cpp ****                 else if (knob_val > 0.4f) divisions = 8;
 1435              		.loc 14 106 53 view .LVU393
 1436 032c 4AE7     		b	.L32
 1437              	.LVL95:
 1438              	.L55:
 106:examples/looper.cpp ****                 else if (knob_val > 0.4f) divisions = 8;
 1439              		.loc 14 106 53 view .LVU394
 1440              	.LBE754:
 1441              	.LBE760:
 1442              	.LBE766:
 1443              	.LBE778:
 1444              	.LBE787:
 1445              	.LBE804:
 1446              	.LBB805:
 1447              	.LBB740:
 1448              	.LBB730:
 1449              	.LBB718:
 1450              	.LBB712:
 1451              	.LBB705:
 1452              	.LBB702:
 1453              	.LBB699:
 116:examples/looper.cpp ****                     // 
 1454              		.loc 14 116 21 is_stmt 1 view .LVU395
 116:examples/looper.cpp ****                     // 
 1455              		.loc 14 116 33 is_stmt 0 view .LVU396
 1456 032e 0023     		movs	r3, #0
 1457 0330 0091     		str	r1, [sp]
 1458 0332 2B62     		str	r3, [r5, #32]
 118:examples/looper.cpp ****                     slice_start = (rand() % num_slices) * current_slice_len;
 1459              		.loc 14 118 21 is_stmt 1 view .LVU397
 1460              	.LVL96:
 119:examples/looper.cpp ****                 }
 1461              		.loc 14 119 21 view .LVU398
 119:examples/looper.cpp ****                 }
 1462              		.loc 14 119 40 is_stmt 0 view .LVU399
 1463 0334 FFF7FEFF 		bl	rand
 1464              	.LVL97:
 119:examples/looper.cpp ****                 }
 1465              		.loc 14 119 43 view .LVU400
 1466 0338 0099     		ldr	r1, [sp]
 1467              	.LBE699:
 1468              	.LBE702:
 122:examples/looper.cpp ****                 // 
 1469              		.loc 14 122 46 view .LVU401
 1470 033a D5F820C0 		ldr	ip, [r5, #32]
 124:examples/looper.cpp ****                 out_sample = buffer[read_pos];
 1471              		.loc 14 124 33 view .LVU402
ARM GAS  C:\Users\yaman\AppData\Local\Temp\ccCu6FW5.s 			page 59


 1472 033e 2A69     		ldr	r2, [r5, #16]
 1473              	.LBB703:
 1474              	.LBB700:
 119:examples/looper.cpp ****                 }
 1475              		.loc 14 119 43 view .LVU403
 1476 0340 90FBF1F3 		sdiv	r3, r0, r1
 1477 0344 03FB1100 		mls	r0, r3, r1, r0
 119:examples/looper.cpp ****                 }
 1478              		.loc 14 119 57 view .LVU404
 1479 0348 0AFB00F3 		mul	r3, r10, r0
 119:examples/looper.cpp ****                 }
 1480              		.loc 14 119 33 view .LVU405
 1481 034c AB61     		str	r3, [r5, #24]
 1482              	.LBE700:
 1483 034e 86E7     		b	.L56
 1484              	.LVL98:
 1485              	.L34:
 119:examples/looper.cpp ****                 }
 1486              		.loc 14 119 33 view .LVU406
 1487              	.LBE703:
 1488              	.LBE705:
 1489              	.LBE712:
 1490              	.LBE718:
 1491              	.LBE730:
 1492              	.LBE740:
 1493              	.LBE805:
 1494              	.LBB806:
 1495              	.LBB788:
 1496              	.LBB779:
 1497              	.LBB767:
 1498              	.LBB761:
 1499              	.LBB755:
 1500              	.LBB752:
 1501              	.LBB749:
 116:examples/looper.cpp ****                     // 
 1502              		.loc 14 116 21 is_stmt 1 view .LVU407
 116:examples/looper.cpp ****                     // 
 1503              		.loc 14 116 33 is_stmt 0 view .LVU408
 1504 0350 0023     		movs	r3, #0
 1505 0352 0191     		str	r1, [sp, #4]
 1506 0354 3362     		str	r3, [r6, #32]
 118:examples/looper.cpp ****                     slice_start = (rand() % num_slices) * current_slice_len;
 1507              		.loc 14 118 21 is_stmt 1 view .LVU409
 1508              	.LVL99:
 119:examples/looper.cpp ****                 }
 1509              		.loc 14 119 21 view .LVU410
 119:examples/looper.cpp ****                 }
 1510              		.loc 14 119 40 is_stmt 0 view .LVU411
 1511 0356 FFF7FEFF 		bl	rand
 1512              	.LVL100:
 119:examples/looper.cpp ****                 }
 1513              		.loc 14 119 43 view .LVU412
 1514 035a 0199     		ldr	r1, [sp, #4]
 1515              	.LBE749:
 1516              	.LBE752:
 122:examples/looper.cpp ****                 // 
 1517              		.loc 14 122 46 view .LVU413
ARM GAS  C:\Users\yaman\AppData\Local\Temp\ccCu6FW5.s 			page 60


 1518 035c 336A     		ldr	r3, [r6, #32]
 124:examples/looper.cpp ****                 out_sample = buffer[read_pos];
 1519              		.loc 14 124 33 view .LVU414
 1520 035e 3269     		ldr	r2, [r6, #16]
 1521              	.LBB753:
 1522              	.LBB750:
 119:examples/looper.cpp ****                 }
 1523              		.loc 14 119 43 view .LVU415
 1524 0360 90FBF1FC 		sdiv	ip, r0, r1
 1525 0364 0CFB1101 		mls	r1, ip, r1, r0
 119:examples/looper.cpp ****                 }
 1526              		.loc 14 119 57 view .LVU416
 1527 0368 0098     		ldr	r0, [sp]
 1528 036a 00FB01F1 		mul	r1, r0, r1
 119:examples/looper.cpp ****                 }
 1529              		.loc 14 119 33 view .LVU417
 1530 036e B161     		str	r1, [r6, #24]
 1531              	.LBE750:
 1532 0370 36E7     		b	.L35
 1533              	.LVL101:
 1534              	.L70:
 119:examples/looper.cpp ****                 }
 1535              		.loc 14 119 33 view .LVU418
 1536              	.LBE753:
 1537              	.LBE755:
 1538              	.LBE761:
 1539              	.LBE767:
 1540              	.LBE779:
 1541              	.LBE788:
 1542              	.LBE806:
 1543              	.LBB807:
 1544              	.LBB741:
 1545              	.LBB731:
 1546              	.LBB719:
 1547              	.LBB713:
 1548              	.LBB706:
 107:examples/looper.cpp ****                 else if (knob_val > 0.2f) divisions = 4;
 1549              		.loc 14 107 53 view .LVU419
 1550 0372 0821     		movs	r1, #8
 1551              	.LVL102:
 107:examples/looper.cpp ****                 else if (knob_val > 0.2f) divisions = 4;
 1552              		.loc 14 107 53 view .LVU420
 1553 0374 65E7     		b	.L53
 1554              	.LVL103:
 1555              	.L65:
 107:examples/looper.cpp ****                 else if (knob_val > 0.2f) divisions = 4;
 1556              		.loc 14 107 53 view .LVU421
 1557              	.LBE706:
 1558              	.LBE713:
 1559              	.LBE719:
 1560              	.LBE731:
 1561              	.LBE741:
 1562              	.LBE807:
 1563              	.LBB808:
 1564              	.LBB789:
 1565              	.LBB780:
 1566              	.LBB768:
ARM GAS  C:\Users\yaman\AppData\Local\Temp\ccCu6FW5.s 			page 61


 1567              	.LBB762:
 1568              	.LBB756:
 1569 0376 0821     		movs	r1, #8
 1570              	.LVL104:
 107:examples/looper.cpp ****                 else if (knob_val > 0.2f) divisions = 4;
 1571              		.loc 14 107 53 view .LVU422
 1572 0378 24E7     		b	.L32
 1573              	.LBE756:
 1574              	.LBE762:
 1575              	.LBE768:
 1576              	.LBE780:
 1577              	.LBE789:
 1578              	.LBE808:
 1579              	.LBE809:
 1580              		.cfi_endproc
 1581              	.LFE4756:
 1583              		.section	.text._ZN5daisy25OneBitGraphicsDisplayImplINS_11OledDisplayINS_13SSD130xDriverILj64ELj32E
 1584              		.align	1
 1585              		.p2align 2,,3
 1586              		.weak	_ZN5daisy25OneBitGraphicsDisplayImplINS_11OledDisplayINS_13SSD130xDriverILj64ELj32ENS_19SSD1
 1587              		.syntax unified
 1588              		.thumb
 1589              		.thumb_func
 1590              		.fpu fpv5-d16
 1592              	_ZN5daisy25OneBitGraphicsDisplayImplINS_11OledDisplayINS_13SSD130xDriverILj64ELj32ENS_19SSD130xI2CT
 1593              	.LVL105:
 1594              	.LFB5108:
 220:libDaisy/src/hid/disp/display.h **** 
 221:libDaisy/src/hid/disp/display.h ****     void DrawLine(uint_fast8_t x1,
 222:libDaisy/src/hid/disp/display.h ****                   uint_fast8_t y1,
 223:libDaisy/src/hid/disp/display.h ****                   uint_fast8_t x2,
 224:libDaisy/src/hid/disp/display.h ****                   uint_fast8_t y2,
 225:libDaisy/src/hid/disp/display.h ****                   bool         on) override
 226:libDaisy/src/hid/disp/display.h ****     {
 227:libDaisy/src/hid/disp/display.h ****         int_fast16_t deltaX = abs((int_fast16_t)x2 - (int_fast16_t)x1);
 228:libDaisy/src/hid/disp/display.h ****         int_fast16_t deltaY = abs((int_fast16_t)y2 - (int_fast16_t)y1);
 229:libDaisy/src/hid/disp/display.h ****         int_fast16_t signX  = ((x1 < x2) ? 1 : -1);
 230:libDaisy/src/hid/disp/display.h ****         int_fast16_t signY  = ((y1 < y2) ? 1 : -1);
 231:libDaisy/src/hid/disp/display.h ****         int_fast16_t error  = deltaX - deltaY;
 232:libDaisy/src/hid/disp/display.h ****         int_fast16_t error2;
 233:libDaisy/src/hid/disp/display.h **** 
 234:libDaisy/src/hid/disp/display.h ****         // If we write "ChildType::DrawPixel(x2, y2, on);", we end up with
 235:libDaisy/src/hid/disp/display.h ****         // all sorts of weird compiler errors when the Child class is a template
 236:libDaisy/src/hid/disp/display.h ****         // class. The only way around this is to use this very verbose syntax:
 237:libDaisy/src/hid/disp/display.h ****         ((ChildType*)(this))->ChildType::DrawPixel(x2, y2, on);
 238:libDaisy/src/hid/disp/display.h **** 
 239:libDaisy/src/hid/disp/display.h ****         while((x1 != x2) || (y1 != y2))
 240:libDaisy/src/hid/disp/display.h ****         {
 241:libDaisy/src/hid/disp/display.h ****             ((ChildType*)(this))->ChildType::DrawPixel(x1, y1, on);
 242:libDaisy/src/hid/disp/display.h ****             error2 = error * 2;
 243:libDaisy/src/hid/disp/display.h ****             if(error2 > -deltaY)
 244:libDaisy/src/hid/disp/display.h ****             {
 245:libDaisy/src/hid/disp/display.h ****                 error -= deltaY;
 246:libDaisy/src/hid/disp/display.h ****                 x1 += signX;
 247:libDaisy/src/hid/disp/display.h ****             }
 248:libDaisy/src/hid/disp/display.h **** 
 249:libDaisy/src/hid/disp/display.h ****             if(error2 < deltaX)
ARM GAS  C:\Users\yaman\AppData\Local\Temp\ccCu6FW5.s 			page 62


 250:libDaisy/src/hid/disp/display.h ****             {
 251:libDaisy/src/hid/disp/display.h ****                 error += deltaX;
 252:libDaisy/src/hid/disp/display.h ****                 y1 += signY;
 253:libDaisy/src/hid/disp/display.h ****             }
 254:libDaisy/src/hid/disp/display.h ****         }
 255:libDaisy/src/hid/disp/display.h ****     }
 256:libDaisy/src/hid/disp/display.h **** 
 257:libDaisy/src/hid/disp/display.h ****     void DrawRect(uint_fast8_t x1,
 258:libDaisy/src/hid/disp/display.h ****                   uint_fast8_t y1,
 259:libDaisy/src/hid/disp/display.h ****                   uint_fast8_t x2,
 260:libDaisy/src/hid/disp/display.h ****                   uint_fast8_t y2,
 261:libDaisy/src/hid/disp/display.h ****                   bool         on,
 262:libDaisy/src/hid/disp/display.h ****                   bool         fill = false) override
 263:libDaisy/src/hid/disp/display.h ****     {
 264:libDaisy/src/hid/disp/display.h ****         if(fill)
 265:libDaisy/src/hid/disp/display.h ****         {
 266:libDaisy/src/hid/disp/display.h ****             for(uint_fast8_t x = x1; x <= x2; x++)
 267:libDaisy/src/hid/disp/display.h ****             {
 268:libDaisy/src/hid/disp/display.h ****                 for(uint_fast8_t y = y1; y <= y2; y++)
 269:libDaisy/src/hid/disp/display.h ****                 {
 270:libDaisy/src/hid/disp/display.h ****                     ((ChildType*)(this))->ChildType::DrawPixel(x, y, on);
 271:libDaisy/src/hid/disp/display.h ****                 }
 272:libDaisy/src/hid/disp/display.h ****             }
 273:libDaisy/src/hid/disp/display.h ****         }
 274:libDaisy/src/hid/disp/display.h ****         else
 275:libDaisy/src/hid/disp/display.h ****         {
 276:libDaisy/src/hid/disp/display.h ****             ((ChildType*)(this))->ChildType::DrawLine(x1, y1, x2, y1, on);
 277:libDaisy/src/hid/disp/display.h ****             ((ChildType*)(this))->ChildType::DrawLine(x2, y1, x2, y2, on);
 278:libDaisy/src/hid/disp/display.h ****             ((ChildType*)(this))->ChildType::DrawLine(x2, y2, x1, y2, on);
 279:libDaisy/src/hid/disp/display.h ****             ((ChildType*)(this))->ChildType::DrawLine(x1, y2, x1, y1, on);
 280:libDaisy/src/hid/disp/display.h ****         }
 281:libDaisy/src/hid/disp/display.h ****     }
 282:libDaisy/src/hid/disp/display.h **** 
 283:libDaisy/src/hid/disp/display.h ****     void DrawArc(uint_fast8_t x,
 284:libDaisy/src/hid/disp/display.h ****                  uint_fast8_t y,
 285:libDaisy/src/hid/disp/display.h ****                  uint_fast8_t radius,
 286:libDaisy/src/hid/disp/display.h ****                  int_fast16_t start_angle,
 287:libDaisy/src/hid/disp/display.h ****                  int_fast16_t sweep,
 288:libDaisy/src/hid/disp/display.h ****                  bool         on) override
 289:libDaisy/src/hid/disp/display.h ****     {
 290:libDaisy/src/hid/disp/display.h ****         // Values to calculate the circle
 291:libDaisy/src/hid/disp/display.h ****         int_fast16_t t_x, t_y, err, e2;
 292:libDaisy/src/hid/disp/display.h **** 
 293:libDaisy/src/hid/disp/display.h ****         // Temporary values to speed up comparisons
 294:libDaisy/src/hid/disp/display.h ****         float t_sxy, t_syx, t_sxny, t_synx;
 295:libDaisy/src/hid/disp/display.h ****         float t_exy, t_eyx, t_exny, t_eynx;
 296:libDaisy/src/hid/disp/display.h **** 
 297:libDaisy/src/hid/disp/display.h ****         float start_angle_rad, end_angle_rad;
 298:libDaisy/src/hid/disp/display.h ****         float start_x, start_y, end_x, end_y;
 299:libDaisy/src/hid/disp/display.h **** 
 300:libDaisy/src/hid/disp/display.h ****         bool d1, d2, d3, d4;
 301:libDaisy/src/hid/disp/display.h **** 
 302:libDaisy/src/hid/disp/display.h ****         d1 = d2 = d3 = d4 = true;
 303:libDaisy/src/hid/disp/display.h **** 
 304:libDaisy/src/hid/disp/display.h ****         bool circle = false;
 305:libDaisy/src/hid/disp/display.h **** 
 306:libDaisy/src/hid/disp/display.h ****         if(sweep < 0)
ARM GAS  C:\Users\yaman\AppData\Local\Temp\ccCu6FW5.s 			page 63


 307:libDaisy/src/hid/disp/display.h ****         {
 308:libDaisy/src/hid/disp/display.h ****             start_angle += sweep;
 309:libDaisy/src/hid/disp/display.h ****             sweep = -sweep;
 310:libDaisy/src/hid/disp/display.h ****         }
 311:libDaisy/src/hid/disp/display.h **** 
 312:libDaisy/src/hid/disp/display.h ****         start_angle_rad = deg2rad(start_angle);
 313:libDaisy/src/hid/disp/display.h ****         end_angle_rad   = deg2rad(start_angle + sweep);
 314:libDaisy/src/hid/disp/display.h **** 
 315:libDaisy/src/hid/disp/display.h ****         start_x = cos(start_angle_rad) * radius;
 316:libDaisy/src/hid/disp/display.h ****         start_y = -sin(start_angle_rad) * radius;
 317:libDaisy/src/hid/disp/display.h ****         end_x   = cos(end_angle_rad) * radius;
 318:libDaisy/src/hid/disp/display.h ****         end_y   = -sin(end_angle_rad) * radius;
 319:libDaisy/src/hid/disp/display.h **** 
 320:libDaisy/src/hid/disp/display.h ****         // Check if start and endpoint are very near
 321:libDaisy/src/hid/disp/display.h ****         if((end_x - start_x) * (end_x - start_x)
 322:libDaisy/src/hid/disp/display.h ****                + (end_y - start_y) * (end_y - start_y)
 323:libDaisy/src/hid/disp/display.h ****            < 2.0f)
 324:libDaisy/src/hid/disp/display.h ****         {
 325:libDaisy/src/hid/disp/display.h ****             if(sweep > 180)
 326:libDaisy/src/hid/disp/display.h ****                 circle = true;
 327:libDaisy/src/hid/disp/display.h ****             else
 328:libDaisy/src/hid/disp/display.h ****                 // Nothing to draw
 329:libDaisy/src/hid/disp/display.h ****                 return;
 330:libDaisy/src/hid/disp/display.h ****         }
 331:libDaisy/src/hid/disp/display.h **** 
 332:libDaisy/src/hid/disp/display.h ****         t_x = -radius;
 333:libDaisy/src/hid/disp/display.h ****         t_y = 0;
 334:libDaisy/src/hid/disp/display.h ****         err = 2 - 2 * radius;
 335:libDaisy/src/hid/disp/display.h **** 
 336:libDaisy/src/hid/disp/display.h ****         do
 337:libDaisy/src/hid/disp/display.h ****         {
 338:libDaisy/src/hid/disp/display.h ****             if(!circle)
 339:libDaisy/src/hid/disp/display.h ****             {
 340:libDaisy/src/hid/disp/display.h ****                 t_sxy  = start_x * t_y;
 341:libDaisy/src/hid/disp/display.h ****                 t_syx  = start_y * t_x;
 342:libDaisy/src/hid/disp/display.h ****                 t_sxny = start_x * -t_y;
 343:libDaisy/src/hid/disp/display.h ****                 t_synx = start_y * -t_x;
 344:libDaisy/src/hid/disp/display.h ****                 t_exy  = end_x * t_y;
 345:libDaisy/src/hid/disp/display.h ****                 t_eyx  = end_y * t_x;
 346:libDaisy/src/hid/disp/display.h ****                 t_exny = end_x * -t_y;
 347:libDaisy/src/hid/disp/display.h ****                 t_eynx = end_y * -t_x;
 348:libDaisy/src/hid/disp/display.h **** 
 349:libDaisy/src/hid/disp/display.h ****                 if(sweep > 180)
 350:libDaisy/src/hid/disp/display.h ****                 {
 351:libDaisy/src/hid/disp/display.h ****                     d1 = (t_sxy - t_synx < 0 || t_exy - t_eynx > 0);
 352:libDaisy/src/hid/disp/display.h ****                     d2 = (t_sxy - t_syx < 0 || t_exy - t_eyx > 0);
 353:libDaisy/src/hid/disp/display.h ****                     d3 = (t_sxny - t_syx < 0 || t_exny - t_eyx > 0);
 354:libDaisy/src/hid/disp/display.h ****                     d4 = (t_sxny - t_synx < 0 || t_exny - t_eynx > 0);
 355:libDaisy/src/hid/disp/display.h ****                 }
 356:libDaisy/src/hid/disp/display.h ****                 else
 357:libDaisy/src/hid/disp/display.h ****                 {
 358:libDaisy/src/hid/disp/display.h ****                     d1 = (t_sxy - t_synx < 0 && t_exy - t_eynx > 0);
 359:libDaisy/src/hid/disp/display.h ****                     d2 = (t_sxy - t_syx < 0 && t_exy - t_eyx > 0);
 360:libDaisy/src/hid/disp/display.h ****                     d3 = (t_sxny - t_syx < 0 && t_exny - t_eyx > 0);
 361:libDaisy/src/hid/disp/display.h ****                     d4 = (t_sxny - t_synx < 0 && t_exny - t_eynx > 0);
 362:libDaisy/src/hid/disp/display.h ****                 }
 363:libDaisy/src/hid/disp/display.h ****             }
ARM GAS  C:\Users\yaman\AppData\Local\Temp\ccCu6FW5.s 			page 64


 364:libDaisy/src/hid/disp/display.h **** 
 365:libDaisy/src/hid/disp/display.h ****             if(d1)
 366:libDaisy/src/hid/disp/display.h ****                 ((ChildType*)(this))
 367:libDaisy/src/hid/disp/display.h ****                     ->ChildType::DrawPixel(x - t_x, y + t_y, on);
 368:libDaisy/src/hid/disp/display.h ****             if(d2)
 369:libDaisy/src/hid/disp/display.h ****                 ((ChildType*)(this))
 370:libDaisy/src/hid/disp/display.h ****                     ->ChildType::DrawPixel(x + t_x, y + t_y, on);
 371:libDaisy/src/hid/disp/display.h ****             if(d3)
 372:libDaisy/src/hid/disp/display.h ****                 ((ChildType*)(this))
 373:libDaisy/src/hid/disp/display.h ****                     ->ChildType::DrawPixel(x + t_x, y - t_y, on);
 374:libDaisy/src/hid/disp/display.h ****             if(d4)
 375:libDaisy/src/hid/disp/display.h ****                 ((ChildType*)(this))
 376:libDaisy/src/hid/disp/display.h ****                     ->ChildType::DrawPixel(x - t_x, y - t_y, on);
 377:libDaisy/src/hid/disp/display.h **** 
 378:libDaisy/src/hid/disp/display.h ****             e2 = err;
 379:libDaisy/src/hid/disp/display.h ****             if(e2 <= t_y)
 380:libDaisy/src/hid/disp/display.h ****             {
 381:libDaisy/src/hid/disp/display.h ****                 t_y++;
 382:libDaisy/src/hid/disp/display.h ****                 err = err + (t_y * 2 + 1);
 383:libDaisy/src/hid/disp/display.h ****                 if(-t_x == t_y && e2 <= t_x)
 384:libDaisy/src/hid/disp/display.h ****                 {
 385:libDaisy/src/hid/disp/display.h ****                     e2 = 0;
 386:libDaisy/src/hid/disp/display.h ****                 }
 387:libDaisy/src/hid/disp/display.h ****             }
 388:libDaisy/src/hid/disp/display.h ****             if(e2 > t_x)
 389:libDaisy/src/hid/disp/display.h ****             {
 390:libDaisy/src/hid/disp/display.h ****                 t_x++;
 391:libDaisy/src/hid/disp/display.h ****                 err = err + (t_x * 2 + 1);
 392:libDaisy/src/hid/disp/display.h ****             }
 393:libDaisy/src/hid/disp/display.h ****         } while(t_x <= 0);
 394:libDaisy/src/hid/disp/display.h ****     }
 395:libDaisy/src/hid/disp/display.h **** 
 396:libDaisy/src/hid/disp/display.h ****     char WriteChar(char ch, FontDef font, bool on) override
 397:libDaisy/src/hid/disp/display.h ****     {
 398:libDaisy/src/hid/disp/display.h ****         uint32_t i, b, j;
 399:libDaisy/src/hid/disp/display.h **** 
 400:libDaisy/src/hid/disp/display.h ****         // Check if character is valid
 401:libDaisy/src/hid/disp/display.h ****         if(ch < 32 || ch > 126)
 402:libDaisy/src/hid/disp/display.h ****             return 0;
 403:libDaisy/src/hid/disp/display.h **** 
 404:libDaisy/src/hid/disp/display.h ****         // Check remaining space on current line
 405:libDaisy/src/hid/disp/display.h ****         if(Width() < (currentX_ + font.FontWidth)
 406:libDaisy/src/hid/disp/display.h ****            || Height() < (currentY_ + font.FontHeight))
 407:libDaisy/src/hid/disp/display.h ****         {
 408:libDaisy/src/hid/disp/display.h ****             // Not enough space on current line
 409:libDaisy/src/hid/disp/display.h ****             return 0;
 410:libDaisy/src/hid/disp/display.h ****         }
 411:libDaisy/src/hid/disp/display.h **** 
 412:libDaisy/src/hid/disp/display.h ****         // Use the font to write
 413:libDaisy/src/hid/disp/display.h ****         for(i = 0; i < font.FontHeight; i++)
 414:libDaisy/src/hid/disp/display.h ****         {
 415:libDaisy/src/hid/disp/display.h ****             b = font.data[(ch - 32) * font.FontHeight + i];
 416:libDaisy/src/hid/disp/display.h ****             for(j = 0; j < font.FontWidth; j++)
 417:libDaisy/src/hid/disp/display.h ****             {
 418:libDaisy/src/hid/disp/display.h ****                 if((b << j) & 0x8000)
 419:libDaisy/src/hid/disp/display.h ****                 {
 420:libDaisy/src/hid/disp/display.h ****                     ((ChildType*)(this))
ARM GAS  C:\Users\yaman\AppData\Local\Temp\ccCu6FW5.s 			page 65


 421:libDaisy/src/hid/disp/display.h ****                         ->ChildType::DrawPixel(
 422:libDaisy/src/hid/disp/display.h ****                             currentX_ + j, (currentY_ + i), on);
 423:libDaisy/src/hid/disp/display.h ****                 }
 424:libDaisy/src/hid/disp/display.h ****                 else
 425:libDaisy/src/hid/disp/display.h ****                 {
 426:libDaisy/src/hid/disp/display.h ****                     ((ChildType*)(this))
 427:libDaisy/src/hid/disp/display.h ****                         ->ChildType::DrawPixel(
 428:libDaisy/src/hid/disp/display.h ****                             currentX_ + j, (currentY_ + i), !on);
 429:libDaisy/src/hid/disp/display.h ****                 }
 430:libDaisy/src/hid/disp/display.h ****             }
 431:libDaisy/src/hid/disp/display.h ****         }
 432:libDaisy/src/hid/disp/display.h **** 
 433:libDaisy/src/hid/disp/display.h ****         // The current space is now taken
 434:libDaisy/src/hid/disp/display.h ****         SetCursor(currentX_ + font.FontWidth, currentY_);
 435:libDaisy/src/hid/disp/display.h **** 
 436:libDaisy/src/hid/disp/display.h ****         // Return written char for validation
 437:libDaisy/src/hid/disp/display.h ****         return ch;
 438:libDaisy/src/hid/disp/display.h ****     }
 439:libDaisy/src/hid/disp/display.h **** 
 440:libDaisy/src/hid/disp/display.h ****     char WriteString(const char* str, FontDef font, bool on) override
 1595              		.loc 3 440 10 is_stmt 1 view -0
 1596              		.cfi_startproc
 1597              		@ args = 4, pretend = 0, frame = 40
 1598              		@ frame_needed = 0, uses_anonymous_args = 0
 1599              		.loc 3 440 10 is_stmt 0 view .LVU424
 1600 0000 2DE9F04F 		push	{r4, r5, r6, r7, r8, r9, r10, fp, lr}
 1601              		.cfi_def_cfa_offset 36
 1602              		.cfi_offset 4, -36
 1603              		.cfi_offset 5, -32
 1604              		.cfi_offset 6, -28
 1605              		.cfi_offset 7, -24
 1606              		.cfi_offset 8, -20
 1607              		.cfi_offset 9, -16
 1608              		.cfi_offset 10, -12
 1609              		.cfi_offset 11, -8
 1610              		.cfi_offset 14, -4
 1611 0004 8BB0     		sub	sp, sp, #44
 1612              		.cfi_def_cfa_offset 80
 441:libDaisy/src/hid/disp/display.h ****     {
 442:libDaisy/src/hid/disp/display.h ****         // Write until null-byte
 443:libDaisy/src/hid/disp/display.h ****         while(*str)
 1613              		.loc 3 443 9 view .LVU425
 1614 0006 0F78     		ldrb	r7, [r1]	@ zero_extendqisi2
 440:libDaisy/src/hid/disp/display.h ****     {
 1615              		.loc 3 440 10 view .LVU426
 1616 0008 9DF85040 		ldrb	r4, [sp, #80]	@ zero_extendqisi2
 1617 000c 0191     		str	r1, [sp, #4]
 1618 000e 0794     		str	r4, [sp, #28]
 1619 0010 0AAC     		add	r4, sp, #40
 1620 0012 04E90C00 		stmdb	r4, {r2, r3}
 1621              		.loc 3 443 9 is_stmt 1 view .LVU427
 1622 0016 002F     		cmp	r7, #0
 1623 0018 00F0BA80 		beq	.L127
 1624 001c 9DF82130 		ldrb	r3, [sp, #33]	@ zero_extendqisi2
 1625 0020 8246     		mov	r10, r0
 1626 0022 9DF82060 		ldrb	r6, [sp, #32]	@ zero_extendqisi2
 1627 0026 0493     		str	r3, [sp, #16]
ARM GAS  C:\Users\yaman\AppData\Local\Temp\ccCu6FW5.s 			page 66


 1628 0028 099B     		ldr	r3, [sp, #36]
 1629 002a 0693     		str	r3, [sp, #24]
 1630              	.LVL106:
 1631              	.L128:
 1632              	.LBB838:
 1633              	.LBI838:
 396:libDaisy/src/hid/disp/display.h ****     {
 1634              		.loc 3 396 10 view .LVU428
 1635              	.LBB839:
 401:libDaisy/src/hid/disp/display.h ****             return 0;
 1636              		.loc 3 401 20 is_stmt 0 view .LVU429
 1637 002c A7F12004 		sub	r4, r7, #32
 401:libDaisy/src/hid/disp/display.h ****             return 0;
 1638              		.loc 3 401 9 view .LVU430
 1639 0030 E3B2     		uxtb	r3, r4
 1640 0032 5E2B     		cmp	r3, #94
 1641 0034 00F2AD80 		bhi	.L101
 405:libDaisy/src/hid/disp/display.h ****            || Height() < (currentY_ + font.FontHeight))
 1642              		.loc 3 405 17 view .LVU431
 1643 0038 DAF80030 		ldr	r3, [r10]
 1644 003c 794A     		ldr	r2, .L152
 1645 003e DB68     		ldr	r3, [r3, #12]
 1646 0040 9342     		cmp	r3, r2
 1647 0042 40F0CE80 		bne	.L144
 1648 0046 4020     		movs	r0, #64
 1649              	.L103:
 405:libDaisy/src/hid/disp/display.h ****            || Height() < (currentY_ + font.FontHeight))
 1650              		.loc 3 405 23 view .LVU432
 1651 0048 BAF80430 		ldrh	r3, [r10, #4]
 405:libDaisy/src/hid/disp/display.h ****            || Height() < (currentY_ + font.FontHeight))
 1652              		.loc 3 405 33 view .LVU433
 1653 004c 3344     		add	r3, r3, r6
 406:libDaisy/src/hid/disp/display.h ****         {
 1654              		.loc 3 406 12 view .LVU434
 1655 004e 8342     		cmp	r3, r0
 1656 0050 00F3C380 		bgt	.L143
 406:libDaisy/src/hid/disp/display.h ****         {
 1657              		.loc 3 406 21 view .LVU435
 1658 0054 DAF80030 		ldr	r3, [r10]
 1659 0058 734A     		ldr	r2, .L152+4
 1660 005a 9B68     		ldr	r3, [r3, #8]
 1661 005c 9342     		cmp	r3, r2
 1662 005e 40F0C380 		bne	.L145
 1663 0062 2020     		movs	r0, #32
 1664              	.L106:
 406:libDaisy/src/hid/disp/display.h ****         {
 1665              		.loc 3 406 27 view .LVU436
 1666 0064 BAF80630 		ldrh	r3, [r10, #6]
 406:libDaisy/src/hid/disp/display.h ****         {
 1667              		.loc 3 406 37 view .LVU437
 1668 0068 049A     		ldr	r2, [sp, #16]
 406:libDaisy/src/hid/disp/display.h ****         {
 1669              		.loc 3 406 27 view .LVU438
 1670 006a 0393     		str	r3, [sp, #12]
 406:libDaisy/src/hid/disp/display.h ****         {
 1671              		.loc 3 406 37 view .LVU439
 1672 006c 1344     		add	r3, r3, r2
ARM GAS  C:\Users\yaman\AppData\Local\Temp\ccCu6FW5.s 			page 67


 406:libDaisy/src/hid/disp/display.h ****         {
 1673              		.loc 3 406 12 view .LVU440
 1674 006e 8342     		cmp	r3, r0
 1675 0070 00F3B380 		bgt	.L143
 1676              	.LVL107:
 413:libDaisy/src/hid/disp/display.h ****         {
 1677              		.loc 3 413 22 is_stmt 1 view .LVU441
 1678 0074 002A     		cmp	r2, #0
 1679 0076 00F0C280 		beq	.L108
 415:libDaisy/src/hid/disp/display.h ****             for(j = 0; j < font.FontWidth; j++)
 1680              		.loc 3 415 37 is_stmt 0 view .LVU442
 1681 007a 02FB04F4 		mul	r4, r2, r4
 1682 007e 6FF0004E 		mvn	lr, #-2147483648
 1683 0082 069B     		ldr	r3, [sp, #24]
 1684 0084 A644     		add	lr, lr, r4
 1685 0086 1444     		add	r4, r4, r2
 434:libDaisy/src/hid/disp/display.h **** 
 1686              		.loc 3 434 19 view .LVU443
 1687 0088 BAF80480 		ldrh	r8, [r10, #4]
 1688 008c 03EB4E0E 		add	lr, r3, lr, lsl #1
 1689 0090 023B     		subs	r3, r3, #2
 1690 0092 DDF80CC0 		ldr	ip, [sp, #12]
 1691 0096 03EB4403 		add	r3, r3, r4, lsl #1
 1692 009a DDF81C90 		ldr	r9, [sp, #28]
 1693 009e 0597     		str	r7, [sp, #20]
 1694 00a0 0293     		str	r3, [sp, #8]
 1695              	.LVL108:
 1696              	.L111:
 415:libDaisy/src/hid/disp/display.h ****             for(j = 0; j < font.FontWidth; j++)
 1697              		.loc 3 415 15 view .LVU444
 1698 00a2 3EF8020F 		ldrh	r0, [lr, #2]!
 1699              	.LVL109:
 416:libDaisy/src/hid/disp/display.h ****             {
 1700              		.loc 3 416 26 is_stmt 1 view .LVU445
 1701 00a6 002E     		cmp	r6, #0
 1702 00a8 3BD0     		beq	.L115
 1703              	.LBB840:
 1704              	.LBB841:
 1705              	.LBB842:
 1706              	.LBB843:
 1707              	.LBB844:
 246:libDaisy/src/dev/oled_ssd130x.h ****     }
 1708              		.loc 13 246 55 is_stmt 0 view .LVU446
 1709 00aa 0CF00703 		and	r3, ip, #7
 246:libDaisy/src/dev/oled_ssd130x.h ****     }
 1710              		.loc 13 246 49 view .LVU447
 1711 00ae 0125     		movs	r5, #1
 246:libDaisy/src/dev/oled_ssd130x.h ****     }
 1712              		.loc 13 246 28 view .LVU448
 1713 00b0 4FEADC02 		lsr	r2, ip, #3
 1714 00b4 08F11001 		add	r1, r8, #16
 246:libDaisy/src/dev/oled_ssd130x.h ****     }
 1715              		.loc 13 246 49 view .LVU449
 1716 00b8 9D40     		lsls	r5, r5, r3
 1717              	.LBE844:
 1718              	.LBE843:
 1719              	.LBE842:
ARM GAS  C:\Users\yaman\AppData\Local\Temp\ccCu6FW5.s 			page 68


 1720              	.LBE841:
 1721              	.LBE840:
 1722              	.LBB866:
 1723              	.LBB867:
 1724              	.LBB868:
 241:libDaisy/src/dev/oled_ssd130x.h ****             return;
 1725              		.loc 13 241 28 view .LVU450
 1726 00ba BCF11F0F 		cmp	ip, #31
 1727              	.LBE868:
 1728              	.LBE867:
 1729              	.LBE866:
 1730              	.LBB888:
 1731              	.LBB859:
 1732              	.LBB854:
 1733              	.LBB849:
 1734              	.LBB845:
 246:libDaisy/src/dev/oled_ssd130x.h ****     }
 1735              		.loc 13 246 42 view .LVU451
 1736 00be 4FEA8212 		lsl	r2, r2, #6
 1737              	.LBE845:
 1738              	.LBE849:
 1739              	.LBE854:
 1740              	.LBE859:
 1741              	.LBE888:
 422:libDaisy/src/hid/disp/display.h ****                 }
 1742              		.loc 3 422 29 view .LVU452
 1743 00c2 4346     		mov	r3, r8
 1744              	.LBB889:
 1745              	.LBB860:
 1746              	.LBB855:
 1747              	.LBB850:
 1748              	.LBB846:
 246:libDaisy/src/dev/oled_ssd130x.h ****     }
 1749              		.loc 13 246 42 view .LVU453
 1750 00c4 6DB2     		sxtb	r5, r5
 1751              	.LBE846:
 1752              	.LBE850:
 1753              	.LBE855:
 1754              	.LBE860:
 1755              	.LBE889:
 1756              	.LBB890:
 1757              	.LBB881:
 1758              	.LBB876:
 241:libDaisy/src/dev/oled_ssd130x.h ****             return;
 1759              		.loc 13 241 28 view .LVU454
 1760 00c6 98BF     		it	ls
 1761 00c8 0024     		movls	r4, #0
 1762 00ca 1144     		add	r1, r1, r2
 1763 00cc 88BF     		it	hi
 1764 00ce 0124     		movhi	r4, #1
 1765              	.LBE876:
 1766              	.LBE881:
 1767              	.LBE890:
 1768              	.LBB891:
 1769              	.LBB861:
 1770              	.LBB856:
 1771              	.LBB851:
ARM GAS  C:\Users\yaman\AppData\Local\Temp\ccCu6FW5.s 			page 69


 1772              	.LBB847:
 246:libDaisy/src/dev/oled_ssd130x.h ****     }
 1773              		.loc 13 246 42 view .LVU455
 1774 00d0 EF43     		mvns	r7, r5
 1775 00d2 5144     		add	r1, r1, r10
 1776 00d4 B9F1000F 		cmp	r9, #0
 1777 00d8 5FD1     		bne	.L112
 1778              	.LBE847:
 1779              	.LBE851:
 1780              	.LBE856:
 1781              	.LBE861:
 1782              	.LBE891:
 416:libDaisy/src/hid/disp/display.h ****             {
 1783              		.loc 3 416 19 view .LVU456
 1784 00da 4A46     		mov	r2, r9
 1785 00dc 0DE0     		b	.L116
 1786              	.LVL110:
 1787              	.L146:
 1788              	.LBB892:
 1789              	.LBB862:
 1790              	.LBB857:
 241:libDaisy/src/dev/oled_ssd130x.h ****             return;
 1791              		.loc 13 241 9 view .LVU457
 1792 00de 3F2B     		cmp	r3, #63
 1793 00e0 06D8     		bhi	.L114
 1794 00e2 2CB9     		cbnz	r4, .L114
 244:libDaisy/src/dev/oled_ssd130x.h ****         else
 1795              		.loc 13 244 42 view .LVU458
 1796 00e4 91F800B0 		ldrb	fp, [r1]	@ zero_extendqisi2
 1797 00e8 45EA0B0B 		orr	fp, r5, fp
 1798 00ec 81F800B0 		strb	fp, [r1]
 1799              	.L114:
 1800              	.LVL111:
 244:libDaisy/src/dev/oled_ssd130x.h ****         else
 1801              		.loc 13 244 42 view .LVU459
 1802              	.LBE857:
 1803              	.LBE862:
 1804              	.LBE892:
 416:libDaisy/src/hid/disp/display.h ****             {
 1805              		.loc 3 416 13 is_stmt 1 view .LVU460
 1806 00f0 0132     		adds	r2, r2, #1
 1807              	.LVL112:
 416:libDaisy/src/hid/disp/display.h ****             {
 1808              		.loc 3 416 26 view .LVU461
 1809 00f2 0131     		adds	r1, r1, #1
 1810 00f4 0133     		adds	r3, r3, #1
 1811 00f6 B242     		cmp	r2, r6
 1812 00f8 13D0     		beq	.L115
 1813              	.LVL113:
 1814              	.L116:
 1815              	.LBB893:
 1816              	.LBI840:
  42:libDaisy/src/hid/disp/oled_display.h ****     {
 1817              		.loc 2 42 10 view .LVU462
 1818              	.LBB863:
 1819              	.LBI841:
 239:libDaisy/src/dev/oled_ssd130x.h ****     {
ARM GAS  C:\Users\yaman\AppData\Local\Temp\ccCu6FW5.s 			page 70


 1820              		.loc 13 239 10 view .LVU463
 239:libDaisy/src/dev/oled_ssd130x.h ****     {
 1821              		.loc 13 239 10 is_stmt 0 view .LVU464
 1822              	.LBE863:
 1823              	.LBE893:
 1824              	.LBB894:
 1825              	.LBI866:
  42:libDaisy/src/hid/disp/oled_display.h ****     {
 1826              		.loc 2 42 10 is_stmt 1 view .LVU465
 1827              	.LBB882:
 1828              	.LBI867:
 239:libDaisy/src/dev/oled_ssd130x.h ****     {
 1829              		.loc 13 239 10 view .LVU466
 1830              	.LBE882:
 1831              	.LBE894:
 418:libDaisy/src/hid/disp/display.h ****                 {
 1832              		.loc 3 418 23 is_stmt 0 view .LVU467
 1833 00fa 00FA02FB 		lsl	fp, r0, r2
 418:libDaisy/src/hid/disp/display.h ****                 {
 1834              		.loc 3 418 17 view .LVU468
 1835 00fe 1BF4004F 		tst	fp, #32768
 1836 0102 ECD0     		beq	.L146
 1837              	.LVL114:
 1838              	.LBB895:
 1839              	.LBB883:
 1840              	.LBB877:
 1841              	.LBB869:
 1842              	.LBI869:
 239:libDaisy/src/dev/oled_ssd130x.h ****     {
 1843              		.loc 13 239 10 is_stmt 1 view .LVU469
 239:libDaisy/src/dev/oled_ssd130x.h ****     {
 1844              		.loc 13 239 10 is_stmt 0 view .LVU470
 1845              	.LBE869:
 241:libDaisy/src/dev/oled_ssd130x.h ****             return;
 1846              		.loc 13 241 9 view .LVU471
 1847 0104 3F2B     		cmp	r3, #63
 1848 0106 F3D8     		bhi	.L114
 1849 0108 002C     		cmp	r4, #0
 1850 010a F1D1     		bne	.L114
 1851              	.LBB873:
 1852              	.LBB870:
 246:libDaisy/src/dev/oled_ssd130x.h ****     }
 1853              		.loc 13 246 42 view .LVU472
 1854 010c 91F800B0 		ldrb	fp, [r1]	@ zero_extendqisi2
 1855              	.LBE870:
 1856              	.LBE873:
 1857              	.LBE877:
 1858              	.LBE883:
 1859              	.LBE895:
 416:libDaisy/src/hid/disp/display.h ****             {
 1860              		.loc 3 416 13 view .LVU473
 1861 0110 0132     		adds	r2, r2, #1
 1862              	.LVL115:
 416:libDaisy/src/hid/disp/display.h ****             {
 1863              		.loc 3 416 26 view .LVU474
 1864 0112 0131     		adds	r1, r1, #1
 1865 0114 0133     		adds	r3, r3, #1
ARM GAS  C:\Users\yaman\AppData\Local\Temp\ccCu6FW5.s 			page 71


 1866              	.LBB896:
 1867              	.LBB884:
 1868              	.LBB878:
 1869              	.LBB874:
 1870              	.LBB871:
 246:libDaisy/src/dev/oled_ssd130x.h ****     }
 1871              		.loc 13 246 42 view .LVU475
 1872 0116 07EA0B0B 		and	fp, r7, fp
 1873              	.LBE871:
 1874              	.LBE874:
 1875              	.LBE878:
 1876              	.LBE884:
 1877              	.LBE896:
 416:libDaisy/src/hid/disp/display.h ****             {
 1878              		.loc 3 416 26 view .LVU476
 1879 011a B242     		cmp	r2, r6
 1880              	.LBB897:
 1881              	.LBB885:
 1882              	.LBB879:
 1883              	.LBB875:
 1884              	.LBB872:
 246:libDaisy/src/dev/oled_ssd130x.h ****     }
 1885              		.loc 13 246 42 view .LVU477
 1886 011c 01F801BC 		strb	fp, [r1, #-1]
 1887              	.LVL116:
 246:libDaisy/src/dev/oled_ssd130x.h ****     }
 1888              		.loc 13 246 42 view .LVU478
 1889              	.LBE872:
 1890              	.LBE875:
 1891              	.LBE879:
 1892              	.LBE885:
 1893              	.LBE897:
 416:libDaisy/src/hid/disp/display.h ****             {
 1894              		.loc 3 416 13 is_stmt 1 view .LVU479
 416:libDaisy/src/hid/disp/display.h ****             {
 1895              		.loc 3 416 26 view .LVU480
 1896 0120 EBD1     		bne	.L116
 1897              	.LVL117:
 1898              	.L115:
 413:libDaisy/src/hid/disp/display.h ****         {
 1899              		.loc 3 413 9 view .LVU481
 413:libDaisy/src/hid/disp/display.h ****         {
 1900              		.loc 3 413 22 view .LVU482
 1901 0122 029B     		ldr	r3, [sp, #8]
 1902 0124 0CF1010C 		add	ip, ip, #1
 1903 0128 7345     		cmp	r3, lr
 1904 012a BAD1     		bne	.L111
 1905 012c 059F     		ldr	r7, [sp, #20]
 1906              	.LVL118:
 1907              	.L110:
 1908              	.LBB898:
 1909              	.LBB899:
 173:libDaisy/src/hid/disp/display.h ****         currentY_ = (y >= Height()) ? Height() - 1 : y;
 1910              		.loc 3 173 33 is_stmt 0 view .LVU483
 1911 012e DAF80020 		ldr	r2, [r10]
 1912              	.LBE899:
 1913              	.LBE898:
ARM GAS  C:\Users\yaman\AppData\Local\Temp\ccCu6FW5.s 			page 72


 434:libDaisy/src/hid/disp/display.h **** 
 1914              		.loc 3 434 18 view .LVU484
 1915 0132 08EB0604 		add	r4, r8, r6
 1916 0136 3B49     		ldr	r1, .L152
 1917              	.LBB904:
 1918              	.LBB900:
 173:libDaisy/src/hid/disp/display.h ****         currentY_ = (y >= Height()) ? Height() - 1 : y;
 1919              		.loc 3 173 33 view .LVU485
 1920 0138 D368     		ldr	r3, [r2, #12]
 1921              	.LBE900:
 1922              	.LBE904:
 434:libDaisy/src/hid/disp/display.h **** 
 1923              		.loc 3 434 18 view .LVU486
 1924 013a A4B2     		uxth	r4, r4
 1925              	.LVL119:
 1926              	.LBB905:
 1927              	.LBI898:
 171:libDaisy/src/hid/disp/display.h ****     {
 1928              		.loc 3 171 10 is_stmt 1 view .LVU487
 1929              	.LBB901:
 173:libDaisy/src/hid/disp/display.h ****         currentY_ = (y >= Height()) ? Height() - 1 : y;
 1930              		.loc 3 173 9 view .LVU488
 1931 013c 8B42     		cmp	r3, r1
 1932 013e 59D1     		bne	.L147
 173:libDaisy/src/hid/disp/display.h ****         currentY_ = (y >= Height()) ? Height() - 1 : y;
 1933              		.loc 3 173 33 is_stmt 0 view .LVU489
 1934 0140 4020     		movs	r0, #64
 1935              	.L120:
 173:libDaisy/src/hid/disp/display.h ****         currentY_ = (y >= Height()) ? Height() - 1 : y;
 1936              		.loc 3 173 19 view .LVU490
 1937 0142 8442     		cmp	r4, r0
 1938 0144 04D3     		bcc	.L121
 173:libDaisy/src/hid/disp/display.h ****         currentY_ = (y >= Height()) ? Height() - 1 : y;
 1939              		.loc 3 173 44 view .LVU491
 1940 0146 D368     		ldr	r3, [r2, #12]
 1941 0148 3649     		ldr	r1, .L152
 1942 014a 8B42     		cmp	r3, r1
 1943 014c 60D1     		bne	.L148
 1944 014e 3F24     		movs	r4, #63
 1945              	.LVL120:
 1946              	.L121:
 174:libDaisy/src/hid/disp/display.h ****     }
 1947              		.loc 3 174 34 view .LVU492
 1948 0150 9368     		ldr	r3, [r2, #8]
 1949 0152 354A     		ldr	r2, .L152+4
 173:libDaisy/src/hid/disp/display.h ****         currentY_ = (y >= Height()) ? Height() - 1 : y;
 1950              		.loc 3 173 19 view .LVU493
 1951 0154 AAF80440 		strh	r4, [r10, #4]	@ movhi
 174:libDaisy/src/hid/disp/display.h ****     }
 1952              		.loc 3 174 9 is_stmt 1 view .LVU494
 1953 0158 9342     		cmp	r3, r2
 1954 015a 48D1     		bne	.L149
 174:libDaisy/src/hid/disp/display.h ****     }
 1955              		.loc 3 174 34 is_stmt 0 view .LVU495
 1956 015c 2020     		movs	r0, #32
 1957              	.L123:
 174:libDaisy/src/hid/disp/display.h ****     }
ARM GAS  C:\Users\yaman\AppData\Local\Temp\ccCu6FW5.s 			page 73


 1958              		.loc 3 174 19 view .LVU496
 1959 015e 039B     		ldr	r3, [sp, #12]
 1960 0160 8342     		cmp	r3, r0
 1961 0162 07D3     		bcc	.L124
 174:libDaisy/src/hid/disp/display.h ****     }
 1962              		.loc 3 174 46 view .LVU497
 1963 0164 DAF80030 		ldr	r3, [r10]
 1964 0168 2F4A     		ldr	r2, .L152+4
 1965 016a 9B68     		ldr	r3, [r3, #8]
 1966 016c 9342     		cmp	r3, r2
 1967 016e 49D1     		bne	.L150
 1968 0170 1F23     		movs	r3, #31
 1969 0172 0393     		str	r3, [sp, #12]
 1970              	.LVL121:
 1971              	.L124:
 174:libDaisy/src/hid/disp/display.h ****     }
 1972              		.loc 3 174 19 view .LVU498
 1973 0174 039B     		ldr	r3, [sp, #12]
 1974 0176 AAF80630 		strh	r3, [r10, #6]	@ movhi
 1975              	.LBE901:
 1976              	.LBE905:
 1977              	.LBE839:
 1978              	.LBE838:
 444:libDaisy/src/hid/disp/display.h ****         {
 445:libDaisy/src/hid/disp/display.h ****             if(((ChildType*)(this))->ChildType::WriteChar(*str, font, on)
 446:libDaisy/src/hid/disp/display.h ****                != *str)
 1979              		.loc 3 446 16 view .LVU499
 1980 017a 019B     		ldr	r3, [sp, #4]
 1981 017c 1B78     		ldrb	r3, [r3]	@ zero_extendqisi2
 1982              	.LVL122:
 1983              	.L105:
 445:libDaisy/src/hid/disp/display.h ****                != *str)
 1984              		.loc 3 445 13 view .LVU500
 1985 017e 9F42     		cmp	r7, r3
 1986 0180 4DD1     		bne	.L135
 1987              	.LVL123:
 443:libDaisy/src/hid/disp/display.h ****         {
 1988              		.loc 3 443 9 is_stmt 1 view .LVU501
 1989 0182 019B     		ldr	r3, [sp, #4]
 1990 0184 13F8017F 		ldrb	r7, [r3, #1]!	@ zero_extendqisi2
 1991              	.LVL124:
 443:libDaisy/src/hid/disp/display.h ****         {
 1992              		.loc 3 443 9 is_stmt 0 view .LVU502
 1993 0188 0193     		str	r3, [sp, #4]
 1994 018a 002F     		cmp	r7, #0
 1995 018c 7FF44EAF 		bne	.L128
 1996              	.LVL125:
 1997              	.L127:
 443:libDaisy/src/hid/disp/display.h ****         {
 1998              		.loc 3 443 9 view .LVU503
 1999 0190 0027     		movs	r7, #0
 2000              	.L101:
 447:libDaisy/src/hid/disp/display.h ****             {
 448:libDaisy/src/hid/disp/display.h ****                 // Char could not be written
 449:libDaisy/src/hid/disp/display.h ****                 return *str;
 450:libDaisy/src/hid/disp/display.h ****             }
 451:libDaisy/src/hid/disp/display.h **** 
ARM GAS  C:\Users\yaman\AppData\Local\Temp\ccCu6FW5.s 			page 74


 452:libDaisy/src/hid/disp/display.h ****             // Next char
 453:libDaisy/src/hid/disp/display.h ****             str++;
 454:libDaisy/src/hid/disp/display.h ****         }
 455:libDaisy/src/hid/disp/display.h **** 
 456:libDaisy/src/hid/disp/display.h ****         // Everything ok
 457:libDaisy/src/hid/disp/display.h ****         return *str;
 458:libDaisy/src/hid/disp/display.h ****     }
 2001              		.loc 3 458 5 view .LVU504
 2002 0192 3846     		mov	r0, r7
 2003 0194 0BB0     		add	sp, sp, #44
 2004              		.cfi_remember_state
 2005              		.cfi_def_cfa_offset 36
 2006              		@ sp needed
